Start: gcd.x
WARNING: components/memory.v:37: $readmemh(temp.x): Not enough words in the file for the requested range [0:262143].
Initial Contents of regfile: 
r0 = 0x0
r1 = 0x0
r2 = 0x1011111
r3 = 0x0
r4 = 0x0
r5 = 0x0
r6 = 0x0
r7 = 0x0
r8 = 0x0
r9 = 0x0
r10 = 0x0
r11 = 0x0
r12 = 0x0
r13 = 0x0
r14 = 0x0
r15 = 0x0
r16 = 0x0
r17 = 0x0
r18 = 0x0
r19 = 0x0
r20 = 0x0
r21 = 0x0
r22 = 0x0
r23 = 0x0
r24 = 0x0
r25 = 0x0
r26 = 0x0
r27 = 0x0
r28 = 0x0
r29 = 0x0
r30 = 0x0
r31 = 0x0
WARNING: components/memory.v:37: $readmemh(temp.x): Not enough words in the file for the requested range [0:262143].
VCD info: dumpfile testbench.vcd opened for output.
xxxxxxxx:  	xxxxxxxx    	 error

--------------------------------------
xxxxxxxx:  	xxxxxxxx    	 error

--------------------------------------
Error in ALU mux x
00fffffc:  	00000013    	NOP

--------------------------------------
01000000:  	fe010113    	ADDI   x2, x2, 4294967264

--------------------------------------
01000004:  	00112e23    	SW     x1, 28(x2)
MX bypass into ALU_in1 from instruction at PC=01000000

--------------------------------------
01000008:  	000017b7    	LUI    x15, 0x1000

--------------------------------------
0100000c:  	80078793    	ADDI   x15, x15, 4294965248
MX bypass into ALU_in1 from instruction at PC=01000008
Instruction at 01000010 stalling to wait for dependant data to reach a stage where it can be read

--------------------------------------
01000010:  	00000013    	NOP
Instruction at 01000010 stalling to wait for dependant data to reach a stage where it can be read

--------------------------------------
01000010:  	00000013    	NOP
Instruction at 01000010 stalling to wait for dependant data to reach a stage where it can be read

--------------------------------------
01000010:  	00000013    	NOP

--------------------------------------
01000010:  	00f12623    	SW     x15, 12(x2)

--------------------------------------
01000014:  	07c00793    	ADDI   x15, x0, 124

--------------------------------------
01000018:  	00f12423    	SW     x15, 8(x2)
MX bypass into ALU_in2 from instruction at PC=01000014
Instruction at 0100001c stalling to wait for dependant data to reach a stage where it can be read

--------------------------------------
0100001c:  	00000013    	NOP

--------------------------------------
0100001c:  	00c12783    	LW     x15, 12(x2)
Instruction at 01000020 stalling to wait for dependant data to reach a stage where it can be read

--------------------------------------
01000020:  	00000013    	NOP

--------------------------------------
01000020:  	41f7d793    	SRAI     x15, 15 ,x31)
MX bypass into ALU_in1 from instruction at PC=01000024

--------------------------------------
01000024:  	00c12703    	LW     x14, 12(x2)
Instruction at 01000028 stalling to wait for dependant data to reach a stage where it can be read

--------------------------------------
01000028:  	00000013    	NOP
Instruction at 01000028 stalling to wait for dependant data to reach a stage where it can be read

--------------------------------------
01000028:  	00000013    	NOP
Instruction at 01000028 stalling to wait for dependant data to reach a stage where it can be read

--------------------------------------
01000028:  	00000013    	NOP

--------------------------------------
01000028:  	00f74733    	XOR    x14, x14, x15

--------------------------------------
0100002c:  	40f707b3    	SUB    x15, x14, x15
MX bypass into ALU_in1 from instruction at PC=01000028

--------------------------------------
01000030:  	00f12623    	SW     x15, 12(x2)
MX bypass into ALU_in2 from instruction at PC=0100002c

--------------------------------------
01000034:  	00812783    	LW     x15, 8(x2)
Instruction at 01000038 stalling to wait for dependant data to reach a stage where it can be read

--------------------------------------
01000038:  	00000013    	NOP

--------------------------------------
01000038:  	41f7d793    	SRAI     x15, 15 ,x31)
MX bypass into ALU_in1 from instruction at PC=0100003c

--------------------------------------
0100003c:  	00812703    	LW     x14, 8(x2)
Instruction at 01000040 stalling to wait for dependant data to reach a stage where it can be read

--------------------------------------
01000040:  	00000013    	NOP
Instruction at 01000040 stalling to wait for dependant data to reach a stage where it can be read

--------------------------------------
01000040:  	00000013    	NOP
Instruction at 01000040 stalling to wait for dependant data to reach a stage where it can be read

--------------------------------------
01000040:  	00000013    	NOP

--------------------------------------
01000040:  	00f74733    	XOR    x14, x14, x15

--------------------------------------
01000044:  	40f707b3    	SUB    x15, x14, x15
MX bypass into ALU_in1 from instruction at PC=01000040

--------------------------------------
01000048:  	00f12423    	SW     x15, 8(x2)
MX bypass into ALU_in2 from instruction at PC=01000044

--------------------------------------
0100004c:  	0340006f    	JAL    x0, 1000080
Instruction at 0100004c breaks execution flow, squashing bubble

--------------------------------------
00000000:  	00000013    	NOP

--------------------------------------
00000000:  	00000013    	NOP

--------------------------------------
01000080:  	00c12703    	LW     x14, 12(x2)

--------------------------------------
01000084:  	00812783    	LW     x15, 8(x2)
Instruction at 01000088 stalling to wait for dependant data to reach a stage where it can be read

--------------------------------------
01000088:  	00000013    	NOP
Instruction at 01000088 stalling to wait for dependant data to reach a stage where it can be read

--------------------------------------
01000088:  	00000013    	NOP
Instruction at 01000088 stalling to wait for dependant data to reach a stage where it can be read

--------------------------------------
01000088:  	00000013    	NOP

--------------------------------------
01000088:  	fcf714e3    	BNE    x14, x15, 1000050
Instruction at 01000088 breaks execution flow, squashing bubble

--------------------------------------
00000000:  	00000013    	NOP

--------------------------------------
00000000:  	00000013    	NOP

--------------------------------------
01000050:  	00c12703    	LW     x14, 12(x2)

--------------------------------------
01000054:  	00812783    	LW     x15, 8(x2)
Instruction at 01000058 stalling to wait for dependant data to reach a stage where it can be read

--------------------------------------
01000058:  	00000013    	NOP
Instruction at 01000058 stalling to wait for dependant data to reach a stage where it can be read

--------------------------------------
01000058:  	00000013    	NOP
Instruction at 01000058 stalling to wait for dependant data to reach a stage where it can be read

--------------------------------------
01000058:  	00000013    	NOP

--------------------------------------
01000058:  	00e7dc63    	BGE    x15, x14, 1000070

--------------------------------------
0100005c:  	00c12703    	LW     x14, 12(x2)

--------------------------------------
01000060:  	00812783    	LW     x15, 8(x2)
Instruction at 01000064 stalling to wait for dependant data to reach a stage where it can be read

--------------------------------------
01000064:  	00000013    	NOP
Instruction at 01000064 stalling to wait for dependant data to reach a stage where it can be read

--------------------------------------
01000064:  	00000013    	NOP
Instruction at 01000064 stalling to wait for dependant data to reach a stage where it can be read

--------------------------------------
01000064:  	00000013    	NOP

--------------------------------------
01000064:  	40f707b3    	SUB    x15, x14, x15

--------------------------------------
01000068:  	00f12623    	SW     x15, 12(x2)
MX bypass into ALU_in2 from instruction at PC=01000064

--------------------------------------
0100006c:  	0140006f    	JAL    x0, 1000080
Instruction at 0100006c breaks execution flow, squashing bubble

--------------------------------------
00000000:  	00000013    	NOP

--------------------------------------
00000000:  	00000013    	NOP

--------------------------------------
01000080:  	00c12703    	LW     x14, 12(x2)

--------------------------------------
01000084:  	00812783    	LW     x15, 8(x2)
Instruction at 01000088 stalling to wait for dependant data to reach a stage where it can be read

--------------------------------------
01000088:  	00000013    	NOP
Instruction at 01000088 stalling to wait for dependant data to reach a stage where it can be read

--------------------------------------
01000088:  	00000013    	NOP
Instruction at 01000088 stalling to wait for dependant data to reach a stage where it can be read

--------------------------------------
01000088:  	00000013    	NOP

--------------------------------------
01000088:  	fcf714e3    	BNE    x14, x15, 1000050
Instruction at 01000088 breaks execution flow, squashing bubble

--------------------------------------
00000000:  	00000013    	NOP

--------------------------------------
00000000:  	00000013    	NOP

--------------------------------------
01000050:  	00c12703    	LW     x14, 12(x2)

--------------------------------------
01000054:  	00812783    	LW     x15, 8(x2)
Instruction at 01000058 stalling to wait for dependant data to reach a stage where it can be read

--------------------------------------
01000058:  	00000013    	NOP
Instruction at 01000058 stalling to wait for dependant data to reach a stage where it can be read

--------------------------------------
01000058:  	00000013    	NOP
Instruction at 01000058 stalling to wait for dependant data to reach a stage where it can be read

--------------------------------------
01000058:  	00000013    	NOP

--------------------------------------
01000058:  	00e7dc63    	BGE    x15, x14, 1000070

--------------------------------------
0100005c:  	00c12703    	LW     x14, 12(x2)

--------------------------------------
01000060:  	00812783    	LW     x15, 8(x2)
Instruction at 01000064 stalling to wait for dependant data to reach a stage where it can be read

--------------------------------------
01000064:  	00000013    	NOP
Instruction at 01000064 stalling to wait for dependant data to reach a stage where it can be read

--------------------------------------
01000064:  	00000013    	NOP
Instruction at 01000064 stalling to wait for dependant data to reach a stage where it can be read

--------------------------------------
01000064:  	00000013    	NOP

--------------------------------------
01000064:  	40f707b3    	SUB    x15, x14, x15

--------------------------------------
01000068:  	00f12623    	SW     x15, 12(x2)
MX bypass into ALU_in2 from instruction at PC=01000064

--------------------------------------
0100006c:  	0140006f    	JAL    x0, 1000080
Instruction at 0100006c breaks execution flow, squashing bubble

--------------------------------------
00000000:  	00000013    	NOP

--------------------------------------
00000000:  	00000013    	NOP

--------------------------------------
01000080:  	00c12703    	LW     x14, 12(x2)

--------------------------------------
01000084:  	00812783    	LW     x15, 8(x2)
Instruction at 01000088 stalling to wait for dependant data to reach a stage where it can be read

--------------------------------------
01000088:  	00000013    	NOP
Instruction at 01000088 stalling to wait for dependant data to reach a stage where it can be read

--------------------------------------
01000088:  	00000013    	NOP
Instruction at 01000088 stalling to wait for dependant data to reach a stage where it can be read

--------------------------------------
01000088:  	00000013    	NOP

--------------------------------------
01000088:  	fcf714e3    	BNE    x14, x15, 1000050
Instruction at 01000088 breaks execution flow, squashing bubble

--------------------------------------
00000000:  	00000013    	NOP

--------------------------------------
00000000:  	00000013    	NOP

--------------------------------------
01000050:  	00c12703    	LW     x14, 12(x2)

--------------------------------------
01000054:  	00812783    	LW     x15, 8(x2)
Instruction at 01000058 stalling to wait for dependant data to reach a stage where it can be read

--------------------------------------
01000058:  	00000013    	NOP
Instruction at 01000058 stalling to wait for dependant data to reach a stage where it can be read

--------------------------------------
01000058:  	00000013    	NOP
Instruction at 01000058 stalling to wait for dependant data to reach a stage where it can be read

--------------------------------------
01000058:  	00000013    	NOP

--------------------------------------
01000058:  	00e7dc63    	BGE    x15, x14, 1000070

--------------------------------------
0100005c:  	00c12703    	LW     x14, 12(x2)

--------------------------------------
01000060:  	00812783    	LW     x15, 8(x2)
Instruction at 01000064 stalling to wait for dependant data to reach a stage where it can be read

--------------------------------------
01000064:  	00000013    	NOP
Instruction at 01000064 stalling to wait for dependant data to reach a stage where it can be read

--------------------------------------
01000064:  	00000013    	NOP
Instruction at 01000064 stalling to wait for dependant data to reach a stage where it can be read

--------------------------------------
01000064:  	00000013    	NOP

--------------------------------------
01000064:  	40f707b3    	SUB    x15, x14, x15

--------------------------------------
01000068:  	00f12623    	SW     x15, 12(x2)
MX bypass into ALU_in2 from instruction at PC=01000064

--------------------------------------
0100006c:  	0140006f    	JAL    x0, 1000080
Instruction at 0100006c breaks execution flow, squashing bubble

--------------------------------------
00000000:  	00000013    	NOP

--------------------------------------
00000000:  	00000013    	NOP

--------------------------------------
01000080:  	00c12703    	LW     x14, 12(x2)

--------------------------------------
01000084:  	00812783    	LW     x15, 8(x2)
Instruction at 01000088 stalling to wait for dependant data to reach a stage where it can be read

--------------------------------------
01000088:  	00000013    	NOP
Instruction at 01000088 stalling to wait for dependant data to reach a stage where it can be read

--------------------------------------
01000088:  	00000013    	NOP
Instruction at 01000088 stalling to wait for dependant data to reach a stage where it can be read

--------------------------------------
01000088:  	00000013    	NOP

--------------------------------------
01000088:  	fcf714e3    	BNE    x14, x15, 1000050
Instruction at 01000088 breaks execution flow, squashing bubble

--------------------------------------
00000000:  	00000013    	NOP

--------------------------------------
00000000:  	00000013    	NOP

--------------------------------------
01000050:  	00c12703    	LW     x14, 12(x2)

--------------------------------------
01000054:  	00812783    	LW     x15, 8(x2)
Instruction at 01000058 stalling to wait for dependant data to reach a stage where it can be read

--------------------------------------
01000058:  	00000013    	NOP
Instruction at 01000058 stalling to wait for dependant data to reach a stage where it can be read

--------------------------------------
01000058:  	00000013    	NOP
Instruction at 01000058 stalling to wait for dependant data to reach a stage where it can be read

--------------------------------------
01000058:  	00000013    	NOP

--------------------------------------
01000058:  	00e7dc63    	BGE    x15, x14, 1000070

--------------------------------------
0100005c:  	00c12703    	LW     x14, 12(x2)

--------------------------------------
01000060:  	00812783    	LW     x15, 8(x2)
Instruction at 01000064 stalling to wait for dependant data to reach a stage where it can be read

--------------------------------------
01000064:  	00000013    	NOP
Instruction at 01000064 stalling to wait for dependant data to reach a stage where it can be read

--------------------------------------
01000064:  	00000013    	NOP
Instruction at 01000064 stalling to wait for dependant data to reach a stage where it can be read

--------------------------------------
01000064:  	00000013    	NOP

--------------------------------------
01000064:  	40f707b3    	SUB    x15, x14, x15

--------------------------------------
01000068:  	00f12623    	SW     x15, 12(x2)
MX bypass into ALU_in2 from instruction at PC=01000064

--------------------------------------
0100006c:  	0140006f    	JAL    x0, 1000080
Instruction at 0100006c breaks execution flow, squashing bubble

--------------------------------------
00000000:  	00000013    	NOP

--------------------------------------
00000000:  	00000013    	NOP

--------------------------------------
01000080:  	00c12703    	LW     x14, 12(x2)

--------------------------------------
01000084:  	00812783    	LW     x15, 8(x2)
Instruction at 01000088 stalling to wait for dependant data to reach a stage where it can be read

--------------------------------------
01000088:  	00000013    	NOP
Instruction at 01000088 stalling to wait for dependant data to reach a stage where it can be read

--------------------------------------
01000088:  	00000013    	NOP
Instruction at 01000088 stalling to wait for dependant data to reach a stage where it can be read

--------------------------------------
01000088:  	00000013    	NOP

--------------------------------------
01000088:  	fcf714e3    	BNE    x14, x15, 1000050
Instruction at 01000088 breaks execution flow, squashing bubble

--------------------------------------
00000000:  	00000013    	NOP

--------------------------------------
00000000:  	00000013    	NOP

--------------------------------------
01000050:  	00c12703    	LW     x14, 12(x2)

--------------------------------------
01000054:  	00812783    	LW     x15, 8(x2)
Instruction at 01000058 stalling to wait for dependant data to reach a stage where it can be read

--------------------------------------
01000058:  	00000013    	NOP
Instruction at 01000058 stalling to wait for dependant data to reach a stage where it can be read

--------------------------------------
01000058:  	00000013    	NOP
Instruction at 01000058 stalling to wait for dependant data to reach a stage where it can be read

--------------------------------------
01000058:  	00000013    	NOP

--------------------------------------
01000058:  	00e7dc63    	BGE    x15, x14, 1000070

--------------------------------------
0100005c:  	00c12703    	LW     x14, 12(x2)

--------------------------------------
01000060:  	00812783    	LW     x15, 8(x2)
Instruction at 01000064 stalling to wait for dependant data to reach a stage where it can be read

--------------------------------------
01000064:  	00000013    	NOP
Instruction at 01000064 stalling to wait for dependant data to reach a stage where it can be read

--------------------------------------
01000064:  	00000013    	NOP
Instruction at 01000064 stalling to wait for dependant data to reach a stage where it can be read

--------------------------------------
01000064:  	00000013    	NOP

--------------------------------------
01000064:  	40f707b3    	SUB    x15, x14, x15

--------------------------------------
01000068:  	00f12623    	SW     x15, 12(x2)
MX bypass into ALU_in2 from instruction at PC=01000064

--------------------------------------
0100006c:  	0140006f    	JAL    x0, 1000080
Instruction at 0100006c breaks execution flow, squashing bubble

--------------------------------------
00000000:  	00000013    	NOP

--------------------------------------
00000000:  	00000013    	NOP

--------------------------------------
01000080:  	00c12703    	LW     x14, 12(x2)

--------------------------------------
01000084:  	00812783    	LW     x15, 8(x2)
Instruction at 01000088 stalling to wait for dependant data to reach a stage where it can be read

--------------------------------------
01000088:  	00000013    	NOP
Instruction at 01000088 stalling to wait for dependant data to reach a stage where it can be read

--------------------------------------
01000088:  	00000013    	NOP
Instruction at 01000088 stalling to wait for dependant data to reach a stage where it can be read

--------------------------------------
01000088:  	00000013    	NOP

--------------------------------------
01000088:  	fcf714e3    	BNE    x14, x15, 1000050
Instruction at 01000088 breaks execution flow, squashing bubble

--------------------------------------
00000000:  	00000013    	NOP

--------------------------------------
00000000:  	00000013    	NOP

--------------------------------------
01000050:  	00c12703    	LW     x14, 12(x2)

--------------------------------------
01000054:  	00812783    	LW     x15, 8(x2)
Instruction at 01000058 stalling to wait for dependant data to reach a stage where it can be read

--------------------------------------
01000058:  	00000013    	NOP
Instruction at 01000058 stalling to wait for dependant data to reach a stage where it can be read

--------------------------------------
01000058:  	00000013    	NOP
Instruction at 01000058 stalling to wait for dependant data to reach a stage where it can be read

--------------------------------------
01000058:  	00000013    	NOP

--------------------------------------
01000058:  	00e7dc63    	BGE    x15, x14, 1000070

--------------------------------------
0100005c:  	00c12703    	LW     x14, 12(x2)

--------------------------------------
01000060:  	00812783    	LW     x15, 8(x2)
Instruction at 01000064 stalling to wait for dependant data to reach a stage where it can be read

--------------------------------------
01000064:  	00000013    	NOP
Instruction at 01000064 stalling to wait for dependant data to reach a stage where it can be read

--------------------------------------
01000064:  	00000013    	NOP
Instruction at 01000064 stalling to wait for dependant data to reach a stage where it can be read

--------------------------------------
01000064:  	00000013    	NOP

--------------------------------------
01000064:  	40f707b3    	SUB    x15, x14, x15

--------------------------------------
01000068:  	00f12623    	SW     x15, 12(x2)
MX bypass into ALU_in2 from instruction at PC=01000064

--------------------------------------
0100006c:  	0140006f    	JAL    x0, 1000080
Instruction at 0100006c breaks execution flow, squashing bubble

--------------------------------------
00000000:  	00000013    	NOP

--------------------------------------
00000000:  	00000013    	NOP

--------------------------------------
01000080:  	00c12703    	LW     x14, 12(x2)

--------------------------------------
01000084:  	00812783    	LW     x15, 8(x2)
Instruction at 01000088 stalling to wait for dependant data to reach a stage where it can be read

--------------------------------------
01000088:  	00000013    	NOP
Instruction at 01000088 stalling to wait for dependant data to reach a stage where it can be read

--------------------------------------
01000088:  	00000013    	NOP
Instruction at 01000088 stalling to wait for dependant data to reach a stage where it can be read

--------------------------------------
01000088:  	00000013    	NOP

--------------------------------------
01000088:  	fcf714e3    	BNE    x14, x15, 1000050
Instruction at 01000088 breaks execution flow, squashing bubble

--------------------------------------
00000000:  	00000013    	NOP

--------------------------------------
00000000:  	00000013    	NOP

--------------------------------------
01000050:  	00c12703    	LW     x14, 12(x2)

--------------------------------------
01000054:  	00812783    	LW     x15, 8(x2)
Instruction at 01000058 stalling to wait for dependant data to reach a stage where it can be read

--------------------------------------
01000058:  	00000013    	NOP
Instruction at 01000058 stalling to wait for dependant data to reach a stage where it can be read

--------------------------------------
01000058:  	00000013    	NOP
Instruction at 01000058 stalling to wait for dependant data to reach a stage where it can be read

--------------------------------------
01000058:  	00000013    	NOP

--------------------------------------
01000058:  	00e7dc63    	BGE    x15, x14, 1000070

--------------------------------------
0100005c:  	00c12703    	LW     x14, 12(x2)

--------------------------------------
01000060:  	00812783    	LW     x15, 8(x2)
Instruction at 01000064 stalling to wait for dependant data to reach a stage where it can be read

--------------------------------------
01000064:  	00000013    	NOP
Instruction at 01000064 stalling to wait for dependant data to reach a stage where it can be read

--------------------------------------
01000064:  	00000013    	NOP
Instruction at 01000064 stalling to wait for dependant data to reach a stage where it can be read

--------------------------------------
01000064:  	00000013    	NOP

--------------------------------------
01000064:  	40f707b3    	SUB    x15, x14, x15

--------------------------------------
01000068:  	00f12623    	SW     x15, 12(x2)
MX bypass into ALU_in2 from instruction at PC=01000064

--------------------------------------
0100006c:  	0140006f    	JAL    x0, 1000080
Instruction at 0100006c breaks execution flow, squashing bubble

--------------------------------------
00000000:  	00000013    	NOP

--------------------------------------
00000000:  	00000013    	NOP

--------------------------------------
01000080:  	00c12703    	LW     x14, 12(x2)

--------------------------------------
01000084:  	00812783    	LW     x15, 8(x2)
Instruction at 01000088 stalling to wait for dependant data to reach a stage where it can be read

--------------------------------------
01000088:  	00000013    	NOP
Instruction at 01000088 stalling to wait for dependant data to reach a stage where it can be read

--------------------------------------
01000088:  	00000013    	NOP
Instruction at 01000088 stalling to wait for dependant data to reach a stage where it can be read

--------------------------------------
01000088:  	00000013    	NOP

--------------------------------------
01000088:  	fcf714e3    	BNE    x14, x15, 1000050
Instruction at 01000088 breaks execution flow, squashing bubble

--------------------------------------
00000000:  	00000013    	NOP

--------------------------------------
00000000:  	00000013    	NOP

--------------------------------------
01000050:  	00c12703    	LW     x14, 12(x2)

--------------------------------------
01000054:  	00812783    	LW     x15, 8(x2)
Instruction at 01000058 stalling to wait for dependant data to reach a stage where it can be read

--------------------------------------
01000058:  	00000013    	NOP
Instruction at 01000058 stalling to wait for dependant data to reach a stage where it can be read

--------------------------------------
01000058:  	00000013    	NOP
Instruction at 01000058 stalling to wait for dependant data to reach a stage where it can be read

--------------------------------------
01000058:  	00000013    	NOP

--------------------------------------
01000058:  	00e7dc63    	BGE    x15, x14, 1000070

--------------------------------------
0100005c:  	00c12703    	LW     x14, 12(x2)

--------------------------------------
01000060:  	00812783    	LW     x15, 8(x2)
Instruction at 01000064 stalling to wait for dependant data to reach a stage where it can be read

--------------------------------------
01000064:  	00000013    	NOP
Instruction at 01000064 stalling to wait for dependant data to reach a stage where it can be read

--------------------------------------
01000064:  	00000013    	NOP
Instruction at 01000064 stalling to wait for dependant data to reach a stage where it can be read

--------------------------------------
01000064:  	00000013    	NOP

--------------------------------------
01000064:  	40f707b3    	SUB    x15, x14, x15

--------------------------------------
01000068:  	00f12623    	SW     x15, 12(x2)
MX bypass into ALU_in2 from instruction at PC=01000064

--------------------------------------
0100006c:  	0140006f    	JAL    x0, 1000080
Instruction at 0100006c breaks execution flow, squashing bubble

--------------------------------------
00000000:  	00000013    	NOP

--------------------------------------
00000000:  	00000013    	NOP

--------------------------------------
01000080:  	00c12703    	LW     x14, 12(x2)

--------------------------------------
01000084:  	00812783    	LW     x15, 8(x2)
Instruction at 01000088 stalling to wait for dependant data to reach a stage where it can be read

--------------------------------------
01000088:  	00000013    	NOP
Instruction at 01000088 stalling to wait for dependant data to reach a stage where it can be read

--------------------------------------
01000088:  	00000013    	NOP
Instruction at 01000088 stalling to wait for dependant data to reach a stage where it can be read

--------------------------------------
01000088:  	00000013    	NOP

--------------------------------------
01000088:  	fcf714e3    	BNE    x14, x15, 1000050
Instruction at 01000088 breaks execution flow, squashing bubble

--------------------------------------
00000000:  	00000013    	NOP

--------------------------------------
00000000:  	00000013    	NOP

--------------------------------------
01000050:  	00c12703    	LW     x14, 12(x2)

--------------------------------------
01000054:  	00812783    	LW     x15, 8(x2)
Instruction at 01000058 stalling to wait for dependant data to reach a stage where it can be read

--------------------------------------
01000058:  	00000013    	NOP
Instruction at 01000058 stalling to wait for dependant data to reach a stage where it can be read

--------------------------------------
01000058:  	00000013    	NOP
Instruction at 01000058 stalling to wait for dependant data to reach a stage where it can be read

--------------------------------------
01000058:  	00000013    	NOP

--------------------------------------
01000058:  	00e7dc63    	BGE    x15, x14, 1000070

--------------------------------------
0100005c:  	00c12703    	LW     x14, 12(x2)

--------------------------------------
01000060:  	00812783    	LW     x15, 8(x2)
Instruction at 01000064 stalling to wait for dependant data to reach a stage where it can be read

--------------------------------------
01000064:  	00000013    	NOP
Instruction at 01000064 stalling to wait for dependant data to reach a stage where it can be read

--------------------------------------
01000064:  	00000013    	NOP
Instruction at 01000064 stalling to wait for dependant data to reach a stage where it can be read

--------------------------------------
01000064:  	00000013    	NOP

--------------------------------------
01000064:  	40f707b3    	SUB    x15, x14, x15

--------------------------------------
01000068:  	00f12623    	SW     x15, 12(x2)
MX bypass into ALU_in2 from instruction at PC=01000064

--------------------------------------
0100006c:  	0140006f    	JAL    x0, 1000080
Instruction at 0100006c breaks execution flow, squashing bubble

--------------------------------------
00000000:  	00000013    	NOP

--------------------------------------
00000000:  	00000013    	NOP

--------------------------------------
01000080:  	00c12703    	LW     x14, 12(x2)

--------------------------------------
01000084:  	00812783    	LW     x15, 8(x2)
Instruction at 01000088 stalling to wait for dependant data to reach a stage where it can be read

--------------------------------------
01000088:  	00000013    	NOP
Instruction at 01000088 stalling to wait for dependant data to reach a stage where it can be read

--------------------------------------
01000088:  	00000013    	NOP
Instruction at 01000088 stalling to wait for dependant data to reach a stage where it can be read

--------------------------------------
01000088:  	00000013    	NOP

--------------------------------------
01000088:  	fcf714e3    	BNE    x14, x15, 1000050
Instruction at 01000088 breaks execution flow, squashing bubble

--------------------------------------
00000000:  	00000013    	NOP

--------------------------------------
00000000:  	00000013    	NOP

--------------------------------------
01000050:  	00c12703    	LW     x14, 12(x2)

--------------------------------------
01000054:  	00812783    	LW     x15, 8(x2)
Instruction at 01000058 stalling to wait for dependant data to reach a stage where it can be read

--------------------------------------
01000058:  	00000013    	NOP
Instruction at 01000058 stalling to wait for dependant data to reach a stage where it can be read

--------------------------------------
01000058:  	00000013    	NOP
Instruction at 01000058 stalling to wait for dependant data to reach a stage where it can be read

--------------------------------------
01000058:  	00000013    	NOP

--------------------------------------
01000058:  	00e7dc63    	BGE    x15, x14, 1000070

--------------------------------------
0100005c:  	00c12703    	LW     x14, 12(x2)

--------------------------------------
01000060:  	00812783    	LW     x15, 8(x2)
Instruction at 01000064 stalling to wait for dependant data to reach a stage where it can be read

--------------------------------------
01000064:  	00000013    	NOP
Instruction at 01000064 stalling to wait for dependant data to reach a stage where it can be read

--------------------------------------
01000064:  	00000013    	NOP
Instruction at 01000064 stalling to wait for dependant data to reach a stage where it can be read

--------------------------------------
01000064:  	00000013    	NOP

--------------------------------------
01000064:  	40f707b3    	SUB    x15, x14, x15

--------------------------------------
01000068:  	00f12623    	SW     x15, 12(x2)
MX bypass into ALU_in2 from instruction at PC=01000064

--------------------------------------
0100006c:  	0140006f    	JAL    x0, 1000080
Instruction at 0100006c breaks execution flow, squashing bubble

--------------------------------------
00000000:  	00000013    	NOP

--------------------------------------
00000000:  	00000013    	NOP

--------------------------------------
01000080:  	00c12703    	LW     x14, 12(x2)

--------------------------------------
01000084:  	00812783    	LW     x15, 8(x2)
Instruction at 01000088 stalling to wait for dependant data to reach a stage where it can be read

--------------------------------------
01000088:  	00000013    	NOP
Instruction at 01000088 stalling to wait for dependant data to reach a stage where it can be read

--------------------------------------
01000088:  	00000013    	NOP
Instruction at 01000088 stalling to wait for dependant data to reach a stage where it can be read

--------------------------------------
01000088:  	00000013    	NOP

--------------------------------------
01000088:  	fcf714e3    	BNE    x14, x15, 1000050
Instruction at 01000088 breaks execution flow, squashing bubble

--------------------------------------
00000000:  	00000013    	NOP

--------------------------------------
00000000:  	00000013    	NOP

--------------------------------------
01000050:  	00c12703    	LW     x14, 12(x2)

--------------------------------------
01000054:  	00812783    	LW     x15, 8(x2)
Instruction at 01000058 stalling to wait for dependant data to reach a stage where it can be read

--------------------------------------
01000058:  	00000013    	NOP
Instruction at 01000058 stalling to wait for dependant data to reach a stage where it can be read

--------------------------------------
01000058:  	00000013    	NOP
Instruction at 01000058 stalling to wait for dependant data to reach a stage where it can be read

--------------------------------------
01000058:  	00000013    	NOP

--------------------------------------
01000058:  	00e7dc63    	BGE    x15, x14, 1000070

--------------------------------------
0100005c:  	00c12703    	LW     x14, 12(x2)

--------------------------------------
01000060:  	00812783    	LW     x15, 8(x2)
Instruction at 01000064 stalling to wait for dependant data to reach a stage where it can be read

--------------------------------------
01000064:  	00000013    	NOP
Instruction at 01000064 stalling to wait for dependant data to reach a stage where it can be read

--------------------------------------
01000064:  	00000013    	NOP
Instruction at 01000064 stalling to wait for dependant data to reach a stage where it can be read

--------------------------------------
01000064:  	00000013    	NOP

--------------------------------------
01000064:  	40f707b3    	SUB    x15, x14, x15

--------------------------------------
01000068:  	00f12623    	SW     x15, 12(x2)
MX bypass into ALU_in2 from instruction at PC=01000064

--------------------------------------
0100006c:  	0140006f    	JAL    x0, 1000080
Instruction at 0100006c breaks execution flow, squashing bubble

--------------------------------------
00000000:  	00000013    	NOP

--------------------------------------
00000000:  	00000013    	NOP

--------------------------------------
01000080:  	00c12703    	LW     x14, 12(x2)

--------------------------------------
01000084:  	00812783    	LW     x15, 8(x2)
Instruction at 01000088 stalling to wait for dependant data to reach a stage where it can be read

--------------------------------------
01000088:  	00000013    	NOP
Instruction at 01000088 stalling to wait for dependant data to reach a stage where it can be read

--------------------------------------
01000088:  	00000013    	NOP
Instruction at 01000088 stalling to wait for dependant data to reach a stage where it can be read

--------------------------------------
01000088:  	00000013    	NOP

--------------------------------------
01000088:  	fcf714e3    	BNE    x14, x15, 1000050
Instruction at 01000088 breaks execution flow, squashing bubble

--------------------------------------
00000000:  	00000013    	NOP

--------------------------------------
00000000:  	00000013    	NOP

--------------------------------------
01000050:  	00c12703    	LW     x14, 12(x2)

--------------------------------------
01000054:  	00812783    	LW     x15, 8(x2)
Instruction at 01000058 stalling to wait for dependant data to reach a stage where it can be read

--------------------------------------
01000058:  	00000013    	NOP
Instruction at 01000058 stalling to wait for dependant data to reach a stage where it can be read

--------------------------------------
01000058:  	00000013    	NOP
Instruction at 01000058 stalling to wait for dependant data to reach a stage where it can be read

--------------------------------------
01000058:  	00000013    	NOP

--------------------------------------
01000058:  	00e7dc63    	BGE    x15, x14, 1000070

--------------------------------------
0100005c:  	00c12703    	LW     x14, 12(x2)

--------------------------------------
01000060:  	00812783    	LW     x15, 8(x2)
Instruction at 01000064 stalling to wait for dependant data to reach a stage where it can be read

--------------------------------------
01000064:  	00000013    	NOP
Instruction at 01000064 stalling to wait for dependant data to reach a stage where it can be read

--------------------------------------
01000064:  	00000013    	NOP
Instruction at 01000064 stalling to wait for dependant data to reach a stage where it can be read

--------------------------------------
01000064:  	00000013    	NOP

--------------------------------------
01000064:  	40f707b3    	SUB    x15, x14, x15

--------------------------------------
01000068:  	00f12623    	SW     x15, 12(x2)
MX bypass into ALU_in2 from instruction at PC=01000064

--------------------------------------
0100006c:  	0140006f    	JAL    x0, 1000080
Instruction at 0100006c breaks execution flow, squashing bubble

--------------------------------------
00000000:  	00000013    	NOP

--------------------------------------
00000000:  	00000013    	NOP

--------------------------------------
01000080:  	00c12703    	LW     x14, 12(x2)

--------------------------------------
01000084:  	00812783    	LW     x15, 8(x2)
Instruction at 01000088 stalling to wait for dependant data to reach a stage where it can be read

--------------------------------------
01000088:  	00000013    	NOP
Instruction at 01000088 stalling to wait for dependant data to reach a stage where it can be read

--------------------------------------
01000088:  	00000013    	NOP
Instruction at 01000088 stalling to wait for dependant data to reach a stage where it can be read

--------------------------------------
01000088:  	00000013    	NOP

--------------------------------------
01000088:  	fcf714e3    	BNE    x14, x15, 1000050
Instruction at 01000088 breaks execution flow, squashing bubble

--------------------------------------
00000000:  	00000013    	NOP

--------------------------------------
00000000:  	00000013    	NOP

--------------------------------------
01000050:  	00c12703    	LW     x14, 12(x2)

--------------------------------------
01000054:  	00812783    	LW     x15, 8(x2)
Instruction at 01000058 stalling to wait for dependant data to reach a stage where it can be read

--------------------------------------
01000058:  	00000013    	NOP
Instruction at 01000058 stalling to wait for dependant data to reach a stage where it can be read

--------------------------------------
01000058:  	00000013    	NOP
Instruction at 01000058 stalling to wait for dependant data to reach a stage where it can be read

--------------------------------------
01000058:  	00000013    	NOP

--------------------------------------
01000058:  	00e7dc63    	BGE    x15, x14, 1000070

--------------------------------------
0100005c:  	00c12703    	LW     x14, 12(x2)

--------------------------------------
01000060:  	00812783    	LW     x15, 8(x2)
Instruction at 01000064 stalling to wait for dependant data to reach a stage where it can be read

--------------------------------------
01000064:  	00000013    	NOP
Instruction at 01000064 stalling to wait for dependant data to reach a stage where it can be read

--------------------------------------
01000064:  	00000013    	NOP
Instruction at 01000064 stalling to wait for dependant data to reach a stage where it can be read

--------------------------------------
01000064:  	00000013    	NOP

--------------------------------------
01000064:  	40f707b3    	SUB    x15, x14, x15

--------------------------------------
01000068:  	00f12623    	SW     x15, 12(x2)
MX bypass into ALU_in2 from instruction at PC=01000064

--------------------------------------
0100006c:  	0140006f    	JAL    x0, 1000080
Instruction at 0100006c breaks execution flow, squashing bubble

--------------------------------------
00000000:  	00000013    	NOP

--------------------------------------
00000000:  	00000013    	NOP

--------------------------------------
01000080:  	00c12703    	LW     x14, 12(x2)

--------------------------------------
01000084:  	00812783    	LW     x15, 8(x2)
Instruction at 01000088 stalling to wait for dependant data to reach a stage where it can be read

--------------------------------------
01000088:  	00000013    	NOP
Instruction at 01000088 stalling to wait for dependant data to reach a stage where it can be read

--------------------------------------
01000088:  	00000013    	NOP
Instruction at 01000088 stalling to wait for dependant data to reach a stage where it can be read

--------------------------------------
01000088:  	00000013    	NOP

--------------------------------------
01000088:  	fcf714e3    	BNE    x14, x15, 1000050
Instruction at 01000088 breaks execution flow, squashing bubble

--------------------------------------
00000000:  	00000013    	NOP

--------------------------------------
00000000:  	00000013    	NOP

--------------------------------------
01000050:  	00c12703    	LW     x14, 12(x2)

--------------------------------------
01000054:  	00812783    	LW     x15, 8(x2)
Instruction at 01000058 stalling to wait for dependant data to reach a stage where it can be read

--------------------------------------
01000058:  	00000013    	NOP
Instruction at 01000058 stalling to wait for dependant data to reach a stage where it can be read

--------------------------------------
01000058:  	00000013    	NOP
Instruction at 01000058 stalling to wait for dependant data to reach a stage where it can be read

--------------------------------------
01000058:  	00000013    	NOP

--------------------------------------
01000058:  	00e7dc63    	BGE    x15, x14, 1000070

--------------------------------------
0100005c:  	00c12703    	LW     x14, 12(x2)

--------------------------------------
01000060:  	00812783    	LW     x15, 8(x2)
Instruction at 01000064 stalling to wait for dependant data to reach a stage where it can be read

--------------------------------------
01000064:  	00000013    	NOP
Instruction at 01000064 stalling to wait for dependant data to reach a stage where it can be read

--------------------------------------
01000064:  	00000013    	NOP
Instruction at 01000064 stalling to wait for dependant data to reach a stage where it can be read

--------------------------------------
01000064:  	00000013    	NOP

--------------------------------------
01000064:  	40f707b3    	SUB    x15, x14, x15

--------------------------------------
01000068:  	00f12623    	SW     x15, 12(x2)
MX bypass into ALU_in2 from instruction at PC=01000064

--------------------------------------
0100006c:  	0140006f    	JAL    x0, 1000080
Instruction at 0100006c breaks execution flow, squashing bubble

--------------------------------------
00000000:  	00000013    	NOP

--------------------------------------
00000000:  	00000013    	NOP

--------------------------------------
01000080:  	00c12703    	LW     x14, 12(x2)

--------------------------------------
01000084:  	00812783    	LW     x15, 8(x2)
Instruction at 01000088 stalling to wait for dependant data to reach a stage where it can be read

--------------------------------------
01000088:  	00000013    	NOP
Instruction at 01000088 stalling to wait for dependant data to reach a stage where it can be read

--------------------------------------
01000088:  	00000013    	NOP
Instruction at 01000088 stalling to wait for dependant data to reach a stage where it can be read

--------------------------------------
01000088:  	00000013    	NOP

--------------------------------------
01000088:  	fcf714e3    	BNE    x14, x15, 1000050
Instruction at 01000088 breaks execution flow, squashing bubble

--------------------------------------
00000000:  	00000013    	NOP

--------------------------------------
00000000:  	00000013    	NOP

--------------------------------------
01000050:  	00c12703    	LW     x14, 12(x2)

--------------------------------------
01000054:  	00812783    	LW     x15, 8(x2)
Instruction at 01000058 stalling to wait for dependant data to reach a stage where it can be read

--------------------------------------
01000058:  	00000013    	NOP
Instruction at 01000058 stalling to wait for dependant data to reach a stage where it can be read

--------------------------------------
01000058:  	00000013    	NOP
Instruction at 01000058 stalling to wait for dependant data to reach a stage where it can be read

--------------------------------------
01000058:  	00000013    	NOP

--------------------------------------
01000058:  	00e7dc63    	BGE    x15, x14, 1000070

--------------------------------------
0100005c:  	00c12703    	LW     x14, 12(x2)

--------------------------------------
01000060:  	00812783    	LW     x15, 8(x2)
Instruction at 01000064 stalling to wait for dependant data to reach a stage where it can be read

--------------------------------------
01000064:  	00000013    	NOP
Instruction at 01000064 stalling to wait for dependant data to reach a stage where it can be read

--------------------------------------
01000064:  	00000013    	NOP
Instruction at 01000064 stalling to wait for dependant data to reach a stage where it can be read

--------------------------------------
01000064:  	00000013    	NOP

--------------------------------------
01000064:  	40f707b3    	SUB    x15, x14, x15

--------------------------------------
01000068:  	00f12623    	SW     x15, 12(x2)
MX bypass into ALU_in2 from instruction at PC=01000064

--------------------------------------
0100006c:  	0140006f    	JAL    x0, 1000080
Instruction at 0100006c breaks execution flow, squashing bubble

--------------------------------------
00000000:  	00000013    	NOP

--------------------------------------
00000000:  	00000013    	NOP

--------------------------------------
01000080:  	00c12703    	LW     x14, 12(x2)

--------------------------------------
01000084:  	00812783    	LW     x15, 8(x2)
Instruction at 01000088 stalling to wait for dependant data to reach a stage where it can be read

--------------------------------------
01000088:  	00000013    	NOP
Instruction at 01000088 stalling to wait for dependant data to reach a stage where it can be read

--------------------------------------
01000088:  	00000013    	NOP
Instruction at 01000088 stalling to wait for dependant data to reach a stage where it can be read

--------------------------------------
01000088:  	00000013    	NOP

--------------------------------------
01000088:  	fcf714e3    	BNE    x14, x15, 1000050
Instruction at 01000088 breaks execution flow, squashing bubble

--------------------------------------
00000000:  	00000013    	NOP

--------------------------------------
00000000:  	00000013    	NOP

--------------------------------------
01000050:  	00c12703    	LW     x14, 12(x2)

--------------------------------------
01000054:  	00812783    	LW     x15, 8(x2)
Instruction at 01000058 stalling to wait for dependant data to reach a stage where it can be read

--------------------------------------
01000058:  	00000013    	NOP
Instruction at 01000058 stalling to wait for dependant data to reach a stage where it can be read

--------------------------------------
01000058:  	00000013    	NOP
Instruction at 01000058 stalling to wait for dependant data to reach a stage where it can be read

--------------------------------------
01000058:  	00000013    	NOP

--------------------------------------
01000058:  	00e7dc63    	BGE    x15, x14, 1000070

--------------------------------------
0100005c:  	00c12703    	LW     x14, 12(x2)

--------------------------------------
01000060:  	00812783    	LW     x15, 8(x2)
Instruction at 01000064 stalling to wait for dependant data to reach a stage where it can be read

--------------------------------------
01000064:  	00000013    	NOP
Instruction at 01000064 stalling to wait for dependant data to reach a stage where it can be read

--------------------------------------
01000064:  	00000013    	NOP
Instruction at 01000064 stalling to wait for dependant data to reach a stage where it can be read

--------------------------------------
01000064:  	00000013    	NOP

--------------------------------------
01000064:  	40f707b3    	SUB    x15, x14, x15

--------------------------------------
01000068:  	00f12623    	SW     x15, 12(x2)
MX bypass into ALU_in2 from instruction at PC=01000064

--------------------------------------
0100006c:  	0140006f    	JAL    x0, 1000080
Instruction at 0100006c breaks execution flow, squashing bubble

--------------------------------------
00000000:  	00000013    	NOP

--------------------------------------
00000000:  	00000013    	NOP

--------------------------------------
01000080:  	00c12703    	LW     x14, 12(x2)

--------------------------------------
01000084:  	00812783    	LW     x15, 8(x2)
Instruction at 01000088 stalling to wait for dependant data to reach a stage where it can be read

--------------------------------------
01000088:  	00000013    	NOP
Instruction at 01000088 stalling to wait for dependant data to reach a stage where it can be read

--------------------------------------
01000088:  	00000013    	NOP
Instruction at 01000088 stalling to wait for dependant data to reach a stage where it can be read

--------------------------------------
01000088:  	00000013    	NOP

--------------------------------------
01000088:  	fcf714e3    	BNE    x14, x15, 1000050
Instruction at 01000088 breaks execution flow, squashing bubble

--------------------------------------
00000000:  	00000013    	NOP

--------------------------------------
00000000:  	00000013    	NOP

--------------------------------------
01000050:  	00c12703    	LW     x14, 12(x2)

--------------------------------------
01000054:  	00812783    	LW     x15, 8(x2)
Instruction at 01000058 stalling to wait for dependant data to reach a stage where it can be read

--------------------------------------
01000058:  	00000013    	NOP
Instruction at 01000058 stalling to wait for dependant data to reach a stage where it can be read

--------------------------------------
01000058:  	00000013    	NOP
Instruction at 01000058 stalling to wait for dependant data to reach a stage where it can be read

--------------------------------------
01000058:  	00000013    	NOP

--------------------------------------
01000058:  	00e7dc63    	BGE    x15, x14, 1000070
Instruction at 01000058 breaks execution flow, squashing bubble

--------------------------------------
00000000:  	00000013    	NOP

--------------------------------------
00000000:  	00000013    	NOP

--------------------------------------
01000070:  	00812703    	LW     x14, 8(x2)

--------------------------------------
01000074:  	00c12783    	LW     x15, 12(x2)
Instruction at 01000078 stalling to wait for dependant data to reach a stage where it can be read

--------------------------------------
01000078:  	00000013    	NOP
Instruction at 01000078 stalling to wait for dependant data to reach a stage where it can be read

--------------------------------------
01000078:  	00000013    	NOP
Instruction at 01000078 stalling to wait for dependant data to reach a stage where it can be read

--------------------------------------
01000078:  	00000013    	NOP

--------------------------------------
01000078:  	40f707b3    	SUB    x15, x14, x15

--------------------------------------
0100007c:  	00f12423    	SW     x15, 8(x2)
MX bypass into ALU_in2 from instruction at PC=01000078

--------------------------------------
01000080:  	00c12703    	LW     x14, 12(x2)

--------------------------------------
01000084:  	00812783    	LW     x15, 8(x2)
MX bypass into ALU_in2 from instruction at PC=01000084
Instruction at 01000088 stalling to wait for dependant data to reach a stage where it can be read

--------------------------------------
01000088:  	00000013    	NOP
Instruction at 01000088 stalling to wait for dependant data to reach a stage where it can be read

--------------------------------------
01000088:  	00000013    	NOP
Instruction at 01000088 stalling to wait for dependant data to reach a stage where it can be read

--------------------------------------
01000088:  	00000013    	NOP

--------------------------------------
01000088:  	fcf714e3    	BNE    x14, x15, 1000050
Instruction at 01000088 breaks execution flow, squashing bubble

--------------------------------------
00000000:  	00000013    	NOP

--------------------------------------
00000000:  	00000013    	NOP

--------------------------------------
01000050:  	00c12703    	LW     x14, 12(x2)

--------------------------------------
01000054:  	00812783    	LW     x15, 8(x2)
Instruction at 01000058 stalling to wait for dependant data to reach a stage where it can be read

--------------------------------------
01000058:  	00000013    	NOP
Instruction at 01000058 stalling to wait for dependant data to reach a stage where it can be read

--------------------------------------
01000058:  	00000013    	NOP
Instruction at 01000058 stalling to wait for dependant data to reach a stage where it can be read

--------------------------------------
01000058:  	00000013    	NOP

--------------------------------------
01000058:  	00e7dc63    	BGE    x15, x14, 1000070

--------------------------------------
0100005c:  	00c12703    	LW     x14, 12(x2)

--------------------------------------
01000060:  	00812783    	LW     x15, 8(x2)
Instruction at 01000064 stalling to wait for dependant data to reach a stage where it can be read

--------------------------------------
01000064:  	00000013    	NOP
Instruction at 01000064 stalling to wait for dependant data to reach a stage where it can be read

--------------------------------------
01000064:  	00000013    	NOP
Instruction at 01000064 stalling to wait for dependant data to reach a stage where it can be read

--------------------------------------
01000064:  	00000013    	NOP

--------------------------------------
01000064:  	40f707b3    	SUB    x15, x14, x15

--------------------------------------
01000068:  	00f12623    	SW     x15, 12(x2)
MX bypass into ALU_in2 from instruction at PC=01000064

--------------------------------------
0100006c:  	0140006f    	JAL    x0, 1000080
Instruction at 0100006c breaks execution flow, squashing bubble

--------------------------------------
00000000:  	00000013    	NOP

--------------------------------------
00000000:  	00000013    	NOP

--------------------------------------
01000080:  	00c12703    	LW     x14, 12(x2)

--------------------------------------
01000084:  	00812783    	LW     x15, 8(x2)
Instruction at 01000088 stalling to wait for dependant data to reach a stage where it can be read

--------------------------------------
01000088:  	00000013    	NOP
Instruction at 01000088 stalling to wait for dependant data to reach a stage where it can be read

--------------------------------------
01000088:  	00000013    	NOP
Instruction at 01000088 stalling to wait for dependant data to reach a stage where it can be read

--------------------------------------
01000088:  	00000013    	NOP

--------------------------------------
01000088:  	fcf714e3    	BNE    x14, x15, 1000050
Instruction at 01000088 breaks execution flow, squashing bubble

--------------------------------------
00000000:  	00000013    	NOP

--------------------------------------
00000000:  	00000013    	NOP

--------------------------------------
01000050:  	00c12703    	LW     x14, 12(x2)

--------------------------------------
01000054:  	00812783    	LW     x15, 8(x2)
Instruction at 01000058 stalling to wait for dependant data to reach a stage where it can be read

--------------------------------------
01000058:  	00000013    	NOP
Instruction at 01000058 stalling to wait for dependant data to reach a stage where it can be read

--------------------------------------
01000058:  	00000013    	NOP
Instruction at 01000058 stalling to wait for dependant data to reach a stage where it can be read

--------------------------------------
01000058:  	00000013    	NOP

--------------------------------------
01000058:  	00e7dc63    	BGE    x15, x14, 1000070
Instruction at 01000058 breaks execution flow, squashing bubble

--------------------------------------
00000000:  	00000013    	NOP

--------------------------------------
00000000:  	00000013    	NOP

--------------------------------------
01000070:  	00812703    	LW     x14, 8(x2)

--------------------------------------
01000074:  	00c12783    	LW     x15, 12(x2)
Instruction at 01000078 stalling to wait for dependant data to reach a stage where it can be read

--------------------------------------
01000078:  	00000013    	NOP
Instruction at 01000078 stalling to wait for dependant data to reach a stage where it can be read

--------------------------------------
01000078:  	00000013    	NOP
Instruction at 01000078 stalling to wait for dependant data to reach a stage where it can be read

--------------------------------------
01000078:  	00000013    	NOP

--------------------------------------
01000078:  	40f707b3    	SUB    x15, x14, x15

--------------------------------------
0100007c:  	00f12423    	SW     x15, 8(x2)
MX bypass into ALU_in2 from instruction at PC=01000078

--------------------------------------
01000080:  	00c12703    	LW     x14, 12(x2)

--------------------------------------
01000084:  	00812783    	LW     x15, 8(x2)
MX bypass into ALU_in2 from instruction at PC=01000084
Instruction at 01000088 stalling to wait for dependant data to reach a stage where it can be read

--------------------------------------
01000088:  	00000013    	NOP
Instruction at 01000088 stalling to wait for dependant data to reach a stage where it can be read

--------------------------------------
01000088:  	00000013    	NOP
Instruction at 01000088 stalling to wait for dependant data to reach a stage where it can be read

--------------------------------------
01000088:  	00000013    	NOP

--------------------------------------
01000088:  	fcf714e3    	BNE    x14, x15, 1000050
Instruction at 01000088 breaks execution flow, squashing bubble

--------------------------------------
00000000:  	00000013    	NOP

--------------------------------------
00000000:  	00000013    	NOP

--------------------------------------
01000050:  	00c12703    	LW     x14, 12(x2)

--------------------------------------
01000054:  	00812783    	LW     x15, 8(x2)
Instruction at 01000058 stalling to wait for dependant data to reach a stage where it can be read

--------------------------------------
01000058:  	00000013    	NOP
Instruction at 01000058 stalling to wait for dependant data to reach a stage where it can be read

--------------------------------------
01000058:  	00000013    	NOP
Instruction at 01000058 stalling to wait for dependant data to reach a stage where it can be read

--------------------------------------
01000058:  	00000013    	NOP

--------------------------------------
01000058:  	00e7dc63    	BGE    x15, x14, 1000070
Instruction at 01000058 breaks execution flow, squashing bubble

--------------------------------------
00000000:  	00000013    	NOP

--------------------------------------
00000000:  	00000013    	NOP

--------------------------------------
01000070:  	00812703    	LW     x14, 8(x2)

--------------------------------------
01000074:  	00c12783    	LW     x15, 12(x2)
Instruction at 01000078 stalling to wait for dependant data to reach a stage where it can be read

--------------------------------------
01000078:  	00000013    	NOP
Instruction at 01000078 stalling to wait for dependant data to reach a stage where it can be read

--------------------------------------
01000078:  	00000013    	NOP
Instruction at 01000078 stalling to wait for dependant data to reach a stage where it can be read

--------------------------------------
01000078:  	00000013    	NOP

--------------------------------------
01000078:  	40f707b3    	SUB    x15, x14, x15

--------------------------------------
0100007c:  	00f12423    	SW     x15, 8(x2)
MX bypass into ALU_in2 from instruction at PC=01000078

--------------------------------------
01000080:  	00c12703    	LW     x14, 12(x2)

--------------------------------------
01000084:  	00812783    	LW     x15, 8(x2)
MX bypass into ALU_in2 from instruction at PC=01000084
Instruction at 01000088 stalling to wait for dependant data to reach a stage where it can be read

--------------------------------------
01000088:  	00000013    	NOP
Instruction at 01000088 stalling to wait for dependant data to reach a stage where it can be read

--------------------------------------
01000088:  	00000013    	NOP
Instruction at 01000088 stalling to wait for dependant data to reach a stage where it can be read

--------------------------------------
01000088:  	00000013    	NOP

--------------------------------------
01000088:  	fcf714e3    	BNE    x14, x15, 1000050
Instruction at 01000088 breaks execution flow, squashing bubble

--------------------------------------
00000000:  	00000013    	NOP

--------------------------------------
00000000:  	00000013    	NOP

--------------------------------------
01000050:  	00c12703    	LW     x14, 12(x2)

--------------------------------------
01000054:  	00812783    	LW     x15, 8(x2)
Instruction at 01000058 stalling to wait for dependant data to reach a stage where it can be read

--------------------------------------
01000058:  	00000013    	NOP
Instruction at 01000058 stalling to wait for dependant data to reach a stage where it can be read

--------------------------------------
01000058:  	00000013    	NOP
Instruction at 01000058 stalling to wait for dependant data to reach a stage where it can be read

--------------------------------------
01000058:  	00000013    	NOP

--------------------------------------
01000058:  	00e7dc63    	BGE    x15, x14, 1000070
Instruction at 01000058 breaks execution flow, squashing bubble

--------------------------------------
00000000:  	00000013    	NOP

--------------------------------------
00000000:  	00000013    	NOP

--------------------------------------
01000070:  	00812703    	LW     x14, 8(x2)

--------------------------------------
01000074:  	00c12783    	LW     x15, 12(x2)
Instruction at 01000078 stalling to wait for dependant data to reach a stage where it can be read

--------------------------------------
01000078:  	00000013    	NOP
Instruction at 01000078 stalling to wait for dependant data to reach a stage where it can be read

--------------------------------------
01000078:  	00000013    	NOP
Instruction at 01000078 stalling to wait for dependant data to reach a stage where it can be read

--------------------------------------
01000078:  	00000013    	NOP

--------------------------------------
01000078:  	40f707b3    	SUB    x15, x14, x15

--------------------------------------
0100007c:  	00f12423    	SW     x15, 8(x2)
MX bypass into ALU_in2 from instruction at PC=01000078

--------------------------------------
01000080:  	00c12703    	LW     x14, 12(x2)

--------------------------------------
01000084:  	00812783    	LW     x15, 8(x2)
MX bypass into ALU_in2 from instruction at PC=01000084
Instruction at 01000088 stalling to wait for dependant data to reach a stage where it can be read

--------------------------------------
01000088:  	00000013    	NOP
Instruction at 01000088 stalling to wait for dependant data to reach a stage where it can be read

--------------------------------------
01000088:  	00000013    	NOP
Instruction at 01000088 stalling to wait for dependant data to reach a stage where it can be read

--------------------------------------
01000088:  	00000013    	NOP

--------------------------------------
01000088:  	fcf714e3    	BNE    x14, x15, 1000050
Instruction at 01000088 breaks execution flow, squashing bubble

--------------------------------------
00000000:  	00000013    	NOP

--------------------------------------
00000000:  	00000013    	NOP

--------------------------------------
01000050:  	00c12703    	LW     x14, 12(x2)

--------------------------------------
01000054:  	00812783    	LW     x15, 8(x2)
Instruction at 01000058 stalling to wait for dependant data to reach a stage where it can be read

--------------------------------------
01000058:  	00000013    	NOP
Instruction at 01000058 stalling to wait for dependant data to reach a stage where it can be read

--------------------------------------
01000058:  	00000013    	NOP
Instruction at 01000058 stalling to wait for dependant data to reach a stage where it can be read

--------------------------------------
01000058:  	00000013    	NOP

--------------------------------------
01000058:  	00e7dc63    	BGE    x15, x14, 1000070
Instruction at 01000058 breaks execution flow, squashing bubble

--------------------------------------
00000000:  	00000013    	NOP

--------------------------------------
00000000:  	00000013    	NOP

--------------------------------------
01000070:  	00812703    	LW     x14, 8(x2)

--------------------------------------
01000074:  	00c12783    	LW     x15, 12(x2)
Instruction at 01000078 stalling to wait for dependant data to reach a stage where it can be read

--------------------------------------
01000078:  	00000013    	NOP
Instruction at 01000078 stalling to wait for dependant data to reach a stage where it can be read

--------------------------------------
01000078:  	00000013    	NOP
Instruction at 01000078 stalling to wait for dependant data to reach a stage where it can be read

--------------------------------------
01000078:  	00000013    	NOP

--------------------------------------
01000078:  	40f707b3    	SUB    x15, x14, x15

--------------------------------------
0100007c:  	00f12423    	SW     x15, 8(x2)
MX bypass into ALU_in2 from instruction at PC=01000078

--------------------------------------
01000080:  	00c12703    	LW     x14, 12(x2)

--------------------------------------
01000084:  	00812783    	LW     x15, 8(x2)
MX bypass into ALU_in2 from instruction at PC=01000084
Instruction at 01000088 stalling to wait for dependant data to reach a stage where it can be read

--------------------------------------
01000088:  	00000013    	NOP
Instruction at 01000088 stalling to wait for dependant data to reach a stage where it can be read

--------------------------------------
01000088:  	00000013    	NOP
Instruction at 01000088 stalling to wait for dependant data to reach a stage where it can be read

--------------------------------------
01000088:  	00000013    	NOP

--------------------------------------
01000088:  	fcf714e3    	BNE    x14, x15, 1000050
Instruction at 01000088 breaks execution flow, squashing bubble

--------------------------------------
00000000:  	00000013    	NOP

--------------------------------------
00000000:  	00000013    	NOP

--------------------------------------
01000050:  	00c12703    	LW     x14, 12(x2)

--------------------------------------
01000054:  	00812783    	LW     x15, 8(x2)
Instruction at 01000058 stalling to wait for dependant data to reach a stage where it can be read

--------------------------------------
01000058:  	00000013    	NOP
Instruction at 01000058 stalling to wait for dependant data to reach a stage where it can be read

--------------------------------------
01000058:  	00000013    	NOP
Instruction at 01000058 stalling to wait for dependant data to reach a stage where it can be read

--------------------------------------
01000058:  	00000013    	NOP

--------------------------------------
01000058:  	00e7dc63    	BGE    x15, x14, 1000070
Instruction at 01000058 breaks execution flow, squashing bubble

--------------------------------------
00000000:  	00000013    	NOP

--------------------------------------
00000000:  	00000013    	NOP

--------------------------------------
01000070:  	00812703    	LW     x14, 8(x2)

--------------------------------------
01000074:  	00c12783    	LW     x15, 12(x2)
Instruction at 01000078 stalling to wait for dependant data to reach a stage where it can be read

--------------------------------------
01000078:  	00000013    	NOP
Instruction at 01000078 stalling to wait for dependant data to reach a stage where it can be read

--------------------------------------
01000078:  	00000013    	NOP
Instruction at 01000078 stalling to wait for dependant data to reach a stage where it can be read

--------------------------------------
01000078:  	00000013    	NOP

--------------------------------------
01000078:  	40f707b3    	SUB    x15, x14, x15

--------------------------------------
0100007c:  	00f12423    	SW     x15, 8(x2)
MX bypass into ALU_in2 from instruction at PC=01000078

--------------------------------------
01000080:  	00c12703    	LW     x14, 12(x2)

--------------------------------------
01000084:  	00812783    	LW     x15, 8(x2)
MX bypass into ALU_in2 from instruction at PC=01000084
Instruction at 01000088 stalling to wait for dependant data to reach a stage where it can be read

--------------------------------------
01000088:  	00000013    	NOP
Instruction at 01000088 stalling to wait for dependant data to reach a stage where it can be read

--------------------------------------
01000088:  	00000013    	NOP
Instruction at 01000088 stalling to wait for dependant data to reach a stage where it can be read

--------------------------------------
01000088:  	00000013    	NOP

--------------------------------------
01000088:  	fcf714e3    	BNE    x14, x15, 1000050
Instruction at 01000088 breaks execution flow, squashing bubble

--------------------------------------
00000000:  	00000013    	NOP

--------------------------------------
00000000:  	00000013    	NOP

--------------------------------------
01000050:  	00c12703    	LW     x14, 12(x2)

--------------------------------------
01000054:  	00812783    	LW     x15, 8(x2)
Instruction at 01000058 stalling to wait for dependant data to reach a stage where it can be read

--------------------------------------
01000058:  	00000013    	NOP
Instruction at 01000058 stalling to wait for dependant data to reach a stage where it can be read

--------------------------------------
01000058:  	00000013    	NOP
Instruction at 01000058 stalling to wait for dependant data to reach a stage where it can be read

--------------------------------------
01000058:  	00000013    	NOP

--------------------------------------
01000058:  	00e7dc63    	BGE    x15, x14, 1000070
Instruction at 01000058 breaks execution flow, squashing bubble

--------------------------------------
00000000:  	00000013    	NOP

--------------------------------------
00000000:  	00000013    	NOP

--------------------------------------
01000070:  	00812703    	LW     x14, 8(x2)

--------------------------------------
01000074:  	00c12783    	LW     x15, 12(x2)
Instruction at 01000078 stalling to wait for dependant data to reach a stage where it can be read

--------------------------------------
01000078:  	00000013    	NOP
Instruction at 01000078 stalling to wait for dependant data to reach a stage where it can be read

--------------------------------------
01000078:  	00000013    	NOP
Instruction at 01000078 stalling to wait for dependant data to reach a stage where it can be read

--------------------------------------
01000078:  	00000013    	NOP

--------------------------------------
01000078:  	40f707b3    	SUB    x15, x14, x15

--------------------------------------
0100007c:  	00f12423    	SW     x15, 8(x2)
MX bypass into ALU_in2 from instruction at PC=01000078

--------------------------------------
01000080:  	00c12703    	LW     x14, 12(x2)

--------------------------------------
01000084:  	00812783    	LW     x15, 8(x2)
MX bypass into ALU_in2 from instruction at PC=01000084
Instruction at 01000088 stalling to wait for dependant data to reach a stage where it can be read

--------------------------------------
01000088:  	00000013    	NOP
Instruction at 01000088 stalling to wait for dependant data to reach a stage where it can be read

--------------------------------------
01000088:  	00000013    	NOP
Instruction at 01000088 stalling to wait for dependant data to reach a stage where it can be read

--------------------------------------
01000088:  	00000013    	NOP

--------------------------------------
01000088:  	fcf714e3    	BNE    x14, x15, 1000050
Instruction at 01000088 breaks execution flow, squashing bubble

--------------------------------------
00000000:  	00000013    	NOP

--------------------------------------
00000000:  	00000013    	NOP

--------------------------------------
01000050:  	00c12703    	LW     x14, 12(x2)

--------------------------------------
01000054:  	00812783    	LW     x15, 8(x2)
Instruction at 01000058 stalling to wait for dependant data to reach a stage where it can be read

--------------------------------------
01000058:  	00000013    	NOP
Instruction at 01000058 stalling to wait for dependant data to reach a stage where it can be read

--------------------------------------
01000058:  	00000013    	NOP
Instruction at 01000058 stalling to wait for dependant data to reach a stage where it can be read

--------------------------------------
01000058:  	00000013    	NOP

--------------------------------------
01000058:  	00e7dc63    	BGE    x15, x14, 1000070
Instruction at 01000058 breaks execution flow, squashing bubble

--------------------------------------
00000000:  	00000013    	NOP

--------------------------------------
00000000:  	00000013    	NOP

--------------------------------------
01000070:  	00812703    	LW     x14, 8(x2)

--------------------------------------
01000074:  	00c12783    	LW     x15, 12(x2)
Instruction at 01000078 stalling to wait for dependant data to reach a stage where it can be read

--------------------------------------
01000078:  	00000013    	NOP
Instruction at 01000078 stalling to wait for dependant data to reach a stage where it can be read

--------------------------------------
01000078:  	00000013    	NOP
Instruction at 01000078 stalling to wait for dependant data to reach a stage where it can be read

--------------------------------------
01000078:  	00000013    	NOP

--------------------------------------
01000078:  	40f707b3    	SUB    x15, x14, x15

--------------------------------------
0100007c:  	00f12423    	SW     x15, 8(x2)
MX bypass into ALU_in2 from instruction at PC=01000078

--------------------------------------
01000080:  	00c12703    	LW     x14, 12(x2)

--------------------------------------
01000084:  	00812783    	LW     x15, 8(x2)
MX bypass into ALU_in2 from instruction at PC=01000084
Instruction at 01000088 stalling to wait for dependant data to reach a stage where it can be read

--------------------------------------
01000088:  	00000013    	NOP
Instruction at 01000088 stalling to wait for dependant data to reach a stage where it can be read

--------------------------------------
01000088:  	00000013    	NOP
Instruction at 01000088 stalling to wait for dependant data to reach a stage where it can be read

--------------------------------------
01000088:  	00000013    	NOP

--------------------------------------
01000088:  	fcf714e3    	BNE    x14, x15, 1000050
Instruction at 01000088 breaks execution flow, squashing bubble

--------------------------------------
00000000:  	00000013    	NOP

--------------------------------------
00000000:  	00000013    	NOP

--------------------------------------
01000050:  	00c12703    	LW     x14, 12(x2)

--------------------------------------
01000054:  	00812783    	LW     x15, 8(x2)
Instruction at 01000058 stalling to wait for dependant data to reach a stage where it can be read

--------------------------------------
01000058:  	00000013    	NOP
Instruction at 01000058 stalling to wait for dependant data to reach a stage where it can be read

--------------------------------------
01000058:  	00000013    	NOP
Instruction at 01000058 stalling to wait for dependant data to reach a stage where it can be read

--------------------------------------
01000058:  	00000013    	NOP

--------------------------------------
01000058:  	00e7dc63    	BGE    x15, x14, 1000070
Instruction at 01000058 breaks execution flow, squashing bubble

--------------------------------------
00000000:  	00000013    	NOP

--------------------------------------
00000000:  	00000013    	NOP

--------------------------------------
01000070:  	00812703    	LW     x14, 8(x2)

--------------------------------------
01000074:  	00c12783    	LW     x15, 12(x2)
Instruction at 01000078 stalling to wait for dependant data to reach a stage where it can be read

--------------------------------------
01000078:  	00000013    	NOP
Instruction at 01000078 stalling to wait for dependant data to reach a stage where it can be read

--------------------------------------
01000078:  	00000013    	NOP
Instruction at 01000078 stalling to wait for dependant data to reach a stage where it can be read

--------------------------------------
01000078:  	00000013    	NOP

--------------------------------------
01000078:  	40f707b3    	SUB    x15, x14, x15

--------------------------------------
0100007c:  	00f12423    	SW     x15, 8(x2)
MX bypass into ALU_in2 from instruction at PC=01000078

--------------------------------------
01000080:  	00c12703    	LW     x14, 12(x2)

--------------------------------------
01000084:  	00812783    	LW     x15, 8(x2)
MX bypass into ALU_in2 from instruction at PC=01000084
Instruction at 01000088 stalling to wait for dependant data to reach a stage where it can be read

--------------------------------------
01000088:  	00000013    	NOP
Instruction at 01000088 stalling to wait for dependant data to reach a stage where it can be read

--------------------------------------
01000088:  	00000013    	NOP
Instruction at 01000088 stalling to wait for dependant data to reach a stage where it can be read

--------------------------------------
01000088:  	00000013    	NOP

--------------------------------------
01000088:  	fcf714e3    	BNE    x14, x15, 1000050
Instruction at 01000088 breaks execution flow, squashing bubble

--------------------------------------
00000000:  	00000013    	NOP

--------------------------------------
00000000:  	00000013    	NOP

--------------------------------------
01000050:  	00c12703    	LW     x14, 12(x2)

--------------------------------------
01000054:  	00812783    	LW     x15, 8(x2)
Instruction at 01000058 stalling to wait for dependant data to reach a stage where it can be read

--------------------------------------
01000058:  	00000013    	NOP
Instruction at 01000058 stalling to wait for dependant data to reach a stage where it can be read

--------------------------------------
01000058:  	00000013    	NOP
Instruction at 01000058 stalling to wait for dependant data to reach a stage where it can be read

--------------------------------------
01000058:  	00000013    	NOP

--------------------------------------
01000058:  	00e7dc63    	BGE    x15, x14, 1000070
Instruction at 01000058 breaks execution flow, squashing bubble

--------------------------------------
00000000:  	00000013    	NOP

--------------------------------------
00000000:  	00000013    	NOP

--------------------------------------
01000070:  	00812703    	LW     x14, 8(x2)

--------------------------------------
01000074:  	00c12783    	LW     x15, 12(x2)
Instruction at 01000078 stalling to wait for dependant data to reach a stage where it can be read

--------------------------------------
01000078:  	00000013    	NOP
Instruction at 01000078 stalling to wait for dependant data to reach a stage where it can be read

--------------------------------------
01000078:  	00000013    	NOP
Instruction at 01000078 stalling to wait for dependant data to reach a stage where it can be read

--------------------------------------
01000078:  	00000013    	NOP

--------------------------------------
01000078:  	40f707b3    	SUB    x15, x14, x15

--------------------------------------
0100007c:  	00f12423    	SW     x15, 8(x2)
MX bypass into ALU_in2 from instruction at PC=01000078

--------------------------------------
01000080:  	00c12703    	LW     x14, 12(x2)

--------------------------------------
01000084:  	00812783    	LW     x15, 8(x2)
MX bypass into ALU_in2 from instruction at PC=01000084
Instruction at 01000088 stalling to wait for dependant data to reach a stage where it can be read

--------------------------------------
01000088:  	00000013    	NOP
Instruction at 01000088 stalling to wait for dependant data to reach a stage where it can be read

--------------------------------------
01000088:  	00000013    	NOP
Instruction at 01000088 stalling to wait for dependant data to reach a stage where it can be read

--------------------------------------
01000088:  	00000013    	NOP

--------------------------------------
01000088:  	fcf714e3    	BNE    x14, x15, 1000050
Instruction at 01000088 breaks execution flow, squashing bubble

--------------------------------------
00000000:  	00000013    	NOP

--------------------------------------
00000000:  	00000013    	NOP

--------------------------------------
01000050:  	00c12703    	LW     x14, 12(x2)

--------------------------------------
01000054:  	00812783    	LW     x15, 8(x2)
Instruction at 01000058 stalling to wait for dependant data to reach a stage where it can be read

--------------------------------------
01000058:  	00000013    	NOP
Instruction at 01000058 stalling to wait for dependant data to reach a stage where it can be read

--------------------------------------
01000058:  	00000013    	NOP
Instruction at 01000058 stalling to wait for dependant data to reach a stage where it can be read

--------------------------------------
01000058:  	00000013    	NOP

--------------------------------------
01000058:  	00e7dc63    	BGE    x15, x14, 1000070
Instruction at 01000058 breaks execution flow, squashing bubble

--------------------------------------
00000000:  	00000013    	NOP

--------------------------------------
00000000:  	00000013    	NOP

--------------------------------------
01000070:  	00812703    	LW     x14, 8(x2)

--------------------------------------
01000074:  	00c12783    	LW     x15, 12(x2)
Instruction at 01000078 stalling to wait for dependant data to reach a stage where it can be read

--------------------------------------
01000078:  	00000013    	NOP
Instruction at 01000078 stalling to wait for dependant data to reach a stage where it can be read

--------------------------------------
01000078:  	00000013    	NOP
Instruction at 01000078 stalling to wait for dependant data to reach a stage where it can be read

--------------------------------------
01000078:  	00000013    	NOP

--------------------------------------
01000078:  	40f707b3    	SUB    x15, x14, x15

--------------------------------------
0100007c:  	00f12423    	SW     x15, 8(x2)
MX bypass into ALU_in2 from instruction at PC=01000078

--------------------------------------
01000080:  	00c12703    	LW     x14, 12(x2)

--------------------------------------
01000084:  	00812783    	LW     x15, 8(x2)
MX bypass into ALU_in2 from instruction at PC=01000084
Instruction at 01000088 stalling to wait for dependant data to reach a stage where it can be read

--------------------------------------
01000088:  	00000013    	NOP
Instruction at 01000088 stalling to wait for dependant data to reach a stage where it can be read

--------------------------------------
01000088:  	00000013    	NOP
Instruction at 01000088 stalling to wait for dependant data to reach a stage where it can be read

--------------------------------------
01000088:  	00000013    	NOP

--------------------------------------
01000088:  	fcf714e3    	BNE    x14, x15, 1000050
Instruction at 01000088 breaks execution flow, squashing bubble

--------------------------------------
00000000:  	00000013    	NOP

--------------------------------------
00000000:  	00000013    	NOP

--------------------------------------
01000050:  	00c12703    	LW     x14, 12(x2)

--------------------------------------
01000054:  	00812783    	LW     x15, 8(x2)
Instruction at 01000058 stalling to wait for dependant data to reach a stage where it can be read

--------------------------------------
01000058:  	00000013    	NOP
Instruction at 01000058 stalling to wait for dependant data to reach a stage where it can be read

--------------------------------------
01000058:  	00000013    	NOP
Instruction at 01000058 stalling to wait for dependant data to reach a stage where it can be read

--------------------------------------
01000058:  	00000013    	NOP

--------------------------------------
01000058:  	00e7dc63    	BGE    x15, x14, 1000070
Instruction at 01000058 breaks execution flow, squashing bubble

--------------------------------------
00000000:  	00000013    	NOP

--------------------------------------
00000000:  	00000013    	NOP

--------------------------------------
01000070:  	00812703    	LW     x14, 8(x2)

--------------------------------------
01000074:  	00c12783    	LW     x15, 12(x2)
Instruction at 01000078 stalling to wait for dependant data to reach a stage where it can be read

--------------------------------------
01000078:  	00000013    	NOP
Instruction at 01000078 stalling to wait for dependant data to reach a stage where it can be read

--------------------------------------
01000078:  	00000013    	NOP
Instruction at 01000078 stalling to wait for dependant data to reach a stage where it can be read

--------------------------------------
01000078:  	00000013    	NOP

--------------------------------------
01000078:  	40f707b3    	SUB    x15, x14, x15

--------------------------------------
0100007c:  	00f12423    	SW     x15, 8(x2)
MX bypass into ALU_in2 from instruction at PC=01000078

--------------------------------------
01000080:  	00c12703    	LW     x14, 12(x2)

--------------------------------------
01000084:  	00812783    	LW     x15, 8(x2)
MX bypass into ALU_in2 from instruction at PC=01000084
Instruction at 01000088 stalling to wait for dependant data to reach a stage where it can be read

--------------------------------------
01000088:  	00000013    	NOP
Instruction at 01000088 stalling to wait for dependant data to reach a stage where it can be read

--------------------------------------
01000088:  	00000013    	NOP
Instruction at 01000088 stalling to wait for dependant data to reach a stage where it can be read

--------------------------------------
01000088:  	00000013    	NOP

--------------------------------------
01000088:  	fcf714e3    	BNE    x14, x15, 1000050
Instruction at 01000088 breaks execution flow, squashing bubble

--------------------------------------
00000000:  	00000013    	NOP

--------------------------------------
00000000:  	00000013    	NOP

--------------------------------------
01000050:  	00c12703    	LW     x14, 12(x2)

--------------------------------------
01000054:  	00812783    	LW     x15, 8(x2)
Instruction at 01000058 stalling to wait for dependant data to reach a stage where it can be read

--------------------------------------
01000058:  	00000013    	NOP
Instruction at 01000058 stalling to wait for dependant data to reach a stage where it can be read

--------------------------------------
01000058:  	00000013    	NOP
Instruction at 01000058 stalling to wait for dependant data to reach a stage where it can be read

--------------------------------------
01000058:  	00000013    	NOP

--------------------------------------
01000058:  	00e7dc63    	BGE    x15, x14, 1000070
Instruction at 01000058 breaks execution flow, squashing bubble

--------------------------------------
00000000:  	00000013    	NOP

--------------------------------------
00000000:  	00000013    	NOP

--------------------------------------
01000070:  	00812703    	LW     x14, 8(x2)

--------------------------------------
01000074:  	00c12783    	LW     x15, 12(x2)
Instruction at 01000078 stalling to wait for dependant data to reach a stage where it can be read

--------------------------------------
01000078:  	00000013    	NOP
Instruction at 01000078 stalling to wait for dependant data to reach a stage where it can be read

--------------------------------------
01000078:  	00000013    	NOP
Instruction at 01000078 stalling to wait for dependant data to reach a stage where it can be read

--------------------------------------
01000078:  	00000013    	NOP

--------------------------------------
01000078:  	40f707b3    	SUB    x15, x14, x15

--------------------------------------
0100007c:  	00f12423    	SW     x15, 8(x2)
MX bypass into ALU_in2 from instruction at PC=01000078

--------------------------------------
01000080:  	00c12703    	LW     x14, 12(x2)

--------------------------------------
01000084:  	00812783    	LW     x15, 8(x2)
MX bypass into ALU_in2 from instruction at PC=01000084
Instruction at 01000088 stalling to wait for dependant data to reach a stage where it can be read

--------------------------------------
01000088:  	00000013    	NOP
Instruction at 01000088 stalling to wait for dependant data to reach a stage where it can be read

--------------------------------------
01000088:  	00000013    	NOP
Instruction at 01000088 stalling to wait for dependant data to reach a stage where it can be read

--------------------------------------
01000088:  	00000013    	NOP

--------------------------------------
01000088:  	fcf714e3    	BNE    x14, x15, 1000050
Instruction at 01000088 breaks execution flow, squashing bubble

--------------------------------------
00000000:  	00000013    	NOP

--------------------------------------
00000000:  	00000013    	NOP

--------------------------------------
01000050:  	00c12703    	LW     x14, 12(x2)

--------------------------------------
01000054:  	00812783    	LW     x15, 8(x2)
Instruction at 01000058 stalling to wait for dependant data to reach a stage where it can be read

--------------------------------------
01000058:  	00000013    	NOP
Instruction at 01000058 stalling to wait for dependant data to reach a stage where it can be read

--------------------------------------
01000058:  	00000013    	NOP
Instruction at 01000058 stalling to wait for dependant data to reach a stage where it can be read

--------------------------------------
01000058:  	00000013    	NOP

--------------------------------------
01000058:  	00e7dc63    	BGE    x15, x14, 1000070
Instruction at 01000058 breaks execution flow, squashing bubble

--------------------------------------
00000000:  	00000013    	NOP

--------------------------------------
00000000:  	00000013    	NOP

--------------------------------------
01000070:  	00812703    	LW     x14, 8(x2)

--------------------------------------
01000074:  	00c12783    	LW     x15, 12(x2)
Instruction at 01000078 stalling to wait for dependant data to reach a stage where it can be read

--------------------------------------
01000078:  	00000013    	NOP
Instruction at 01000078 stalling to wait for dependant data to reach a stage where it can be read

--------------------------------------
01000078:  	00000013    	NOP
Instruction at 01000078 stalling to wait for dependant data to reach a stage where it can be read

--------------------------------------
01000078:  	00000013    	NOP

--------------------------------------
01000078:  	40f707b3    	SUB    x15, x14, x15

--------------------------------------
0100007c:  	00f12423    	SW     x15, 8(x2)
MX bypass into ALU_in2 from instruction at PC=01000078

--------------------------------------
01000080:  	00c12703    	LW     x14, 12(x2)

--------------------------------------
01000084:  	00812783    	LW     x15, 8(x2)
MX bypass into ALU_in2 from instruction at PC=01000084
Instruction at 01000088 stalling to wait for dependant data to reach a stage where it can be read

--------------------------------------
01000088:  	00000013    	NOP
Instruction at 01000088 stalling to wait for dependant data to reach a stage where it can be read

--------------------------------------
01000088:  	00000013    	NOP
Instruction at 01000088 stalling to wait for dependant data to reach a stage where it can be read

--------------------------------------
01000088:  	00000013    	NOP

--------------------------------------
01000088:  	fcf714e3    	BNE    x14, x15, 1000050
Instruction at 01000088 breaks execution flow, squashing bubble

--------------------------------------
00000000:  	00000013    	NOP

--------------------------------------
00000000:  	00000013    	NOP

--------------------------------------
01000050:  	00c12703    	LW     x14, 12(x2)

--------------------------------------
01000054:  	00812783    	LW     x15, 8(x2)
Instruction at 01000058 stalling to wait for dependant data to reach a stage where it can be read

--------------------------------------
01000058:  	00000013    	NOP
Instruction at 01000058 stalling to wait for dependant data to reach a stage where it can be read

--------------------------------------
01000058:  	00000013    	NOP
Instruction at 01000058 stalling to wait for dependant data to reach a stage where it can be read

--------------------------------------
01000058:  	00000013    	NOP

--------------------------------------
01000058:  	00e7dc63    	BGE    x15, x14, 1000070
Instruction at 01000058 breaks execution flow, squashing bubble

--------------------------------------
00000000:  	00000013    	NOP

--------------------------------------
00000000:  	00000013    	NOP

--------------------------------------
01000070:  	00812703    	LW     x14, 8(x2)

--------------------------------------
01000074:  	00c12783    	LW     x15, 12(x2)
Instruction at 01000078 stalling to wait for dependant data to reach a stage where it can be read

--------------------------------------
01000078:  	00000013    	NOP
Instruction at 01000078 stalling to wait for dependant data to reach a stage where it can be read

--------------------------------------
01000078:  	00000013    	NOP
Instruction at 01000078 stalling to wait for dependant data to reach a stage where it can be read

--------------------------------------
01000078:  	00000013    	NOP

--------------------------------------
01000078:  	40f707b3    	SUB    x15, x14, x15

--------------------------------------
0100007c:  	00f12423    	SW     x15, 8(x2)
MX bypass into ALU_in2 from instruction at PC=01000078

--------------------------------------
01000080:  	00c12703    	LW     x14, 12(x2)

--------------------------------------
01000084:  	00812783    	LW     x15, 8(x2)
MX bypass into ALU_in2 from instruction at PC=01000084
Instruction at 01000088 stalling to wait for dependant data to reach a stage where it can be read

--------------------------------------
01000088:  	00000013    	NOP
Instruction at 01000088 stalling to wait for dependant data to reach a stage where it can be read

--------------------------------------
01000088:  	00000013    	NOP
Instruction at 01000088 stalling to wait for dependant data to reach a stage where it can be read

--------------------------------------
01000088:  	00000013    	NOP

--------------------------------------
01000088:  	fcf714e3    	BNE    x14, x15, 1000050

--------------------------------------
0100008c:  	00c12503    	LW     x10, 12(x2)

--------------------------------------
01000090:  	018000ef    	JAL    x1, 10000a8
Instruction at 01000090 breaks execution flow, squashing bubble

--------------------------------------
00000000:  	00000013    	NOP

--------------------------------------
00000000:  	00000013    	NOP

--------------------------------------
010000a8:  	ff010113    	ADDI   x2, x2, 4294967280

--------------------------------------
010000ac:  	00a12623    	SW     x10, 12(x2)
MX bypass into ALU_in1 from instruction at PC=010000a8

--------------------------------------
010000b0:  	00c12783    	LW     x15, 12(x2)
MX bypass into ALU_in1 from instruction at PC=010000b0
Instruction at 010000b4 stalling to wait for dependant data to reach a stage where it can be read

--------------------------------------
010000b4:  	00000013    	NOP

--------------------------------------
010000b4:  	ffc78793    	ADDI   x15, x15, 4294967292
MX bypass into ALU_in1 from instruction at PC=010000b8
Instruction at 010000b8 stalling to wait for dependant data to reach a stage where it can be read

--------------------------------------
010000b8:  	00000013    	NOP

--------------------------------------
010000b8:  	0017b793    	SLTIU  x15, x15, 1
MX bypass into ALU_in1 from instruction at PC=010000bc
Instruction at 010000bc stalling to wait for dependant data to reach a stage where it can be read

--------------------------------------
010000bc:  	00000013    	NOP

--------------------------------------
010000bc:  	0ff7f793    	ANDI   x15, x15, 255
MX bypass into ALU_in1 from instruction at PC=010000c0
Instruction at 010000c0 stalling to wait for dependant data to reach a stage where it can be read

--------------------------------------
010000c0:  	00000013    	NOP

--------------------------------------
010000c0:  	00078513    	ADDI   x10, x15, 0
MX bypass into ALU_in1 from instruction at PC=010000c4

--------------------------------------
010000c4:  	01010113    	ADDI   x2, x2, 16

--------------------------------------
010000c8:  	00008067    	JALR   x0, 0(x1)
Instruction at 010000c8 breaks execution flow, squashing bubble

--------------------------------------
00000000:  	00000013    	NOP

--------------------------------------
00000000:  	00000013    	NOP

--------------------------------------
01000094:  	00050793    	ADDI   x15, x10, 0

--------------------------------------
01000098:  	00078513    	ADDI   x10, x15, 0
MX bypass into ALU_in1 from instruction at PC=01000094

--------------------------------------
0100009c:  	01c12083    	LW     x1, 28(x2)

--------------------------------------
010000a0:  	02010113    	ADDI   x2, x2, 32

--------------------------------------
010000a4:  	00008067    	JALR   x0, 0(x1)
MX bypass into ALU_in1 from instruction at PC=010000a4
Instruction at 010000a4 breaks execution flow, squashing bubble

--------------------------------------
00000000:  	00000013    	NOP
Returning to SP at end of memory, terminating simulation after 821 cycles
Contents of regfile: 
r0 = 0x0
r1 = 0x0
r2 = 0x1011111
r3 = 0x0
r4 = 0x0
r5 = 0x0
r6 = 0x0
r7 = 0x0
r8 = 0x0
r9 = 0x0
r10 = 0x1
r11 = 0x0
r12 = 0x0
r13 = 0x0
r14 = 0x4
r15 = 0x1
r16 = 0x0
r17 = 0x0
r18 = 0x0
r19 = 0x0
r20 = 0x0
r21 = 0x0
r22 = 0x0
r23 = 0x0
r24 = 0x0
r25 = 0x0
r26 = 0x0
r27 = 0x0
r28 = 0x0
r29 = 0x0
r30 = 0x0
r31 = 0x0

End:  gcd.x
