BubbleSort.x
WARNING: components/memory.v:45: $readmemh(temp.x): Not enough words in the file for the requested range [0:262143].
WARNING: components/memory.v:45: $readmemh(temp.x): Not enough words in the file for the requested range [0:262143].
Initial Contents of regfile: 
r0 = 0
r1 = 0
r2 = 1011111
r3 = 0
r4 = 0
r5 = 0
r6 = 0
r7 = 0
r8 = 0
r9 = 0
r10 = 0
r11 = 0
r12 = 0
r13 = 0
r14 = 0
r15 = 0
r16 = 0
r17 = 0
r18 = 0
r19 = 0
r20 = 0
r21 = 0
r22 = 0
r23 = 0
r24 = 0
r25 = 0
r26 = 0
r27 = 0
r28 = 0
r29 = 0
r30 = 0
r31 = 0
VCD info: dumpfile testbench.vcd opened for output.

--------------------------------------
01000000:  	fd010113    	ADDI   x2, x2, x

--------------------------------------
01000004:  	02112623    	SW     x1, 4294967248(x2)

--------------------------------------
01000008:  	010007b7    	LUI    x15, 0x2c

--------------------------------------
0100000c:  	2487a883    	LW     x17, 16777216(x15)

--------------------------------------
01000010:  	24878713    	ADDI   x14, x15, 584

--------------------------------------
01000014:  	00472803    	LW     x16, 584(x14)

--------------------------------------
01000018:  	24878713    	ADDI   x14, x15, 4

--------------------------------------
0100001c:  	00872503    	LW     x10, 584(x14)

--------------------------------------
01000020:  	24878713    	ADDI   x14, x15, 8

--------------------------------------
01000024:  	00c72583    	LW     x11, 584(x14)

--------------------------------------
01000028:  	24878713    	ADDI   x14, x15, 12

--------------------------------------
0100002c:  	01072603    	LW     x12, 584(x14)

--------------------------------------
01000030:  	24878713    	ADDI   x14, x15, 16

--------------------------------------
01000034:  	01472683    	LW     x13, 584(x14)

--------------------------------------
01000038:  	24878713    	ADDI   x14, x15, 20

--------------------------------------
0100003c:  	01872703    	LW     x14, 584(x14)

--------------------------------------
01000040:  	24878793    	ADDI   x15, x15, 24

--------------------------------------
01000044:  	01c7a783    	LW     x15, 584(x15)

--------------------------------------
01000048:  	01112023    	SW     x17, 28(x2)

--------------------------------------
0100004c:  	01012223    	SW     x16, 0(x2)

--------------------------------------
01000050:  	00a12423    	SW     x10, 4(x2)

--------------------------------------
01000054:  	00b12623    	SW     x11, 8(x2)

--------------------------------------
01000058:  	00c12823    	SW     x12, 12(x2)

--------------------------------------
0100005c:  	00d12a23    	SW     x13, 16(x2)

--------------------------------------
01000060:  	00e12c23    	SW     x14, 20(x2)

--------------------------------------
01000064:  	00f12e23    	SW     x15, 24(x2)

--------------------------------------
01000068:  	00010793    	ADDI   x15, x2, 28

--------------------------------------
0100006c:  	00800593    	ADDI   x11, x0, 0

--------------------------------------
01000070:  	00078513    	ADDI   x10, x15, 8

--------------------------------------
01000074:  	024000ef    	JAL    x1, 1000074

--------------------------------------
01000098:  	fe010113    	ADDI   x2, x2, 36

--------------------------------------
0100009c:  	00a12623    	SW     x10, 4294967264(x2)

--------------------------------------
010000a0:  	00b12423    	SW     x11, 12(x2)

--------------------------------------
010000a4:  	00012e23    	SW     x0, 8(x2)

--------------------------------------
010000a8:  	0e40006f    	JAL    x0, 10000c4

--------------------------------------
0100018c:  	01c12703    	LW     x14, 228(x2)

--------------------------------------
01000190:  	00812783    	LW     x15, 28(x2)

--------------------------------------
01000194:  	f0f74ce3    	BLT    x14, x15, 100019c

--------------------------------------
010000ac:  	00100793    	ADDI   x15, x0, 4294967064

--------------------------------------
010000b0:  	00f12c23    	SW     x15, 1(x2)

--------------------------------------
010000b4:  	0b80006f    	JAL    x0, 10000cc

--------------------------------------
0100016c:  	00812703    	LW     x14, 184(x2)

--------------------------------------
01000170:  	01c12783    	LW     x15, 8(x2)

--------------------------------------
01000174:  	40f707b3    	SUB    x15, x14, x15

--------------------------------------
01000178:  	01812703    	LW     x14, 1039(x2)

--------------------------------------
0100017c:  	f2f74ee3    	BLT    x14, x15, 1000194

--------------------------------------
010000b8:  	01812703    	LW     x14, 4294967100(x2)

--------------------------------------
010000bc:  	400007b7    	LUI    x15, 0x18

--------------------------------------
010000c0:  	fff78793    	ADDI   x15, x15, 1073741824

--------------------------------------
010000c4:  	00f707b3    	ADD    x15, x14, x15

--------------------------------------
010000c8:  	00279793    	SLLI   x15, x15, 0x2

--------------------------------------
010000cc:  	00c12703    	LW     x14, 2(x2)

--------------------------------------
010000d0:  	00f707b3    	ADD    x15, x14, x15

--------------------------------------
010000d4:  	0007a703    	LW     x14, 12(x15)

--------------------------------------
010000d8:  	01812783    	LW     x15, 0(x2)

--------------------------------------
010000dc:  	00279793    	SLLI   x15, x15, 0x2

--------------------------------------
010000e0:  	00c12683    	LW     x13, 2(x2)

--------------------------------------
010000e4:  	00f687b3    	ADD    x15, x13, x15

--------------------------------------
010000e8:  	0007a783    	LW     x15, 15(x15)

--------------------------------------
010000ec:  	06e7da63    	BGE    x15, x14, 10000ec

--------------------------------------
010000f0:  	01812703    	LW     x14, 116(x2)

--------------------------------------
010000f4:  	400007b7    	LUI    x15, 0x18

--------------------------------------
010000f8:  	fff78793    	ADDI   x15, x15, 1073741824

--------------------------------------
010000fc:  	00f707b3    	ADD    x15, x14, x15

--------------------------------------
01000100:  	00279793    	SLLI   x15, x15, 0x2

--------------------------------------
01000104:  	00c12703    	LW     x14, 2(x2)

--------------------------------------
01000108:  	00f707b3    	ADD    x15, x14, x15

--------------------------------------
0100010c:  	0007a783    	LW     x15, 12(x15)

--------------------------------------
01000110:  	00f12a23    	SW     x15, 0(x2)

--------------------------------------
01000114:  	01812783    	LW     x15, 20(x2)

--------------------------------------
01000118:  	00279793    	SLLI   x15, x15, 0x2

--------------------------------------
0100011c:  	00c12703    	LW     x14, 2(x2)

--------------------------------------
01000120:  	00f70733    	ADD    x14, x14, x15

--------------------------------------
01000124:  	01812683    	LW     x13, 12(x2)

--------------------------------------
01000128:  	400007b7    	LUI    x15, 0x18

--------------------------------------
0100012c:  	fff78793    	ADDI   x15, x15, 1073741824

--------------------------------------
01000130:  	00f687b3    	ADD    x15, x13, x15

--------------------------------------
01000134:  	00279793    	SLLI   x15, x15, 0x2

--------------------------------------
01000138:  	00c12683    	LW     x13, 2(x2)

--------------------------------------
0100013c:  	00f687b3    	ADD    x15, x13, x15

--------------------------------------
01000140:  	00072703    	LW     x14, 15(x14)

--------------------------------------
01000144:  	00e7a023    	SW     x14, 0(x15)

--------------------------------------
01000148:  	01812783    	LW     x15, 0(x2)

--------------------------------------
0100014c:  	00279793    	SLLI   x15, x15, 0x2

--------------------------------------
01000150:  	00c12703    	LW     x14, 2(x2)

--------------------------------------
01000154:  	00f707b3    	ADD    x15, x14, x15

--------------------------------------
01000158:  	01412703    	LW     x14, 15(x2)

--------------------------------------
0100015c:  	00e7a023    	SW     x14, 20(x15)

--------------------------------------
01000160:  	01812783    	LW     x15, 0(x2)

--------------------------------------
01000164:  	00178793    	ADDI   x15, x15, 24

--------------------------------------
01000168:  	00f12c23    	SW     x15, 1(x2)

--------------------------------------
0100016c:  	00812703    	LW     x14, 24(x2)

--------------------------------------
01000170:  	01c12783    	LW     x15, 8(x2)

--------------------------------------
01000174:  	40f707b3    	SUB    x15, x14, x15

--------------------------------------
01000178:  	01812703    	LW     x14, 1039(x2)

--------------------------------------
0100017c:  	f2f74ee3    	BLT    x14, x15, 1000194

--------------------------------------
010000b8:  	01812703    	LW     x14, 4294967100(x2)

--------------------------------------
010000bc:  	400007b7    	LUI    x15, 0x18

--------------------------------------
010000c0:  	fff78793    	ADDI   x15, x15, 1073741824

--------------------------------------
010000c4:  	00f707b3    	ADD    x15, x14, x15

--------------------------------------
010000c8:  	00279793    	SLLI   x15, x15, 0x2

--------------------------------------
010000cc:  	00c12703    	LW     x14, 2(x2)

--------------------------------------
010000d0:  	00f707b3    	ADD    x15, x14, x15

--------------------------------------
010000d4:  	0007a703    	LW     x14, 12(x15)

--------------------------------------
010000d8:  	01812783    	LW     x15, 0(x2)

--------------------------------------
010000dc:  	00279793    	SLLI   x15, x15, 0x2

--------------------------------------
010000e0:  	00c12683    	LW     x13, 2(x2)

--------------------------------------
010000e4:  	00f687b3    	ADD    x15, x13, x15

--------------------------------------
010000e8:  	0007a783    	LW     x15, 15(x15)

--------------------------------------
010000ec:  	06e7da63    	BGE    x15, x14, 10000ec

--------------------------------------
010000f0:  	01812703    	LW     x14, 116(x2)

--------------------------------------
010000f4:  	400007b7    	LUI    x15, 0x18

--------------------------------------
010000f8:  	fff78793    	ADDI   x15, x15, 1073741824

--------------------------------------
010000fc:  	00f707b3    	ADD    x15, x14, x15

--------------------------------------
01000100:  	00279793    	SLLI   x15, x15, 0x2

--------------------------------------
01000104:  	00c12703    	LW     x14, 2(x2)

--------------------------------------
01000108:  	00f707b3    	ADD    x15, x14, x15

--------------------------------------
0100010c:  	0007a783    	LW     x15, 12(x15)

--------------------------------------
01000110:  	00f12a23    	SW     x15, 0(x2)

--------------------------------------
01000114:  	01812783    	LW     x15, 20(x2)

--------------------------------------
01000118:  	00279793    	SLLI   x15, x15, 0x2

--------------------------------------
0100011c:  	00c12703    	LW     x14, 2(x2)

--------------------------------------
01000120:  	00f70733    	ADD    x14, x14, x15

--------------------------------------
01000124:  	01812683    	LW     x13, 12(x2)

--------------------------------------
01000128:  	400007b7    	LUI    x15, 0x18

--------------------------------------
0100012c:  	fff78793    	ADDI   x15, x15, 1073741824

--------------------------------------
01000130:  	00f687b3    	ADD    x15, x13, x15

--------------------------------------
01000134:  	00279793    	SLLI   x15, x15, 0x2

--------------------------------------
01000138:  	00c12683    	LW     x13, 2(x2)

--------------------------------------
0100013c:  	00f687b3    	ADD    x15, x13, x15

--------------------------------------
01000140:  	00072703    	LW     x14, 15(x14)

--------------------------------------
01000144:  	00e7a023    	SW     x14, 0(x15)

--------------------------------------
01000148:  	01812783    	LW     x15, 0(x2)

--------------------------------------
0100014c:  	00279793    	SLLI   x15, x15, 0x2

--------------------------------------
01000150:  	00c12703    	LW     x14, 2(x2)

--------------------------------------
01000154:  	00f707b3    	ADD    x15, x14, x15

--------------------------------------
01000158:  	01412703    	LW     x14, 15(x2)

--------------------------------------
0100015c:  	00e7a023    	SW     x14, 20(x15)

--------------------------------------
01000160:  	01812783    	LW     x15, 0(x2)

--------------------------------------
01000164:  	00178793    	ADDI   x15, x15, 24

--------------------------------------
01000168:  	00f12c23    	SW     x15, 1(x2)

--------------------------------------
0100016c:  	00812703    	LW     x14, 24(x2)

--------------------------------------
01000170:  	01c12783    	LW     x15, 8(x2)

--------------------------------------
01000174:  	40f707b3    	SUB    x15, x14, x15

--------------------------------------
01000178:  	01812703    	LW     x14, 1039(x2)

--------------------------------------
0100017c:  	f2f74ee3    	BLT    x14, x15, 1000194

--------------------------------------
010000b8:  	01812703    	LW     x14, 4294967100(x2)

--------------------------------------
010000bc:  	400007b7    	LUI    x15, 0x18

--------------------------------------
010000c0:  	fff78793    	ADDI   x15, x15, 1073741824

--------------------------------------
010000c4:  	00f707b3    	ADD    x15, x14, x15

--------------------------------------
010000c8:  	00279793    	SLLI   x15, x15, 0x2

--------------------------------------
010000cc:  	00c12703    	LW     x14, 2(x2)

--------------------------------------
010000d0:  	00f707b3    	ADD    x15, x14, x15

--------------------------------------
010000d4:  	0007a703    	LW     x14, 12(x15)

--------------------------------------
010000d8:  	01812783    	LW     x15, 0(x2)

--------------------------------------
010000dc:  	00279793    	SLLI   x15, x15, 0x2

--------------------------------------
010000e0:  	00c12683    	LW     x13, 2(x2)

--------------------------------------
010000e4:  	00f687b3    	ADD    x15, x13, x15

--------------------------------------
010000e8:  	0007a783    	LW     x15, 15(x15)

--------------------------------------
010000ec:  	06e7da63    	BGE    x15, x14, 10000ec

--------------------------------------
01000160:  	01812783    	LW     x15, 116(x2)

--------------------------------------
01000164:  	00178793    	ADDI   x15, x15, 24

--------------------------------------
01000168:  	00f12c23    	SW     x15, 1(x2)

--------------------------------------
0100016c:  	00812703    	LW     x14, 24(x2)

--------------------------------------
01000170:  	01c12783    	LW     x15, 8(x2)

--------------------------------------
01000174:  	40f707b3    	SUB    x15, x14, x15

--------------------------------------
01000178:  	01812703    	LW     x14, 1039(x2)

--------------------------------------
0100017c:  	f2f74ee3    	BLT    x14, x15, 1000194

--------------------------------------
010000b8:  	01812703    	LW     x14, 4294967100(x2)

--------------------------------------
010000bc:  	400007b7    	LUI    x15, 0x18

--------------------------------------
010000c0:  	fff78793    	ADDI   x15, x15, 1073741824

--------------------------------------
010000c4:  	00f707b3    	ADD    x15, x14, x15

--------------------------------------
010000c8:  	00279793    	SLLI   x15, x15, 0x2

--------------------------------------
010000cc:  	00c12703    	LW     x14, 2(x2)

--------------------------------------
010000d0:  	00f707b3    	ADD    x15, x14, x15

--------------------------------------
010000d4:  	0007a703    	LW     x14, 12(x15)

--------------------------------------
010000d8:  	01812783    	LW     x15, 0(x2)

--------------------------------------
010000dc:  	00279793    	SLLI   x15, x15, 0x2

--------------------------------------
010000e0:  	00c12683    	LW     x13, 2(x2)

--------------------------------------
010000e4:  	00f687b3    	ADD    x15, x13, x15

--------------------------------------
010000e8:  	0007a783    	LW     x15, 15(x15)

--------------------------------------
010000ec:  	06e7da63    	BGE    x15, x14, 10000ec

--------------------------------------
01000160:  	01812783    	LW     x15, 116(x2)

--------------------------------------
01000164:  	00178793    	ADDI   x15, x15, 24

--------------------------------------
01000168:  	00f12c23    	SW     x15, 1(x2)

--------------------------------------
0100016c:  	00812703    	LW     x14, 24(x2)

--------------------------------------
01000170:  	01c12783    	LW     x15, 8(x2)

--------------------------------------
01000174:  	40f707b3    	SUB    x15, x14, x15

--------------------------------------
01000178:  	01812703    	LW     x14, 1039(x2)

--------------------------------------
0100017c:  	f2f74ee3    	BLT    x14, x15, 1000194

--------------------------------------
010000b8:  	01812703    	LW     x14, 4294967100(x2)

--------------------------------------
010000bc:  	400007b7    	LUI    x15, 0x18

--------------------------------------
010000c0:  	fff78793    	ADDI   x15, x15, 1073741824

--------------------------------------
010000c4:  	00f707b3    	ADD    x15, x14, x15

--------------------------------------
010000c8:  	00279793    	SLLI   x15, x15, 0x2

--------------------------------------
010000cc:  	00c12703    	LW     x14, 2(x2)

--------------------------------------
010000d0:  	00f707b3    	ADD    x15, x14, x15

--------------------------------------
010000d4:  	0007a703    	LW     x14, 12(x15)

--------------------------------------
010000d8:  	01812783    	LW     x15, 0(x2)

--------------------------------------
010000dc:  	00279793    	SLLI   x15, x15, 0x2

--------------------------------------
010000e0:  	00c12683    	LW     x13, 2(x2)

--------------------------------------
010000e4:  	00f687b3    	ADD    x15, x13, x15

--------------------------------------
010000e8:  	0007a783    	LW     x15, 15(x15)

--------------------------------------
010000ec:  	06e7da63    	BGE    x15, x14, 10000ec

--------------------------------------
010000f0:  	01812703    	LW     x14, 116(x2)

--------------------------------------
010000f4:  	400007b7    	LUI    x15, 0x18

--------------------------------------
010000f8:  	fff78793    	ADDI   x15, x15, 1073741824

--------------------------------------
010000fc:  	00f707b3    	ADD    x15, x14, x15

--------------------------------------
01000100:  	00279793    	SLLI   x15, x15, 0x2

--------------------------------------
01000104:  	00c12703    	LW     x14, 2(x2)

--------------------------------------
01000108:  	00f707b3    	ADD    x15, x14, x15

--------------------------------------
0100010c:  	0007a783    	LW     x15, 12(x15)

--------------------------------------
01000110:  	00f12a23    	SW     x15, 0(x2)

--------------------------------------
01000114:  	01812783    	LW     x15, 20(x2)

--------------------------------------
01000118:  	00279793    	SLLI   x15, x15, 0x2

--------------------------------------
0100011c:  	00c12703    	LW     x14, 2(x2)

--------------------------------------
01000120:  	00f70733    	ADD    x14, x14, x15

--------------------------------------
01000124:  	01812683    	LW     x13, 12(x2)

--------------------------------------
01000128:  	400007b7    	LUI    x15, 0x18

--------------------------------------
0100012c:  	fff78793    	ADDI   x15, x15, 1073741824

--------------------------------------
01000130:  	00f687b3    	ADD    x15, x13, x15

--------------------------------------
01000134:  	00279793    	SLLI   x15, x15, 0x2

--------------------------------------
01000138:  	00c12683    	LW     x13, 2(x2)

--------------------------------------
0100013c:  	00f687b3    	ADD    x15, x13, x15

--------------------------------------
01000140:  	00072703    	LW     x14, 15(x14)

--------------------------------------
01000144:  	00e7a023    	SW     x14, 0(x15)

--------------------------------------
01000148:  	01812783    	LW     x15, 0(x2)

--------------------------------------
0100014c:  	00279793    	SLLI   x15, x15, 0x2

--------------------------------------
01000150:  	00c12703    	LW     x14, 2(x2)

--------------------------------------
01000154:  	00f707b3    	ADD    x15, x14, x15

--------------------------------------
01000158:  	01412703    	LW     x14, 15(x2)

--------------------------------------
0100015c:  	00e7a023    	SW     x14, 20(x15)

--------------------------------------
01000160:  	01812783    	LW     x15, 0(x2)

--------------------------------------
01000164:  	00178793    	ADDI   x15, x15, 24

--------------------------------------
01000168:  	00f12c23    	SW     x15, 1(x2)

--------------------------------------
0100016c:  	00812703    	LW     x14, 24(x2)

--------------------------------------
01000170:  	01c12783    	LW     x15, 8(x2)

--------------------------------------
01000174:  	40f707b3    	SUB    x15, x14, x15

--------------------------------------
01000178:  	01812703    	LW     x14, 1039(x2)

--------------------------------------
0100017c:  	f2f74ee3    	BLT    x14, x15, 1000194

--------------------------------------
010000b8:  	01812703    	LW     x14, 4294967100(x2)

--------------------------------------
010000bc:  	400007b7    	LUI    x15, 0x18

--------------------------------------
010000c0:  	fff78793    	ADDI   x15, x15, 1073741824

--------------------------------------
010000c4:  	00f707b3    	ADD    x15, x14, x15

--------------------------------------
010000c8:  	00279793    	SLLI   x15, x15, 0x2

--------------------------------------
010000cc:  	00c12703    	LW     x14, 2(x2)

--------------------------------------
010000d0:  	00f707b3    	ADD    x15, x14, x15

--------------------------------------
010000d4:  	0007a703    	LW     x14, 12(x15)

--------------------------------------
010000d8:  	01812783    	LW     x15, 0(x2)

--------------------------------------
010000dc:  	00279793    	SLLI   x15, x15, 0x2

--------------------------------------
010000e0:  	00c12683    	LW     x13, 2(x2)

--------------------------------------
010000e4:  	00f687b3    	ADD    x15, x13, x15

--------------------------------------
010000e8:  	0007a783    	LW     x15, 15(x15)

--------------------------------------
010000ec:  	06e7da63    	BGE    x15, x14, 10000ec

--------------------------------------
010000f0:  	01812703    	LW     x14, 116(x2)

--------------------------------------
010000f4:  	400007b7    	LUI    x15, 0x18

--------------------------------------
010000f8:  	fff78793    	ADDI   x15, x15, 1073741824

--------------------------------------
010000fc:  	00f707b3    	ADD    x15, x14, x15

--------------------------------------
01000100:  	00279793    	SLLI   x15, x15, 0x2

--------------------------------------
01000104:  	00c12703    	LW     x14, 2(x2)

--------------------------------------
01000108:  	00f707b3    	ADD    x15, x14, x15

--------------------------------------
0100010c:  	0007a783    	LW     x15, 12(x15)

--------------------------------------
01000110:  	00f12a23    	SW     x15, 0(x2)

--------------------------------------
01000114:  	01812783    	LW     x15, 20(x2)

--------------------------------------
01000118:  	00279793    	SLLI   x15, x15, 0x2

--------------------------------------
0100011c:  	00c12703    	LW     x14, 2(x2)

--------------------------------------
01000120:  	00f70733    	ADD    x14, x14, x15

--------------------------------------
01000124:  	01812683    	LW     x13, 12(x2)

--------------------------------------
01000128:  	400007b7    	LUI    x15, 0x18

--------------------------------------
0100012c:  	fff78793    	ADDI   x15, x15, 1073741824

--------------------------------------
01000130:  	00f687b3    	ADD    x15, x13, x15

--------------------------------------
01000134:  	00279793    	SLLI   x15, x15, 0x2

--------------------------------------
01000138:  	00c12683    	LW     x13, 2(x2)

--------------------------------------
0100013c:  	00f687b3    	ADD    x15, x13, x15

--------------------------------------
01000140:  	00072703    	LW     x14, 15(x14)

--------------------------------------
01000144:  	00e7a023    	SW     x14, 0(x15)

--------------------------------------
01000148:  	01812783    	LW     x15, 0(x2)

--------------------------------------
0100014c:  	00279793    	SLLI   x15, x15, 0x2

--------------------------------------
01000150:  	00c12703    	LW     x14, 2(x2)

--------------------------------------
01000154:  	00f707b3    	ADD    x15, x14, x15

--------------------------------------
01000158:  	01412703    	LW     x14, 15(x2)

--------------------------------------
0100015c:  	00e7a023    	SW     x14, 20(x15)

--------------------------------------
01000160:  	01812783    	LW     x15, 0(x2)

--------------------------------------
01000164:  	00178793    	ADDI   x15, x15, 24

--------------------------------------
01000168:  	00f12c23    	SW     x15, 1(x2)

--------------------------------------
0100016c:  	00812703    	LW     x14, 24(x2)

--------------------------------------
01000170:  	01c12783    	LW     x15, 8(x2)

--------------------------------------
01000174:  	40f707b3    	SUB    x15, x14, x15

--------------------------------------
01000178:  	01812703    	LW     x14, 1039(x2)

--------------------------------------
0100017c:  	f2f74ee3    	BLT    x14, x15, 1000194

--------------------------------------
010000b8:  	01812703    	LW     x14, 4294967100(x2)

--------------------------------------
010000bc:  	400007b7    	LUI    x15, 0x18

--------------------------------------
010000c0:  	fff78793    	ADDI   x15, x15, 1073741824

--------------------------------------
010000c4:  	00f707b3    	ADD    x15, x14, x15

--------------------------------------
010000c8:  	00279793    	SLLI   x15, x15, 0x2

--------------------------------------
010000cc:  	00c12703    	LW     x14, 2(x2)

--------------------------------------
010000d0:  	00f707b3    	ADD    x15, x14, x15

--------------------------------------
010000d4:  	0007a703    	LW     x14, 12(x15)

--------------------------------------
010000d8:  	01812783    	LW     x15, 0(x2)

--------------------------------------
010000dc:  	00279793    	SLLI   x15, x15, 0x2

--------------------------------------
010000e0:  	00c12683    	LW     x13, 2(x2)

--------------------------------------
010000e4:  	00f687b3    	ADD    x15, x13, x15

--------------------------------------
010000e8:  	0007a783    	LW     x15, 15(x15)

--------------------------------------
010000ec:  	06e7da63    	BGE    x15, x14, 10000ec

--------------------------------------
010000f0:  	01812703    	LW     x14, 116(x2)

--------------------------------------
010000f4:  	400007b7    	LUI    x15, 0x18

--------------------------------------
010000f8:  	fff78793    	ADDI   x15, x15, 1073741824

--------------------------------------
010000fc:  	00f707b3    	ADD    x15, x14, x15

--------------------------------------
01000100:  	00279793    	SLLI   x15, x15, 0x2

--------------------------------------
01000104:  	00c12703    	LW     x14, 2(x2)

--------------------------------------
01000108:  	00f707b3    	ADD    x15, x14, x15

--------------------------------------
0100010c:  	0007a783    	LW     x15, 12(x15)

--------------------------------------
01000110:  	00f12a23    	SW     x15, 0(x2)

--------------------------------------
01000114:  	01812783    	LW     x15, 20(x2)

--------------------------------------
01000118:  	00279793    	SLLI   x15, x15, 0x2

--------------------------------------
0100011c:  	00c12703    	LW     x14, 2(x2)

--------------------------------------
01000120:  	00f70733    	ADD    x14, x14, x15

--------------------------------------
01000124:  	01812683    	LW     x13, 12(x2)

--------------------------------------
01000128:  	400007b7    	LUI    x15, 0x18

--------------------------------------
0100012c:  	fff78793    	ADDI   x15, x15, 1073741824

--------------------------------------
01000130:  	00f687b3    	ADD    x15, x13, x15

--------------------------------------
01000134:  	00279793    	SLLI   x15, x15, 0x2

--------------------------------------
01000138:  	00c12683    	LW     x13, 2(x2)

--------------------------------------
0100013c:  	00f687b3    	ADD    x15, x13, x15

--------------------------------------
01000140:  	00072703    	LW     x14, 15(x14)

--------------------------------------
01000144:  	00e7a023    	SW     x14, 0(x15)

--------------------------------------
01000148:  	01812783    	LW     x15, 0(x2)

--------------------------------------
0100014c:  	00279793    	SLLI   x15, x15, 0x2

--------------------------------------
01000150:  	00c12703    	LW     x14, 2(x2)

--------------------------------------
01000154:  	00f707b3    	ADD    x15, x14, x15

--------------------------------------
01000158:  	01412703    	LW     x14, 15(x2)

--------------------------------------
0100015c:  	00e7a023    	SW     x14, 20(x15)

--------------------------------------
01000160:  	01812783    	LW     x15, 0(x2)

--------------------------------------
01000164:  	00178793    	ADDI   x15, x15, 24

--------------------------------------
01000168:  	00f12c23    	SW     x15, 1(x2)

--------------------------------------
0100016c:  	00812703    	LW     x14, 24(x2)

--------------------------------------
01000170:  	01c12783    	LW     x15, 8(x2)

--------------------------------------
01000174:  	40f707b3    	SUB    x15, x14, x15

--------------------------------------
01000178:  	01812703    	LW     x14, 1039(x2)

--------------------------------------
0100017c:  	f2f74ee3    	BLT    x14, x15, 1000194

--------------------------------------
01000180:  	01c12783    	LW     x15, 4294967100(x2)

--------------------------------------
01000184:  	00178793    	ADDI   x15, x15, 28

--------------------------------------
01000188:  	00f12e23    	SW     x15, 1(x2)

--------------------------------------
0100018c:  	01c12703    	LW     x14, 28(x2)

--------------------------------------
01000190:  	00812783    	LW     x15, 28(x2)

--------------------------------------
01000194:  	f0f74ce3    	BLT    x14, x15, 100019c

--------------------------------------
010000ac:  	00100793    	ADDI   x15, x0, 4294967064

--------------------------------------
010000b0:  	00f12c23    	SW     x15, 1(x2)

--------------------------------------
010000b4:  	0b80006f    	JAL    x0, 10000cc

--------------------------------------
0100016c:  	00812703    	LW     x14, 184(x2)

--------------------------------------
01000170:  	01c12783    	LW     x15, 8(x2)

--------------------------------------
01000174:  	40f707b3    	SUB    x15, x14, x15

--------------------------------------
01000178:  	01812703    	LW     x14, 1039(x2)

--------------------------------------
0100017c:  	f2f74ee3    	BLT    x14, x15, 1000194

--------------------------------------
010000b8:  	01812703    	LW     x14, 4294967100(x2)

--------------------------------------
010000bc:  	400007b7    	LUI    x15, 0x18

--------------------------------------
010000c0:  	fff78793    	ADDI   x15, x15, 1073741824

--------------------------------------
010000c4:  	00f707b3    	ADD    x15, x14, x15

--------------------------------------
010000c8:  	00279793    	SLLI   x15, x15, 0x2

--------------------------------------
010000cc:  	00c12703    	LW     x14, 2(x2)

--------------------------------------
010000d0:  	00f707b3    	ADD    x15, x14, x15

--------------------------------------
010000d4:  	0007a703    	LW     x14, 12(x15)

--------------------------------------
010000d8:  	01812783    	LW     x15, 0(x2)

--------------------------------------
010000dc:  	00279793    	SLLI   x15, x15, 0x2

--------------------------------------
010000e0:  	00c12683    	LW     x13, 2(x2)

--------------------------------------
010000e4:  	00f687b3    	ADD    x15, x13, x15

--------------------------------------
010000e8:  	0007a783    	LW     x15, 15(x15)

--------------------------------------
010000ec:  	06e7da63    	BGE    x15, x14, 10000ec

--------------------------------------
010000f0:  	01812703    	LW     x14, 116(x2)

--------------------------------------
010000f4:  	400007b7    	LUI    x15, 0x18

--------------------------------------
010000f8:  	fff78793    	ADDI   x15, x15, 1073741824

--------------------------------------
010000fc:  	00f707b3    	ADD    x15, x14, x15

--------------------------------------
01000100:  	00279793    	SLLI   x15, x15, 0x2

--------------------------------------
01000104:  	00c12703    	LW     x14, 2(x2)

--------------------------------------
01000108:  	00f707b3    	ADD    x15, x14, x15

--------------------------------------
0100010c:  	0007a783    	LW     x15, 12(x15)

--------------------------------------
01000110:  	00f12a23    	SW     x15, 0(x2)

--------------------------------------
01000114:  	01812783    	LW     x15, 20(x2)

--------------------------------------
01000118:  	00279793    	SLLI   x15, x15, 0x2

--------------------------------------
0100011c:  	00c12703    	LW     x14, 2(x2)

--------------------------------------
01000120:  	00f70733    	ADD    x14, x14, x15

--------------------------------------
01000124:  	01812683    	LW     x13, 12(x2)

--------------------------------------
01000128:  	400007b7    	LUI    x15, 0x18

--------------------------------------
0100012c:  	fff78793    	ADDI   x15, x15, 1073741824

--------------------------------------
01000130:  	00f687b3    	ADD    x15, x13, x15

--------------------------------------
01000134:  	00279793    	SLLI   x15, x15, 0x2

--------------------------------------
01000138:  	00c12683    	LW     x13, 2(x2)

--------------------------------------
0100013c:  	00f687b3    	ADD    x15, x13, x15

--------------------------------------
01000140:  	00072703    	LW     x14, 15(x14)

--------------------------------------
01000144:  	00e7a023    	SW     x14, 0(x15)

--------------------------------------
01000148:  	01812783    	LW     x15, 0(x2)

--------------------------------------
0100014c:  	00279793    	SLLI   x15, x15, 0x2

--------------------------------------
01000150:  	00c12703    	LW     x14, 2(x2)

--------------------------------------
01000154:  	00f707b3    	ADD    x15, x14, x15

--------------------------------------
01000158:  	01412703    	LW     x14, 15(x2)

--------------------------------------
0100015c:  	00e7a023    	SW     x14, 20(x15)

--------------------------------------
01000160:  	01812783    	LW     x15, 0(x2)

--------------------------------------
01000164:  	00178793    	ADDI   x15, x15, 24

--------------------------------------
01000168:  	00f12c23    	SW     x15, 1(x2)

--------------------------------------
0100016c:  	00812703    	LW     x14, 24(x2)

--------------------------------------
01000170:  	01c12783    	LW     x15, 8(x2)

--------------------------------------
01000174:  	40f707b3    	SUB    x15, x14, x15

--------------------------------------
01000178:  	01812703    	LW     x14, 1039(x2)

--------------------------------------
0100017c:  	f2f74ee3    	BLT    x14, x15, 1000194

--------------------------------------
010000b8:  	01812703    	LW     x14, 4294967100(x2)

--------------------------------------
010000bc:  	400007b7    	LUI    x15, 0x18

--------------------------------------
010000c0:  	fff78793    	ADDI   x15, x15, 1073741824

--------------------------------------
010000c4:  	00f707b3    	ADD    x15, x14, x15

--------------------------------------
010000c8:  	00279793    	SLLI   x15, x15, 0x2

--------------------------------------
010000cc:  	00c12703    	LW     x14, 2(x2)

--------------------------------------
010000d0:  	00f707b3    	ADD    x15, x14, x15

--------------------------------------
010000d4:  	0007a703    	LW     x14, 12(x15)

--------------------------------------
010000d8:  	01812783    	LW     x15, 0(x2)

--------------------------------------
010000dc:  	00279793    	SLLI   x15, x15, 0x2

--------------------------------------
010000e0:  	00c12683    	LW     x13, 2(x2)

--------------------------------------
010000e4:  	00f687b3    	ADD    x15, x13, x15

--------------------------------------
010000e8:  	0007a783    	LW     x15, 15(x15)

--------------------------------------
010000ec:  	06e7da63    	BGE    x15, x14, 10000ec

--------------------------------------
01000160:  	01812783    	LW     x15, 116(x2)

--------------------------------------
01000164:  	00178793    	ADDI   x15, x15, 24

--------------------------------------
01000168:  	00f12c23    	SW     x15, 1(x2)

--------------------------------------
0100016c:  	00812703    	LW     x14, 24(x2)

--------------------------------------
01000170:  	01c12783    	LW     x15, 8(x2)

--------------------------------------
01000174:  	40f707b3    	SUB    x15, x14, x15

--------------------------------------
01000178:  	01812703    	LW     x14, 1039(x2)

--------------------------------------
0100017c:  	f2f74ee3    	BLT    x14, x15, 1000194

--------------------------------------
010000b8:  	01812703    	LW     x14, 4294967100(x2)

--------------------------------------
010000bc:  	400007b7    	LUI    x15, 0x18

--------------------------------------
010000c0:  	fff78793    	ADDI   x15, x15, 1073741824

--------------------------------------
010000c4:  	00f707b3    	ADD    x15, x14, x15

--------------------------------------
010000c8:  	00279793    	SLLI   x15, x15, 0x2

--------------------------------------
010000cc:  	00c12703    	LW     x14, 2(x2)

--------------------------------------
010000d0:  	00f707b3    	ADD    x15, x14, x15

--------------------------------------
010000d4:  	0007a703    	LW     x14, 12(x15)

--------------------------------------
010000d8:  	01812783    	LW     x15, 0(x2)

--------------------------------------
010000dc:  	00279793    	SLLI   x15, x15, 0x2

--------------------------------------
010000e0:  	00c12683    	LW     x13, 2(x2)

--------------------------------------
010000e4:  	00f687b3    	ADD    x15, x13, x15

--------------------------------------
010000e8:  	0007a783    	LW     x15, 15(x15)

--------------------------------------
010000ec:  	06e7da63    	BGE    x15, x14, 10000ec

--------------------------------------
01000160:  	01812783    	LW     x15, 116(x2)

--------------------------------------
01000164:  	00178793    	ADDI   x15, x15, 24

--------------------------------------
01000168:  	00f12c23    	SW     x15, 1(x2)

--------------------------------------
0100016c:  	00812703    	LW     x14, 24(x2)

--------------------------------------
01000170:  	01c12783    	LW     x15, 8(x2)

--------------------------------------
01000174:  	40f707b3    	SUB    x15, x14, x15

--------------------------------------
01000178:  	01812703    	LW     x14, 1039(x2)

--------------------------------------
0100017c:  	f2f74ee3    	BLT    x14, x15, 1000194

--------------------------------------
010000b8:  	01812703    	LW     x14, 4294967100(x2)

--------------------------------------
010000bc:  	400007b7    	LUI    x15, 0x18

--------------------------------------
010000c0:  	fff78793    	ADDI   x15, x15, 1073741824

--------------------------------------
010000c4:  	00f707b3    	ADD    x15, x14, x15

--------------------------------------
010000c8:  	00279793    	SLLI   x15, x15, 0x2

--------------------------------------
010000cc:  	00c12703    	LW     x14, 2(x2)

--------------------------------------
010000d0:  	00f707b3    	ADD    x15, x14, x15

--------------------------------------
010000d4:  	0007a703    	LW     x14, 12(x15)

--------------------------------------
010000d8:  	01812783    	LW     x15, 0(x2)

--------------------------------------
010000dc:  	00279793    	SLLI   x15, x15, 0x2

--------------------------------------
010000e0:  	00c12683    	LW     x13, 2(x2)

--------------------------------------
010000e4:  	00f687b3    	ADD    x15, x13, x15

--------------------------------------
010000e8:  	0007a783    	LW     x15, 15(x15)

--------------------------------------
010000ec:  	06e7da63    	BGE    x15, x14, 10000ec

--------------------------------------
010000f0:  	01812703    	LW     x14, 116(x2)

--------------------------------------
010000f4:  	400007b7    	LUI    x15, 0x18

--------------------------------------
010000f8:  	fff78793    	ADDI   x15, x15, 1073741824

--------------------------------------
010000fc:  	00f707b3    	ADD    x15, x14, x15

--------------------------------------
01000100:  	00279793    	SLLI   x15, x15, 0x2

--------------------------------------
01000104:  	00c12703    	LW     x14, 2(x2)

--------------------------------------
01000108:  	00f707b3    	ADD    x15, x14, x15

--------------------------------------
0100010c:  	0007a783    	LW     x15, 12(x15)

--------------------------------------
01000110:  	00f12a23    	SW     x15, 0(x2)

--------------------------------------
01000114:  	01812783    	LW     x15, 20(x2)

--------------------------------------
01000118:  	00279793    	SLLI   x15, x15, 0x2

--------------------------------------
0100011c:  	00c12703    	LW     x14, 2(x2)

--------------------------------------
01000120:  	00f70733    	ADD    x14, x14, x15

--------------------------------------
01000124:  	01812683    	LW     x13, 12(x2)

--------------------------------------
01000128:  	400007b7    	LUI    x15, 0x18

--------------------------------------
0100012c:  	fff78793    	ADDI   x15, x15, 1073741824

--------------------------------------
01000130:  	00f687b3    	ADD    x15, x13, x15

--------------------------------------
01000134:  	00279793    	SLLI   x15, x15, 0x2

--------------------------------------
01000138:  	00c12683    	LW     x13, 2(x2)

--------------------------------------
0100013c:  	00f687b3    	ADD    x15, x13, x15

--------------------------------------
01000140:  	00072703    	LW     x14, 15(x14)

--------------------------------------
01000144:  	00e7a023    	SW     x14, 0(x15)

--------------------------------------
01000148:  	01812783    	LW     x15, 0(x2)

--------------------------------------
0100014c:  	00279793    	SLLI   x15, x15, 0x2

--------------------------------------
01000150:  	00c12703    	LW     x14, 2(x2)

--------------------------------------
01000154:  	00f707b3    	ADD    x15, x14, x15

--------------------------------------
01000158:  	01412703    	LW     x14, 15(x2)

--------------------------------------
0100015c:  	00e7a023    	SW     x14, 20(x15)

--------------------------------------
01000160:  	01812783    	LW     x15, 0(x2)

--------------------------------------
01000164:  	00178793    	ADDI   x15, x15, 24

--------------------------------------
01000168:  	00f12c23    	SW     x15, 1(x2)

--------------------------------------
0100016c:  	00812703    	LW     x14, 24(x2)

--------------------------------------
01000170:  	01c12783    	LW     x15, 8(x2)

--------------------------------------
01000174:  	40f707b3    	SUB    x15, x14, x15

--------------------------------------
01000178:  	01812703    	LW     x14, 1039(x2)

--------------------------------------
0100017c:  	f2f74ee3    	BLT    x14, x15, 1000194

--------------------------------------
010000b8:  	01812703    	LW     x14, 4294967100(x2)

--------------------------------------
010000bc:  	400007b7    	LUI    x15, 0x18

--------------------------------------
010000c0:  	fff78793    	ADDI   x15, x15, 1073741824

--------------------------------------
010000c4:  	00f707b3    	ADD    x15, x14, x15

--------------------------------------
010000c8:  	00279793    	SLLI   x15, x15, 0x2

--------------------------------------
010000cc:  	00c12703    	LW     x14, 2(x2)

--------------------------------------
010000d0:  	00f707b3    	ADD    x15, x14, x15

--------------------------------------
010000d4:  	0007a703    	LW     x14, 12(x15)

--------------------------------------
010000d8:  	01812783    	LW     x15, 0(x2)

--------------------------------------
010000dc:  	00279793    	SLLI   x15, x15, 0x2

--------------------------------------
010000e0:  	00c12683    	LW     x13, 2(x2)

--------------------------------------
010000e4:  	00f687b3    	ADD    x15, x13, x15

--------------------------------------
010000e8:  	0007a783    	LW     x15, 15(x15)

--------------------------------------
010000ec:  	06e7da63    	BGE    x15, x14, 10000ec

--------------------------------------
010000f0:  	01812703    	LW     x14, 116(x2)

--------------------------------------
010000f4:  	400007b7    	LUI    x15, 0x18

--------------------------------------
010000f8:  	fff78793    	ADDI   x15, x15, 1073741824

--------------------------------------
010000fc:  	00f707b3    	ADD    x15, x14, x15

--------------------------------------
01000100:  	00279793    	SLLI   x15, x15, 0x2

--------------------------------------
01000104:  	00c12703    	LW     x14, 2(x2)

--------------------------------------
01000108:  	00f707b3    	ADD    x15, x14, x15

--------------------------------------
0100010c:  	0007a783    	LW     x15, 12(x15)

--------------------------------------
01000110:  	00f12a23    	SW     x15, 0(x2)

--------------------------------------
01000114:  	01812783    	LW     x15, 20(x2)

--------------------------------------
01000118:  	00279793    	SLLI   x15, x15, 0x2

--------------------------------------
0100011c:  	00c12703    	LW     x14, 2(x2)

--------------------------------------
01000120:  	00f70733    	ADD    x14, x14, x15

--------------------------------------
01000124:  	01812683    	LW     x13, 12(x2)

--------------------------------------
01000128:  	400007b7    	LUI    x15, 0x18

--------------------------------------
0100012c:  	fff78793    	ADDI   x15, x15, 1073741824

--------------------------------------
01000130:  	00f687b3    	ADD    x15, x13, x15

--------------------------------------
01000134:  	00279793    	SLLI   x15, x15, 0x2

--------------------------------------
01000138:  	00c12683    	LW     x13, 2(x2)

--------------------------------------
0100013c:  	00f687b3    	ADD    x15, x13, x15

--------------------------------------
01000140:  	00072703    	LW     x14, 15(x14)

--------------------------------------
01000144:  	00e7a023    	SW     x14, 0(x15)

--------------------------------------
01000148:  	01812783    	LW     x15, 0(x2)

--------------------------------------
0100014c:  	00279793    	SLLI   x15, x15, 0x2

--------------------------------------
01000150:  	00c12703    	LW     x14, 2(x2)

--------------------------------------
01000154:  	00f707b3    	ADD    x15, x14, x15

--------------------------------------
01000158:  	01412703    	LW     x14, 15(x2)

--------------------------------------
0100015c:  	00e7a023    	SW     x14, 20(x15)

--------------------------------------
01000160:  	01812783    	LW     x15, 0(x2)

--------------------------------------
01000164:  	00178793    	ADDI   x15, x15, 24

--------------------------------------
01000168:  	00f12c23    	SW     x15, 1(x2)

--------------------------------------
0100016c:  	00812703    	LW     x14, 24(x2)

--------------------------------------
01000170:  	01c12783    	LW     x15, 8(x2)

--------------------------------------
01000174:  	40f707b3    	SUB    x15, x14, x15

--------------------------------------
01000178:  	01812703    	LW     x14, 1039(x2)

--------------------------------------
0100017c:  	f2f74ee3    	BLT    x14, x15, 1000194

--------------------------------------
010000b8:  	01812703    	LW     x14, 4294967100(x2)

--------------------------------------
010000bc:  	400007b7    	LUI    x15, 0x18

--------------------------------------
010000c0:  	fff78793    	ADDI   x15, x15, 1073741824

--------------------------------------
010000c4:  	00f707b3    	ADD    x15, x14, x15

--------------------------------------
010000c8:  	00279793    	SLLI   x15, x15, 0x2

--------------------------------------
010000cc:  	00c12703    	LW     x14, 2(x2)

--------------------------------------
010000d0:  	00f707b3    	ADD    x15, x14, x15

--------------------------------------
010000d4:  	0007a703    	LW     x14, 12(x15)

--------------------------------------
010000d8:  	01812783    	LW     x15, 0(x2)

--------------------------------------
010000dc:  	00279793    	SLLI   x15, x15, 0x2

--------------------------------------
010000e0:  	00c12683    	LW     x13, 2(x2)

--------------------------------------
010000e4:  	00f687b3    	ADD    x15, x13, x15

--------------------------------------
010000e8:  	0007a783    	LW     x15, 15(x15)

--------------------------------------
010000ec:  	06e7da63    	BGE    x15, x14, 10000ec

--------------------------------------
010000f0:  	01812703    	LW     x14, 116(x2)

--------------------------------------
010000f4:  	400007b7    	LUI    x15, 0x18

--------------------------------------
010000f8:  	fff78793    	ADDI   x15, x15, 1073741824

--------------------------------------
010000fc:  	00f707b3    	ADD    x15, x14, x15

--------------------------------------
01000100:  	00279793    	SLLI   x15, x15, 0x2

--------------------------------------
01000104:  	00c12703    	LW     x14, 2(x2)

--------------------------------------
01000108:  	00f707b3    	ADD    x15, x14, x15

--------------------------------------
0100010c:  	0007a783    	LW     x15, 12(x15)

--------------------------------------
01000110:  	00f12a23    	SW     x15, 0(x2)

--------------------------------------
01000114:  	01812783    	LW     x15, 20(x2)

--------------------------------------
01000118:  	00279793    	SLLI   x15, x15, 0x2

--------------------------------------
0100011c:  	00c12703    	LW     x14, 2(x2)

--------------------------------------
01000120:  	00f70733    	ADD    x14, x14, x15

--------------------------------------
01000124:  	01812683    	LW     x13, 12(x2)

--------------------------------------
01000128:  	400007b7    	LUI    x15, 0x18

--------------------------------------
0100012c:  	fff78793    	ADDI   x15, x15, 1073741824

--------------------------------------
01000130:  	00f687b3    	ADD    x15, x13, x15

--------------------------------------
01000134:  	00279793    	SLLI   x15, x15, 0x2

--------------------------------------
01000138:  	00c12683    	LW     x13, 2(x2)

--------------------------------------
0100013c:  	00f687b3    	ADD    x15, x13, x15

--------------------------------------
01000140:  	00072703    	LW     x14, 15(x14)

--------------------------------------
01000144:  	00e7a023    	SW     x14, 0(x15)

--------------------------------------
01000148:  	01812783    	LW     x15, 0(x2)

--------------------------------------
0100014c:  	00279793    	SLLI   x15, x15, 0x2

--------------------------------------
01000150:  	00c12703    	LW     x14, 2(x2)

--------------------------------------
01000154:  	00f707b3    	ADD    x15, x14, x15

--------------------------------------
01000158:  	01412703    	LW     x14, 15(x2)

--------------------------------------
0100015c:  	00e7a023    	SW     x14, 20(x15)

--------------------------------------
01000160:  	01812783    	LW     x15, 0(x2)

--------------------------------------
01000164:  	00178793    	ADDI   x15, x15, 24

--------------------------------------
01000168:  	00f12c23    	SW     x15, 1(x2)

--------------------------------------
0100016c:  	00812703    	LW     x14, 24(x2)

--------------------------------------
01000170:  	01c12783    	LW     x15, 8(x2)

--------------------------------------
01000174:  	40f707b3    	SUB    x15, x14, x15

--------------------------------------
01000178:  	01812703    	LW     x14, 1039(x2)

--------------------------------------
0100017c:  	f2f74ee3    	BLT    x14, x15, 1000194

--------------------------------------
01000180:  	01c12783    	LW     x15, 4294967100(x2)

--------------------------------------
01000184:  	00178793    	ADDI   x15, x15, 28

--------------------------------------
01000188:  	00f12e23    	SW     x15, 1(x2)

--------------------------------------
0100018c:  	01c12703    	LW     x14, 28(x2)

--------------------------------------
01000190:  	00812783    	LW     x15, 28(x2)

--------------------------------------
01000194:  	f0f74ce3    	BLT    x14, x15, 100019c

--------------------------------------
010000ac:  	00100793    	ADDI   x15, x0, 4294967064

--------------------------------------
010000b0:  	00f12c23    	SW     x15, 1(x2)

--------------------------------------
010000b4:  	0b80006f    	JAL    x0, 10000cc

--------------------------------------
0100016c:  	00812703    	LW     x14, 184(x2)

--------------------------------------
01000170:  	01c12783    	LW     x15, 8(x2)

--------------------------------------
01000174:  	40f707b3    	SUB    x15, x14, x15

--------------------------------------
01000178:  	01812703    	LW     x14, 1039(x2)

--------------------------------------
0100017c:  	f2f74ee3    	BLT    x14, x15, 1000194

--------------------------------------
010000b8:  	01812703    	LW     x14, 4294967100(x2)

--------------------------------------
010000bc:  	400007b7    	LUI    x15, 0x18

--------------------------------------
010000c0:  	fff78793    	ADDI   x15, x15, 1073741824

--------------------------------------
010000c4:  	00f707b3    	ADD    x15, x14, x15

--------------------------------------
010000c8:  	00279793    	SLLI   x15, x15, 0x2

--------------------------------------
010000cc:  	00c12703    	LW     x14, 2(x2)

--------------------------------------
010000d0:  	00f707b3    	ADD    x15, x14, x15

--------------------------------------
010000d4:  	0007a703    	LW     x14, 12(x15)

--------------------------------------
010000d8:  	01812783    	LW     x15, 0(x2)

--------------------------------------
010000dc:  	00279793    	SLLI   x15, x15, 0x2

--------------------------------------
010000e0:  	00c12683    	LW     x13, 2(x2)

--------------------------------------
010000e4:  	00f687b3    	ADD    x15, x13, x15

--------------------------------------
010000e8:  	0007a783    	LW     x15, 15(x15)

--------------------------------------
010000ec:  	06e7da63    	BGE    x15, x14, 10000ec

--------------------------------------
01000160:  	01812783    	LW     x15, 116(x2)

--------------------------------------
01000164:  	00178793    	ADDI   x15, x15, 24

--------------------------------------
01000168:  	00f12c23    	SW     x15, 1(x2)

--------------------------------------
0100016c:  	00812703    	LW     x14, 24(x2)

--------------------------------------
01000170:  	01c12783    	LW     x15, 8(x2)

--------------------------------------
01000174:  	40f707b3    	SUB    x15, x14, x15

--------------------------------------
01000178:  	01812703    	LW     x14, 1039(x2)

--------------------------------------
0100017c:  	f2f74ee3    	BLT    x14, x15, 1000194

--------------------------------------
010000b8:  	01812703    	LW     x14, 4294967100(x2)

--------------------------------------
010000bc:  	400007b7    	LUI    x15, 0x18

--------------------------------------
010000c0:  	fff78793    	ADDI   x15, x15, 1073741824

--------------------------------------
010000c4:  	00f707b3    	ADD    x15, x14, x15

--------------------------------------
010000c8:  	00279793    	SLLI   x15, x15, 0x2

--------------------------------------
010000cc:  	00c12703    	LW     x14, 2(x2)

--------------------------------------
010000d0:  	00f707b3    	ADD    x15, x14, x15

--------------------------------------
010000d4:  	0007a703    	LW     x14, 12(x15)

--------------------------------------
010000d8:  	01812783    	LW     x15, 0(x2)

--------------------------------------
010000dc:  	00279793    	SLLI   x15, x15, 0x2

--------------------------------------
010000e0:  	00c12683    	LW     x13, 2(x2)

--------------------------------------
010000e4:  	00f687b3    	ADD    x15, x13, x15

--------------------------------------
010000e8:  	0007a783    	LW     x15, 15(x15)

--------------------------------------
010000ec:  	06e7da63    	BGE    x15, x14, 10000ec

--------------------------------------
01000160:  	01812783    	LW     x15, 116(x2)

--------------------------------------
01000164:  	00178793    	ADDI   x15, x15, 24

--------------------------------------
01000168:  	00f12c23    	SW     x15, 1(x2)

--------------------------------------
0100016c:  	00812703    	LW     x14, 24(x2)

--------------------------------------
01000170:  	01c12783    	LW     x15, 8(x2)

--------------------------------------
01000174:  	40f707b3    	SUB    x15, x14, x15

--------------------------------------
01000178:  	01812703    	LW     x14, 1039(x2)

--------------------------------------
0100017c:  	f2f74ee3    	BLT    x14, x15, 1000194

--------------------------------------
010000b8:  	01812703    	LW     x14, 4294967100(x2)

--------------------------------------
010000bc:  	400007b7    	LUI    x15, 0x18

--------------------------------------
010000c0:  	fff78793    	ADDI   x15, x15, 1073741824

--------------------------------------
010000c4:  	00f707b3    	ADD    x15, x14, x15

--------------------------------------
010000c8:  	00279793    	SLLI   x15, x15, 0x2

--------------------------------------
010000cc:  	00c12703    	LW     x14, 2(x2)

--------------------------------------
010000d0:  	00f707b3    	ADD    x15, x14, x15

--------------------------------------
010000d4:  	0007a703    	LW     x14, 12(x15)

--------------------------------------
010000d8:  	01812783    	LW     x15, 0(x2)

--------------------------------------
010000dc:  	00279793    	SLLI   x15, x15, 0x2

--------------------------------------
010000e0:  	00c12683    	LW     x13, 2(x2)

--------------------------------------
010000e4:  	00f687b3    	ADD    x15, x13, x15

--------------------------------------
010000e8:  	0007a783    	LW     x15, 15(x15)

--------------------------------------
010000ec:  	06e7da63    	BGE    x15, x14, 10000ec

--------------------------------------
010000f0:  	01812703    	LW     x14, 116(x2)

--------------------------------------
010000f4:  	400007b7    	LUI    x15, 0x18

--------------------------------------
010000f8:  	fff78793    	ADDI   x15, x15, 1073741824

--------------------------------------
010000fc:  	00f707b3    	ADD    x15, x14, x15

--------------------------------------
01000100:  	00279793    	SLLI   x15, x15, 0x2

--------------------------------------
01000104:  	00c12703    	LW     x14, 2(x2)

--------------------------------------
01000108:  	00f707b3    	ADD    x15, x14, x15

--------------------------------------
0100010c:  	0007a783    	LW     x15, 12(x15)

--------------------------------------
01000110:  	00f12a23    	SW     x15, 0(x2)

--------------------------------------
01000114:  	01812783    	LW     x15, 20(x2)

--------------------------------------
01000118:  	00279793    	SLLI   x15, x15, 0x2

--------------------------------------
0100011c:  	00c12703    	LW     x14, 2(x2)

--------------------------------------
01000120:  	00f70733    	ADD    x14, x14, x15

--------------------------------------
01000124:  	01812683    	LW     x13, 12(x2)

--------------------------------------
01000128:  	400007b7    	LUI    x15, 0x18

--------------------------------------
0100012c:  	fff78793    	ADDI   x15, x15, 1073741824

--------------------------------------
01000130:  	00f687b3    	ADD    x15, x13, x15

--------------------------------------
01000134:  	00279793    	SLLI   x15, x15, 0x2

--------------------------------------
01000138:  	00c12683    	LW     x13, 2(x2)

--------------------------------------
0100013c:  	00f687b3    	ADD    x15, x13, x15

--------------------------------------
01000140:  	00072703    	LW     x14, 15(x14)

--------------------------------------
01000144:  	00e7a023    	SW     x14, 0(x15)

--------------------------------------
01000148:  	01812783    	LW     x15, 0(x2)

--------------------------------------
0100014c:  	00279793    	SLLI   x15, x15, 0x2

--------------------------------------
01000150:  	00c12703    	LW     x14, 2(x2)

--------------------------------------
01000154:  	00f707b3    	ADD    x15, x14, x15

--------------------------------------
01000158:  	01412703    	LW     x14, 15(x2)

--------------------------------------
0100015c:  	00e7a023    	SW     x14, 20(x15)

--------------------------------------
01000160:  	01812783    	LW     x15, 0(x2)

--------------------------------------
01000164:  	00178793    	ADDI   x15, x15, 24

--------------------------------------
01000168:  	00f12c23    	SW     x15, 1(x2)

--------------------------------------
0100016c:  	00812703    	LW     x14, 24(x2)

--------------------------------------
01000170:  	01c12783    	LW     x15, 8(x2)

--------------------------------------
01000174:  	40f707b3    	SUB    x15, x14, x15

--------------------------------------
01000178:  	01812703    	LW     x14, 1039(x2)

--------------------------------------
0100017c:  	f2f74ee3    	BLT    x14, x15, 1000194

--------------------------------------
010000b8:  	01812703    	LW     x14, 4294967100(x2)

--------------------------------------
010000bc:  	400007b7    	LUI    x15, 0x18

--------------------------------------
010000c0:  	fff78793    	ADDI   x15, x15, 1073741824

--------------------------------------
010000c4:  	00f707b3    	ADD    x15, x14, x15

--------------------------------------
010000c8:  	00279793    	SLLI   x15, x15, 0x2

--------------------------------------
010000cc:  	00c12703    	LW     x14, 2(x2)

--------------------------------------
010000d0:  	00f707b3    	ADD    x15, x14, x15

--------------------------------------
010000d4:  	0007a703    	LW     x14, 12(x15)

--------------------------------------
010000d8:  	01812783    	LW     x15, 0(x2)

--------------------------------------
010000dc:  	00279793    	SLLI   x15, x15, 0x2

--------------------------------------
010000e0:  	00c12683    	LW     x13, 2(x2)

--------------------------------------
010000e4:  	00f687b3    	ADD    x15, x13, x15

--------------------------------------
010000e8:  	0007a783    	LW     x15, 15(x15)

--------------------------------------
010000ec:  	06e7da63    	BGE    x15, x14, 10000ec

--------------------------------------
010000f0:  	01812703    	LW     x14, 116(x2)

--------------------------------------
010000f4:  	400007b7    	LUI    x15, 0x18

--------------------------------------
010000f8:  	fff78793    	ADDI   x15, x15, 1073741824

--------------------------------------
010000fc:  	00f707b3    	ADD    x15, x14, x15

--------------------------------------
01000100:  	00279793    	SLLI   x15, x15, 0x2

--------------------------------------
01000104:  	00c12703    	LW     x14, 2(x2)

--------------------------------------
01000108:  	00f707b3    	ADD    x15, x14, x15

--------------------------------------
0100010c:  	0007a783    	LW     x15, 12(x15)

--------------------------------------
01000110:  	00f12a23    	SW     x15, 0(x2)

--------------------------------------
01000114:  	01812783    	LW     x15, 20(x2)

--------------------------------------
01000118:  	00279793    	SLLI   x15, x15, 0x2

--------------------------------------
0100011c:  	00c12703    	LW     x14, 2(x2)

--------------------------------------
01000120:  	00f70733    	ADD    x14, x14, x15

--------------------------------------
01000124:  	01812683    	LW     x13, 12(x2)

--------------------------------------
01000128:  	400007b7    	LUI    x15, 0x18

--------------------------------------
0100012c:  	fff78793    	ADDI   x15, x15, 1073741824

--------------------------------------
01000130:  	00f687b3    	ADD    x15, x13, x15

--------------------------------------
01000134:  	00279793    	SLLI   x15, x15, 0x2

--------------------------------------
01000138:  	00c12683    	LW     x13, 2(x2)

--------------------------------------
0100013c:  	00f687b3    	ADD    x15, x13, x15

--------------------------------------
01000140:  	00072703    	LW     x14, 15(x14)

--------------------------------------
01000144:  	00e7a023    	SW     x14, 0(x15)

--------------------------------------
01000148:  	01812783    	LW     x15, 0(x2)

--------------------------------------
0100014c:  	00279793    	SLLI   x15, x15, 0x2

--------------------------------------
01000150:  	00c12703    	LW     x14, 2(x2)

--------------------------------------
01000154:  	00f707b3    	ADD    x15, x14, x15

--------------------------------------
01000158:  	01412703    	LW     x14, 15(x2)

--------------------------------------
0100015c:  	00e7a023    	SW     x14, 20(x15)

--------------------------------------
01000160:  	01812783    	LW     x15, 0(x2)

--------------------------------------
01000164:  	00178793    	ADDI   x15, x15, 24

--------------------------------------
01000168:  	00f12c23    	SW     x15, 1(x2)

--------------------------------------
0100016c:  	00812703    	LW     x14, 24(x2)

--------------------------------------
01000170:  	01c12783    	LW     x15, 8(x2)

--------------------------------------
01000174:  	40f707b3    	SUB    x15, x14, x15

--------------------------------------
01000178:  	01812703    	LW     x14, 1039(x2)

--------------------------------------
0100017c:  	f2f74ee3    	BLT    x14, x15, 1000194

--------------------------------------
010000b8:  	01812703    	LW     x14, 4294967100(x2)

--------------------------------------
010000bc:  	400007b7    	LUI    x15, 0x18

--------------------------------------
010000c0:  	fff78793    	ADDI   x15, x15, 1073741824

--------------------------------------
010000c4:  	00f707b3    	ADD    x15, x14, x15

--------------------------------------
010000c8:  	00279793    	SLLI   x15, x15, 0x2

--------------------------------------
010000cc:  	00c12703    	LW     x14, 2(x2)

--------------------------------------
010000d0:  	00f707b3    	ADD    x15, x14, x15

--------------------------------------
010000d4:  	0007a703    	LW     x14, 12(x15)

--------------------------------------
010000d8:  	01812783    	LW     x15, 0(x2)

--------------------------------------
010000dc:  	00279793    	SLLI   x15, x15, 0x2

--------------------------------------
010000e0:  	00c12683    	LW     x13, 2(x2)

--------------------------------------
010000e4:  	00f687b3    	ADD    x15, x13, x15

--------------------------------------
010000e8:  	0007a783    	LW     x15, 15(x15)

--------------------------------------
010000ec:  	06e7da63    	BGE    x15, x14, 10000ec

--------------------------------------
010000f0:  	01812703    	LW     x14, 116(x2)

--------------------------------------
010000f4:  	400007b7    	LUI    x15, 0x18

--------------------------------------
010000f8:  	fff78793    	ADDI   x15, x15, 1073741824

--------------------------------------
010000fc:  	00f707b3    	ADD    x15, x14, x15

--------------------------------------
01000100:  	00279793    	SLLI   x15, x15, 0x2

--------------------------------------
01000104:  	00c12703    	LW     x14, 2(x2)

--------------------------------------
01000108:  	00f707b3    	ADD    x15, x14, x15

--------------------------------------
0100010c:  	0007a783    	LW     x15, 12(x15)

--------------------------------------
01000110:  	00f12a23    	SW     x15, 0(x2)

--------------------------------------
01000114:  	01812783    	LW     x15, 20(x2)

--------------------------------------
01000118:  	00279793    	SLLI   x15, x15, 0x2

--------------------------------------
0100011c:  	00c12703    	LW     x14, 2(x2)

--------------------------------------
01000120:  	00f70733    	ADD    x14, x14, x15

--------------------------------------
01000124:  	01812683    	LW     x13, 12(x2)

--------------------------------------
01000128:  	400007b7    	LUI    x15, 0x18

--------------------------------------
0100012c:  	fff78793    	ADDI   x15, x15, 1073741824

--------------------------------------
01000130:  	00f687b3    	ADD    x15, x13, x15

--------------------------------------
01000134:  	00279793    	SLLI   x15, x15, 0x2

--------------------------------------
01000138:  	00c12683    	LW     x13, 2(x2)

--------------------------------------
0100013c:  	00f687b3    	ADD    x15, x13, x15

--------------------------------------
01000140:  	00072703    	LW     x14, 15(x14)

--------------------------------------
01000144:  	00e7a023    	SW     x14, 0(x15)

--------------------------------------
01000148:  	01812783    	LW     x15, 0(x2)

--------------------------------------
0100014c:  	00279793    	SLLI   x15, x15, 0x2

--------------------------------------
01000150:  	00c12703    	LW     x14, 2(x2)

--------------------------------------
01000154:  	00f707b3    	ADD    x15, x14, x15

--------------------------------------
01000158:  	01412703    	LW     x14, 15(x2)

--------------------------------------
0100015c:  	00e7a023    	SW     x14, 20(x15)

--------------------------------------
01000160:  	01812783    	LW     x15, 0(x2)

--------------------------------------
01000164:  	00178793    	ADDI   x15, x15, 24

--------------------------------------
01000168:  	00f12c23    	SW     x15, 1(x2)

--------------------------------------
0100016c:  	00812703    	LW     x14, 24(x2)

--------------------------------------
01000170:  	01c12783    	LW     x15, 8(x2)

--------------------------------------
01000174:  	40f707b3    	SUB    x15, x14, x15

--------------------------------------
01000178:  	01812703    	LW     x14, 1039(x2)

--------------------------------------
0100017c:  	f2f74ee3    	BLT    x14, x15, 1000194

--------------------------------------
01000180:  	01c12783    	LW     x15, 4294967100(x2)

--------------------------------------
01000184:  	00178793    	ADDI   x15, x15, 28

--------------------------------------
01000188:  	00f12e23    	SW     x15, 1(x2)

--------------------------------------
0100018c:  	01c12703    	LW     x14, 28(x2)

--------------------------------------
01000190:  	00812783    	LW     x15, 28(x2)

--------------------------------------
01000194:  	f0f74ce3    	BLT    x14, x15, 100019c

--------------------------------------
010000ac:  	00100793    	ADDI   x15, x0, 4294967064

--------------------------------------
010000b0:  	00f12c23    	SW     x15, 1(x2)

--------------------------------------
010000b4:  	0b80006f    	JAL    x0, 10000cc

--------------------------------------
0100016c:  	00812703    	LW     x14, 184(x2)

--------------------------------------
01000170:  	01c12783    	LW     x15, 8(x2)

--------------------------------------
01000174:  	40f707b3    	SUB    x15, x14, x15

--------------------------------------
01000178:  	01812703    	LW     x14, 1039(x2)

--------------------------------------
0100017c:  	f2f74ee3    	BLT    x14, x15, 1000194

--------------------------------------
010000b8:  	01812703    	LW     x14, 4294967100(x2)

--------------------------------------
010000bc:  	400007b7    	LUI    x15, 0x18

--------------------------------------
010000c0:  	fff78793    	ADDI   x15, x15, 1073741824

--------------------------------------
010000c4:  	00f707b3    	ADD    x15, x14, x15

--------------------------------------
010000c8:  	00279793    	SLLI   x15, x15, 0x2

--------------------------------------
010000cc:  	00c12703    	LW     x14, 2(x2)

--------------------------------------
010000d0:  	00f707b3    	ADD    x15, x14, x15

--------------------------------------
010000d4:  	0007a703    	LW     x14, 12(x15)

--------------------------------------
010000d8:  	01812783    	LW     x15, 0(x2)

--------------------------------------
010000dc:  	00279793    	SLLI   x15, x15, 0x2

--------------------------------------
010000e0:  	00c12683    	LW     x13, 2(x2)

--------------------------------------
010000e4:  	00f687b3    	ADD    x15, x13, x15

--------------------------------------
010000e8:  	0007a783    	LW     x15, 15(x15)

--------------------------------------
010000ec:  	06e7da63    	BGE    x15, x14, 10000ec

--------------------------------------
01000160:  	01812783    	LW     x15, 116(x2)

--------------------------------------
01000164:  	00178793    	ADDI   x15, x15, 24

--------------------------------------
01000168:  	00f12c23    	SW     x15, 1(x2)

--------------------------------------
0100016c:  	00812703    	LW     x14, 24(x2)

--------------------------------------
01000170:  	01c12783    	LW     x15, 8(x2)

--------------------------------------
01000174:  	40f707b3    	SUB    x15, x14, x15

--------------------------------------
01000178:  	01812703    	LW     x14, 1039(x2)

--------------------------------------
0100017c:  	f2f74ee3    	BLT    x14, x15, 1000194

--------------------------------------
010000b8:  	01812703    	LW     x14, 4294967100(x2)

--------------------------------------
010000bc:  	400007b7    	LUI    x15, 0x18

--------------------------------------
010000c0:  	fff78793    	ADDI   x15, x15, 1073741824

--------------------------------------
010000c4:  	00f707b3    	ADD    x15, x14, x15

--------------------------------------
010000c8:  	00279793    	SLLI   x15, x15, 0x2

--------------------------------------
010000cc:  	00c12703    	LW     x14, 2(x2)

--------------------------------------
010000d0:  	00f707b3    	ADD    x15, x14, x15

--------------------------------------
010000d4:  	0007a703    	LW     x14, 12(x15)

--------------------------------------
010000d8:  	01812783    	LW     x15, 0(x2)

--------------------------------------
010000dc:  	00279793    	SLLI   x15, x15, 0x2

--------------------------------------
010000e0:  	00c12683    	LW     x13, 2(x2)

--------------------------------------
010000e4:  	00f687b3    	ADD    x15, x13, x15

--------------------------------------
010000e8:  	0007a783    	LW     x15, 15(x15)

--------------------------------------
010000ec:  	06e7da63    	BGE    x15, x14, 10000ec

--------------------------------------
010000f0:  	01812703    	LW     x14, 116(x2)

--------------------------------------
010000f4:  	400007b7    	LUI    x15, 0x18

--------------------------------------
010000f8:  	fff78793    	ADDI   x15, x15, 1073741824

--------------------------------------
010000fc:  	00f707b3    	ADD    x15, x14, x15

--------------------------------------
01000100:  	00279793    	SLLI   x15, x15, 0x2

--------------------------------------
01000104:  	00c12703    	LW     x14, 2(x2)

--------------------------------------
01000108:  	00f707b3    	ADD    x15, x14, x15

--------------------------------------
0100010c:  	0007a783    	LW     x15, 12(x15)

--------------------------------------
01000110:  	00f12a23    	SW     x15, 0(x2)

--------------------------------------
01000114:  	01812783    	LW     x15, 20(x2)

--------------------------------------
01000118:  	00279793    	SLLI   x15, x15, 0x2

--------------------------------------
0100011c:  	00c12703    	LW     x14, 2(x2)

--------------------------------------
01000120:  	00f70733    	ADD    x14, x14, x15

--------------------------------------
01000124:  	01812683    	LW     x13, 12(x2)

--------------------------------------
01000128:  	400007b7    	LUI    x15, 0x18

--------------------------------------
0100012c:  	fff78793    	ADDI   x15, x15, 1073741824

--------------------------------------
01000130:  	00f687b3    	ADD    x15, x13, x15

--------------------------------------
01000134:  	00279793    	SLLI   x15, x15, 0x2

--------------------------------------
01000138:  	00c12683    	LW     x13, 2(x2)

--------------------------------------
0100013c:  	00f687b3    	ADD    x15, x13, x15

--------------------------------------
01000140:  	00072703    	LW     x14, 15(x14)

--------------------------------------
01000144:  	00e7a023    	SW     x14, 0(x15)

--------------------------------------
01000148:  	01812783    	LW     x15, 0(x2)

--------------------------------------
0100014c:  	00279793    	SLLI   x15, x15, 0x2

--------------------------------------
01000150:  	00c12703    	LW     x14, 2(x2)

--------------------------------------
01000154:  	00f707b3    	ADD    x15, x14, x15

--------------------------------------
01000158:  	01412703    	LW     x14, 15(x2)

--------------------------------------
0100015c:  	00e7a023    	SW     x14, 20(x15)

--------------------------------------
01000160:  	01812783    	LW     x15, 0(x2)

--------------------------------------
01000164:  	00178793    	ADDI   x15, x15, 24

--------------------------------------
01000168:  	00f12c23    	SW     x15, 1(x2)

--------------------------------------
0100016c:  	00812703    	LW     x14, 24(x2)

--------------------------------------
01000170:  	01c12783    	LW     x15, 8(x2)

--------------------------------------
01000174:  	40f707b3    	SUB    x15, x14, x15

--------------------------------------
01000178:  	01812703    	LW     x14, 1039(x2)

--------------------------------------
0100017c:  	f2f74ee3    	BLT    x14, x15, 1000194

--------------------------------------
010000b8:  	01812703    	LW     x14, 4294967100(x2)

--------------------------------------
010000bc:  	400007b7    	LUI    x15, 0x18

--------------------------------------
010000c0:  	fff78793    	ADDI   x15, x15, 1073741824

--------------------------------------
010000c4:  	00f707b3    	ADD    x15, x14, x15

--------------------------------------
010000c8:  	00279793    	SLLI   x15, x15, 0x2

--------------------------------------
010000cc:  	00c12703    	LW     x14, 2(x2)

--------------------------------------
010000d0:  	00f707b3    	ADD    x15, x14, x15

--------------------------------------
010000d4:  	0007a703    	LW     x14, 12(x15)

--------------------------------------
010000d8:  	01812783    	LW     x15, 0(x2)

--------------------------------------
010000dc:  	00279793    	SLLI   x15, x15, 0x2

--------------------------------------
010000e0:  	00c12683    	LW     x13, 2(x2)

--------------------------------------
010000e4:  	00f687b3    	ADD    x15, x13, x15

--------------------------------------
010000e8:  	0007a783    	LW     x15, 15(x15)

--------------------------------------
010000ec:  	06e7da63    	BGE    x15, x14, 10000ec

--------------------------------------
010000f0:  	01812703    	LW     x14, 116(x2)

--------------------------------------
010000f4:  	400007b7    	LUI    x15, 0x18

--------------------------------------
010000f8:  	fff78793    	ADDI   x15, x15, 1073741824

--------------------------------------
010000fc:  	00f707b3    	ADD    x15, x14, x15

--------------------------------------
01000100:  	00279793    	SLLI   x15, x15, 0x2

--------------------------------------
01000104:  	00c12703    	LW     x14, 2(x2)

--------------------------------------
01000108:  	00f707b3    	ADD    x15, x14, x15

--------------------------------------
0100010c:  	0007a783    	LW     x15, 12(x15)

--------------------------------------
01000110:  	00f12a23    	SW     x15, 0(x2)

--------------------------------------
01000114:  	01812783    	LW     x15, 20(x2)

--------------------------------------
01000118:  	00279793    	SLLI   x15, x15, 0x2

--------------------------------------
0100011c:  	00c12703    	LW     x14, 2(x2)

--------------------------------------
01000120:  	00f70733    	ADD    x14, x14, x15

--------------------------------------
01000124:  	01812683    	LW     x13, 12(x2)

--------------------------------------
01000128:  	400007b7    	LUI    x15, 0x18

--------------------------------------
0100012c:  	fff78793    	ADDI   x15, x15, 1073741824

--------------------------------------
01000130:  	00f687b3    	ADD    x15, x13, x15

--------------------------------------
01000134:  	00279793    	SLLI   x15, x15, 0x2

--------------------------------------
01000138:  	00c12683    	LW     x13, 2(x2)

--------------------------------------
0100013c:  	00f687b3    	ADD    x15, x13, x15

--------------------------------------
01000140:  	00072703    	LW     x14, 15(x14)

--------------------------------------
01000144:  	00e7a023    	SW     x14, 0(x15)

--------------------------------------
01000148:  	01812783    	LW     x15, 0(x2)

--------------------------------------
0100014c:  	00279793    	SLLI   x15, x15, 0x2

--------------------------------------
01000150:  	00c12703    	LW     x14, 2(x2)

--------------------------------------
01000154:  	00f707b3    	ADD    x15, x14, x15

--------------------------------------
01000158:  	01412703    	LW     x14, 15(x2)

--------------------------------------
0100015c:  	00e7a023    	SW     x14, 20(x15)

--------------------------------------
01000160:  	01812783    	LW     x15, 0(x2)

--------------------------------------
01000164:  	00178793    	ADDI   x15, x15, 24

--------------------------------------
01000168:  	00f12c23    	SW     x15, 1(x2)

--------------------------------------
0100016c:  	00812703    	LW     x14, 24(x2)

--------------------------------------
01000170:  	01c12783    	LW     x15, 8(x2)

--------------------------------------
01000174:  	40f707b3    	SUB    x15, x14, x15

--------------------------------------
01000178:  	01812703    	LW     x14, 1039(x2)

--------------------------------------
0100017c:  	f2f74ee3    	BLT    x14, x15, 1000194

--------------------------------------
010000b8:  	01812703    	LW     x14, 4294967100(x2)

--------------------------------------
010000bc:  	400007b7    	LUI    x15, 0x18

--------------------------------------
010000c0:  	fff78793    	ADDI   x15, x15, 1073741824

--------------------------------------
010000c4:  	00f707b3    	ADD    x15, x14, x15

--------------------------------------
010000c8:  	00279793    	SLLI   x15, x15, 0x2

--------------------------------------
010000cc:  	00c12703    	LW     x14, 2(x2)

--------------------------------------
010000d0:  	00f707b3    	ADD    x15, x14, x15

--------------------------------------
010000d4:  	0007a703    	LW     x14, 12(x15)

--------------------------------------
010000d8:  	01812783    	LW     x15, 0(x2)

--------------------------------------
010000dc:  	00279793    	SLLI   x15, x15, 0x2

--------------------------------------
010000e0:  	00c12683    	LW     x13, 2(x2)

--------------------------------------
010000e4:  	00f687b3    	ADD    x15, x13, x15

--------------------------------------
010000e8:  	0007a783    	LW     x15, 15(x15)

--------------------------------------
010000ec:  	06e7da63    	BGE    x15, x14, 10000ec

--------------------------------------
01000160:  	01812783    	LW     x15, 116(x2)

--------------------------------------
01000164:  	00178793    	ADDI   x15, x15, 24

--------------------------------------
01000168:  	00f12c23    	SW     x15, 1(x2)

--------------------------------------
0100016c:  	00812703    	LW     x14, 24(x2)

--------------------------------------
01000170:  	01c12783    	LW     x15, 8(x2)

--------------------------------------
01000174:  	40f707b3    	SUB    x15, x14, x15

--------------------------------------
01000178:  	01812703    	LW     x14, 1039(x2)

--------------------------------------
0100017c:  	f2f74ee3    	BLT    x14, x15, 1000194

--------------------------------------
01000180:  	01c12783    	LW     x15, 4294967100(x2)

--------------------------------------
01000184:  	00178793    	ADDI   x15, x15, 28

--------------------------------------
01000188:  	00f12e23    	SW     x15, 1(x2)

--------------------------------------
0100018c:  	01c12703    	LW     x14, 28(x2)

--------------------------------------
01000190:  	00812783    	LW     x15, 28(x2)

--------------------------------------
01000194:  	f0f74ce3    	BLT    x14, x15, 100019c

--------------------------------------
010000ac:  	00100793    	ADDI   x15, x0, 4294967064

--------------------------------------
010000b0:  	00f12c23    	SW     x15, 1(x2)

--------------------------------------
010000b4:  	0b80006f    	JAL    x0, 10000cc

--------------------------------------
0100016c:  	00812703    	LW     x14, 184(x2)

--------------------------------------
01000170:  	01c12783    	LW     x15, 8(x2)

--------------------------------------
01000174:  	40f707b3    	SUB    x15, x14, x15

--------------------------------------
01000178:  	01812703    	LW     x14, 1039(x2)

--------------------------------------
0100017c:  	f2f74ee3    	BLT    x14, x15, 1000194

--------------------------------------
010000b8:  	01812703    	LW     x14, 4294967100(x2)

--------------------------------------
010000bc:  	400007b7    	LUI    x15, 0x18

--------------------------------------
010000c0:  	fff78793    	ADDI   x15, x15, 1073741824

--------------------------------------
010000c4:  	00f707b3    	ADD    x15, x14, x15

--------------------------------------
010000c8:  	00279793    	SLLI   x15, x15, 0x2

--------------------------------------
010000cc:  	00c12703    	LW     x14, 2(x2)

--------------------------------------
010000d0:  	00f707b3    	ADD    x15, x14, x15

--------------------------------------
010000d4:  	0007a703    	LW     x14, 12(x15)

--------------------------------------
010000d8:  	01812783    	LW     x15, 0(x2)

--------------------------------------
010000dc:  	00279793    	SLLI   x15, x15, 0x2

--------------------------------------
010000e0:  	00c12683    	LW     x13, 2(x2)

--------------------------------------
010000e4:  	00f687b3    	ADD    x15, x13, x15

--------------------------------------
010000e8:  	0007a783    	LW     x15, 15(x15)

--------------------------------------
010000ec:  	06e7da63    	BGE    x15, x14, 10000ec

--------------------------------------
010000f0:  	01812703    	LW     x14, 116(x2)

--------------------------------------
010000f4:  	400007b7    	LUI    x15, 0x18

--------------------------------------
010000f8:  	fff78793    	ADDI   x15, x15, 1073741824

--------------------------------------
010000fc:  	00f707b3    	ADD    x15, x14, x15

--------------------------------------
01000100:  	00279793    	SLLI   x15, x15, 0x2

--------------------------------------
01000104:  	00c12703    	LW     x14, 2(x2)

--------------------------------------
01000108:  	00f707b3    	ADD    x15, x14, x15

--------------------------------------
0100010c:  	0007a783    	LW     x15, 12(x15)

--------------------------------------
01000110:  	00f12a23    	SW     x15, 0(x2)

--------------------------------------
01000114:  	01812783    	LW     x15, 20(x2)

--------------------------------------
01000118:  	00279793    	SLLI   x15, x15, 0x2

--------------------------------------
0100011c:  	00c12703    	LW     x14, 2(x2)

--------------------------------------
01000120:  	00f70733    	ADD    x14, x14, x15

--------------------------------------
01000124:  	01812683    	LW     x13, 12(x2)

--------------------------------------
01000128:  	400007b7    	LUI    x15, 0x18

--------------------------------------
0100012c:  	fff78793    	ADDI   x15, x15, 1073741824

--------------------------------------
01000130:  	00f687b3    	ADD    x15, x13, x15

--------------------------------------
01000134:  	00279793    	SLLI   x15, x15, 0x2

--------------------------------------
01000138:  	00c12683    	LW     x13, 2(x2)

--------------------------------------
0100013c:  	00f687b3    	ADD    x15, x13, x15

--------------------------------------
01000140:  	00072703    	LW     x14, 15(x14)

--------------------------------------
01000144:  	00e7a023    	SW     x14, 0(x15)

--------------------------------------
01000148:  	01812783    	LW     x15, 0(x2)

--------------------------------------
0100014c:  	00279793    	SLLI   x15, x15, 0x2

--------------------------------------
01000150:  	00c12703    	LW     x14, 2(x2)

--------------------------------------
01000154:  	00f707b3    	ADD    x15, x14, x15

--------------------------------------
01000158:  	01412703    	LW     x14, 15(x2)

--------------------------------------
0100015c:  	00e7a023    	SW     x14, 20(x15)

--------------------------------------
01000160:  	01812783    	LW     x15, 0(x2)

--------------------------------------
01000164:  	00178793    	ADDI   x15, x15, 24

--------------------------------------
01000168:  	00f12c23    	SW     x15, 1(x2)

--------------------------------------
0100016c:  	00812703    	LW     x14, 24(x2)

--------------------------------------
01000170:  	01c12783    	LW     x15, 8(x2)

--------------------------------------
01000174:  	40f707b3    	SUB    x15, x14, x15

--------------------------------------
01000178:  	01812703    	LW     x14, 1039(x2)

--------------------------------------
0100017c:  	f2f74ee3    	BLT    x14, x15, 1000194

--------------------------------------
010000b8:  	01812703    	LW     x14, 4294967100(x2)

--------------------------------------
010000bc:  	400007b7    	LUI    x15, 0x18

--------------------------------------
010000c0:  	fff78793    	ADDI   x15, x15, 1073741824

--------------------------------------
010000c4:  	00f707b3    	ADD    x15, x14, x15

--------------------------------------
010000c8:  	00279793    	SLLI   x15, x15, 0x2

--------------------------------------
010000cc:  	00c12703    	LW     x14, 2(x2)

--------------------------------------
010000d0:  	00f707b3    	ADD    x15, x14, x15

--------------------------------------
010000d4:  	0007a703    	LW     x14, 12(x15)

--------------------------------------
010000d8:  	01812783    	LW     x15, 0(x2)

--------------------------------------
010000dc:  	00279793    	SLLI   x15, x15, 0x2

--------------------------------------
010000e0:  	00c12683    	LW     x13, 2(x2)

--------------------------------------
010000e4:  	00f687b3    	ADD    x15, x13, x15

--------------------------------------
010000e8:  	0007a783    	LW     x15, 15(x15)

--------------------------------------
010000ec:  	06e7da63    	BGE    x15, x14, 10000ec

--------------------------------------
010000f0:  	01812703    	LW     x14, 116(x2)

--------------------------------------
010000f4:  	400007b7    	LUI    x15, 0x18

--------------------------------------
010000f8:  	fff78793    	ADDI   x15, x15, 1073741824

--------------------------------------
010000fc:  	00f707b3    	ADD    x15, x14, x15

--------------------------------------
01000100:  	00279793    	SLLI   x15, x15, 0x2

--------------------------------------
01000104:  	00c12703    	LW     x14, 2(x2)

--------------------------------------
01000108:  	00f707b3    	ADD    x15, x14, x15

--------------------------------------
0100010c:  	0007a783    	LW     x15, 12(x15)

--------------------------------------
01000110:  	00f12a23    	SW     x15, 0(x2)

--------------------------------------
01000114:  	01812783    	LW     x15, 20(x2)

--------------------------------------
01000118:  	00279793    	SLLI   x15, x15, 0x2

--------------------------------------
0100011c:  	00c12703    	LW     x14, 2(x2)

--------------------------------------
01000120:  	00f70733    	ADD    x14, x14, x15

--------------------------------------
01000124:  	01812683    	LW     x13, 12(x2)

--------------------------------------
01000128:  	400007b7    	LUI    x15, 0x18

--------------------------------------
0100012c:  	fff78793    	ADDI   x15, x15, 1073741824

--------------------------------------
01000130:  	00f687b3    	ADD    x15, x13, x15

--------------------------------------
01000134:  	00279793    	SLLI   x15, x15, 0x2

--------------------------------------
01000138:  	00c12683    	LW     x13, 2(x2)

--------------------------------------
0100013c:  	00f687b3    	ADD    x15, x13, x15

--------------------------------------
01000140:  	00072703    	LW     x14, 15(x14)

--------------------------------------
01000144:  	00e7a023    	SW     x14, 0(x15)

--------------------------------------
01000148:  	01812783    	LW     x15, 0(x2)

--------------------------------------
0100014c:  	00279793    	SLLI   x15, x15, 0x2

--------------------------------------
01000150:  	00c12703    	LW     x14, 2(x2)

--------------------------------------
01000154:  	00f707b3    	ADD    x15, x14, x15

--------------------------------------
01000158:  	01412703    	LW     x14, 15(x2)

--------------------------------------
0100015c:  	00e7a023    	SW     x14, 20(x15)

--------------------------------------
01000160:  	01812783    	LW     x15, 0(x2)

--------------------------------------
01000164:  	00178793    	ADDI   x15, x15, 24

--------------------------------------
01000168:  	00f12c23    	SW     x15, 1(x2)

--------------------------------------
0100016c:  	00812703    	LW     x14, 24(x2)

--------------------------------------
01000170:  	01c12783    	LW     x15, 8(x2)

--------------------------------------
01000174:  	40f707b3    	SUB    x15, x14, x15

--------------------------------------
01000178:  	01812703    	LW     x14, 1039(x2)

--------------------------------------
0100017c:  	f2f74ee3    	BLT    x14, x15, 1000194

--------------------------------------
010000b8:  	01812703    	LW     x14, 4294967100(x2)

--------------------------------------
010000bc:  	400007b7    	LUI    x15, 0x18

--------------------------------------
010000c0:  	fff78793    	ADDI   x15, x15, 1073741824

--------------------------------------
010000c4:  	00f707b3    	ADD    x15, x14, x15

--------------------------------------
010000c8:  	00279793    	SLLI   x15, x15, 0x2

--------------------------------------
010000cc:  	00c12703    	LW     x14, 2(x2)

--------------------------------------
010000d0:  	00f707b3    	ADD    x15, x14, x15

--------------------------------------
010000d4:  	0007a703    	LW     x14, 12(x15)

--------------------------------------
010000d8:  	01812783    	LW     x15, 0(x2)

--------------------------------------
010000dc:  	00279793    	SLLI   x15, x15, 0x2

--------------------------------------
010000e0:  	00c12683    	LW     x13, 2(x2)

--------------------------------------
010000e4:  	00f687b3    	ADD    x15, x13, x15

--------------------------------------
010000e8:  	0007a783    	LW     x15, 15(x15)

--------------------------------------
010000ec:  	06e7da63    	BGE    x15, x14, 10000ec

--------------------------------------
01000160:  	01812783    	LW     x15, 116(x2)

--------------------------------------
01000164:  	00178793    	ADDI   x15, x15, 24

--------------------------------------
01000168:  	00f12c23    	SW     x15, 1(x2)

--------------------------------------
0100016c:  	00812703    	LW     x14, 24(x2)

--------------------------------------
01000170:  	01c12783    	LW     x15, 8(x2)

--------------------------------------
01000174:  	40f707b3    	SUB    x15, x14, x15

--------------------------------------
01000178:  	01812703    	LW     x14, 1039(x2)

--------------------------------------
0100017c:  	f2f74ee3    	BLT    x14, x15, 1000194

--------------------------------------
01000180:  	01c12783    	LW     x15, 4294967100(x2)

--------------------------------------
01000184:  	00178793    	ADDI   x15, x15, 28

--------------------------------------
01000188:  	00f12e23    	SW     x15, 1(x2)

--------------------------------------
0100018c:  	01c12703    	LW     x14, 28(x2)

--------------------------------------
01000190:  	00812783    	LW     x15, 28(x2)

--------------------------------------
01000194:  	f0f74ce3    	BLT    x14, x15, 100019c

--------------------------------------
010000ac:  	00100793    	ADDI   x15, x0, 4294967064

--------------------------------------
010000b0:  	00f12c23    	SW     x15, 1(x2)

--------------------------------------
010000b4:  	0b80006f    	JAL    x0, 10000cc

--------------------------------------
0100016c:  	00812703    	LW     x14, 184(x2)

--------------------------------------
01000170:  	01c12783    	LW     x15, 8(x2)

--------------------------------------
01000174:  	40f707b3    	SUB    x15, x14, x15

--------------------------------------
01000178:  	01812703    	LW     x14, 1039(x2)

--------------------------------------
0100017c:  	f2f74ee3    	BLT    x14, x15, 1000194

--------------------------------------
010000b8:  	01812703    	LW     x14, 4294967100(x2)

--------------------------------------
010000bc:  	400007b7    	LUI    x15, 0x18

--------------------------------------
010000c0:  	fff78793    	ADDI   x15, x15, 1073741824

--------------------------------------
010000c4:  	00f707b3    	ADD    x15, x14, x15

--------------------------------------
010000c8:  	00279793    	SLLI   x15, x15, 0x2

--------------------------------------
010000cc:  	00c12703    	LW     x14, 2(x2)

--------------------------------------
010000d0:  	00f707b3    	ADD    x15, x14, x15

--------------------------------------
010000d4:  	0007a703    	LW     x14, 12(x15)

--------------------------------------
010000d8:  	01812783    	LW     x15, 0(x2)

--------------------------------------
010000dc:  	00279793    	SLLI   x15, x15, 0x2

--------------------------------------
010000e0:  	00c12683    	LW     x13, 2(x2)

--------------------------------------
010000e4:  	00f687b3    	ADD    x15, x13, x15

--------------------------------------
010000e8:  	0007a783    	LW     x15, 15(x15)

--------------------------------------
010000ec:  	06e7da63    	BGE    x15, x14, 10000ec

--------------------------------------
01000160:  	01812783    	LW     x15, 116(x2)

--------------------------------------
01000164:  	00178793    	ADDI   x15, x15, 24

--------------------------------------
01000168:  	00f12c23    	SW     x15, 1(x2)

--------------------------------------
0100016c:  	00812703    	LW     x14, 24(x2)

--------------------------------------
01000170:  	01c12783    	LW     x15, 8(x2)

--------------------------------------
01000174:  	40f707b3    	SUB    x15, x14, x15

--------------------------------------
01000178:  	01812703    	LW     x14, 1039(x2)

--------------------------------------
0100017c:  	f2f74ee3    	BLT    x14, x15, 1000194

--------------------------------------
010000b8:  	01812703    	LW     x14, 4294967100(x2)

--------------------------------------
010000bc:  	400007b7    	LUI    x15, 0x18

--------------------------------------
010000c0:  	fff78793    	ADDI   x15, x15, 1073741824

--------------------------------------
010000c4:  	00f707b3    	ADD    x15, x14, x15

--------------------------------------
010000c8:  	00279793    	SLLI   x15, x15, 0x2

--------------------------------------
010000cc:  	00c12703    	LW     x14, 2(x2)

--------------------------------------
010000d0:  	00f707b3    	ADD    x15, x14, x15

--------------------------------------
010000d4:  	0007a703    	LW     x14, 12(x15)

--------------------------------------
010000d8:  	01812783    	LW     x15, 0(x2)

--------------------------------------
010000dc:  	00279793    	SLLI   x15, x15, 0x2

--------------------------------------
010000e0:  	00c12683    	LW     x13, 2(x2)

--------------------------------------
010000e4:  	00f687b3    	ADD    x15, x13, x15

--------------------------------------
010000e8:  	0007a783    	LW     x15, 15(x15)

--------------------------------------
010000ec:  	06e7da63    	BGE    x15, x14, 10000ec

--------------------------------------
01000160:  	01812783    	LW     x15, 116(x2)

--------------------------------------
01000164:  	00178793    	ADDI   x15, x15, 24

--------------------------------------
01000168:  	00f12c23    	SW     x15, 1(x2)

--------------------------------------
0100016c:  	00812703    	LW     x14, 24(x2)

--------------------------------------
01000170:  	01c12783    	LW     x15, 8(x2)

--------------------------------------
01000174:  	40f707b3    	SUB    x15, x14, x15

--------------------------------------
01000178:  	01812703    	LW     x14, 1039(x2)

--------------------------------------
0100017c:  	f2f74ee3    	BLT    x14, x15, 1000194

--------------------------------------
01000180:  	01c12783    	LW     x15, 4294967100(x2)

--------------------------------------
01000184:  	00178793    	ADDI   x15, x15, 28

--------------------------------------
01000188:  	00f12e23    	SW     x15, 1(x2)

--------------------------------------
0100018c:  	01c12703    	LW     x14, 28(x2)

--------------------------------------
01000190:  	00812783    	LW     x15, 28(x2)

--------------------------------------
01000194:  	f0f74ce3    	BLT    x14, x15, 100019c

--------------------------------------
010000ac:  	00100793    	ADDI   x15, x0, 4294967064

--------------------------------------
010000b0:  	00f12c23    	SW     x15, 1(x2)

--------------------------------------
010000b4:  	0b80006f    	JAL    x0, 10000cc

--------------------------------------
0100016c:  	00812703    	LW     x14, 184(x2)

--------------------------------------
01000170:  	01c12783    	LW     x15, 8(x2)

--------------------------------------
01000174:  	40f707b3    	SUB    x15, x14, x15

--------------------------------------
01000178:  	01812703    	LW     x14, 1039(x2)

--------------------------------------
0100017c:  	f2f74ee3    	BLT    x14, x15, 1000194

--------------------------------------
010000b8:  	01812703    	LW     x14, 4294967100(x2)

--------------------------------------
010000bc:  	400007b7    	LUI    x15, 0x18

--------------------------------------
010000c0:  	fff78793    	ADDI   x15, x15, 1073741824

--------------------------------------
010000c4:  	00f707b3    	ADD    x15, x14, x15

--------------------------------------
010000c8:  	00279793    	SLLI   x15, x15, 0x2

--------------------------------------
010000cc:  	00c12703    	LW     x14, 2(x2)

--------------------------------------
010000d0:  	00f707b3    	ADD    x15, x14, x15

--------------------------------------
010000d4:  	0007a703    	LW     x14, 12(x15)

--------------------------------------
010000d8:  	01812783    	LW     x15, 0(x2)

--------------------------------------
010000dc:  	00279793    	SLLI   x15, x15, 0x2

--------------------------------------
010000e0:  	00c12683    	LW     x13, 2(x2)

--------------------------------------
010000e4:  	00f687b3    	ADD    x15, x13, x15

--------------------------------------
010000e8:  	0007a783    	LW     x15, 15(x15)

--------------------------------------
010000ec:  	06e7da63    	BGE    x15, x14, 10000ec

--------------------------------------
01000160:  	01812783    	LW     x15, 116(x2)

--------------------------------------
01000164:  	00178793    	ADDI   x15, x15, 24

--------------------------------------
01000168:  	00f12c23    	SW     x15, 1(x2)

--------------------------------------
0100016c:  	00812703    	LW     x14, 24(x2)

--------------------------------------
01000170:  	01c12783    	LW     x15, 8(x2)

--------------------------------------
01000174:  	40f707b3    	SUB    x15, x14, x15

--------------------------------------
01000178:  	01812703    	LW     x14, 1039(x2)

--------------------------------------
0100017c:  	f2f74ee3    	BLT    x14, x15, 1000194

--------------------------------------
01000180:  	01c12783    	LW     x15, 4294967100(x2)

--------------------------------------
01000184:  	00178793    	ADDI   x15, x15, 28

--------------------------------------
01000188:  	00f12e23    	SW     x15, 1(x2)

--------------------------------------
0100018c:  	01c12703    	LW     x14, 28(x2)

--------------------------------------
01000190:  	00812783    	LW     x15, 28(x2)

--------------------------------------
01000194:  	f0f74ce3    	BLT    x14, x15, 100019c

--------------------------------------
010000ac:  	00100793    	ADDI   x15, x0, 4294967064

--------------------------------------
010000b0:  	00f12c23    	SW     x15, 1(x2)

--------------------------------------
010000b4:  	0b80006f    	JAL    x0, 10000cc

--------------------------------------
0100016c:  	00812703    	LW     x14, 184(x2)

--------------------------------------
01000170:  	01c12783    	LW     x15, 8(x2)

--------------------------------------
01000174:  	40f707b3    	SUB    x15, x14, x15

--------------------------------------
01000178:  	01812703    	LW     x14, 1039(x2)

--------------------------------------
0100017c:  	f2f74ee3    	BLT    x14, x15, 1000194

--------------------------------------
01000180:  	01c12783    	LW     x15, 4294967100(x2)

--------------------------------------
01000184:  	00178793    	ADDI   x15, x15, 28

--------------------------------------
01000188:  	00f12e23    	SW     x15, 1(x2)

--------------------------------------
0100018c:  	01c12703    	LW     x14, 28(x2)

--------------------------------------
01000190:  	00812783    	LW     x15, 28(x2)

--------------------------------------
01000194:  	f0f74ce3    	BLT    x14, x15, 100019c

--------------------------------------
01000198:  	00000013    	ADDI   x0, x0, 4294967064

--------------------------------------
0100019c:  	02010113    	ADDI   x2, x2, 0

--------------------------------------
010001a0:  	00008067    	JALR   x0, 32(x1)

--------------------------------------
01000078:  	00010793    	ADDI   x15, x2, 0

--------------------------------------
0100007c:  	00078513    	ADDI   x10, x15, 0

--------------------------------------
01000080:  	124000ef    	JAL    x1, 1000080

--------------------------------------
010001a4:  	fd010113    	ADDI   x2, x2, 292

--------------------------------------
010001a8:  	02112623    	SW     x1, 4294967248(x2)

--------------------------------------
010001ac:  	00a12623    	SW     x10, 44(x2)

--------------------------------------
010001b0:  	00100793    	ADDI   x15, x0, 12

--------------------------------------
010001b4:  	00f12c23    	SW     x15, 1(x2)

--------------------------------------
010001b8:  	00012e23    	SW     x0, 24(x2)

--------------------------------------

--------------------------------------
010001c0:  	04c0006f    	JAL    x0, 10001dc

--------------------------------------
0100020c:  	01c12703    	LW     x14, 76(x2)

--------------------------------------
01000210:  	00600793    	ADDI   x15, x0, 28

--------------------------------------
01000214:  	fae7d8e3    	BGE    x15, x14, 100021a

--------------------------------------
010001c4:  	01c12783    	LW     x15, 4294967216(x2)

--------------------------------------
010001c8:  	00279793    	SLLI   x15, x15, 0x2

--------------------------------------
010001cc:  	00c12703    	LW     x14, 2(x2)

--------------------------------------
010001d0:  	00f707b3    	ADD    x15, x14, x15

--------------------------------------
010001d4:  	0007a703    	LW     x14, 12(x15)

--------------------------------------
010001d8:  	01c12783    	LW     x15, 0(x2)

--------------------------------------
010001dc:  	00178793    	ADDI   x15, x15, 28

--------------------------------------
010001e0:  	00279793    	SLLI   x15, x15, 0x2

--------------------------------------
010001e4:  	00c12683    	LW     x13, 2(x2)

--------------------------------------
010001e8:  	00f687b3    	ADD    x15, x13, x15

--------------------------------------
010001ec:  	0007a783    	LW     x15, 12(x15)

--------------------------------------
010001f0:  	00e7d863    	BGE    x15, x14, 10001f0

--------------------------------------
01000200:  	01c12783    	LW     x15, 16(x2)

--------------------------------------
01000204:  	00178793    	ADDI   x15, x15, 28

--------------------------------------
01000208:  	00f12e23    	SW     x15, 1(x2)

--------------------------------------
0100020c:  	01c12703    	LW     x14, 28(x2)

--------------------------------------
01000210:  	00600793    	ADDI   x15, x0, 28

--------------------------------------
01000214:  	fae7d8e3    	BGE    x15, x14, 100021a

--------------------------------------
010001c4:  	01c12783    	LW     x15, 4294967216(x2)

--------------------------------------
010001c8:  	00279793    	SLLI   x15, x15, 0x2

--------------------------------------
010001cc:  	00c12703    	LW     x14, 2(x2)

--------------------------------------
010001d0:  	00f707b3    	ADD    x15, x14, x15

--------------------------------------
010001d4:  	0007a703    	LW     x14, 12(x15)

--------------------------------------
010001d8:  	01c12783    	LW     x15, 0(x2)

--------------------------------------
010001dc:  	00178793    	ADDI   x15, x15, 28

--------------------------------------
010001e0:  	00279793    	SLLI   x15, x15, 0x2

--------------------------------------
010001e4:  	00c12683    	LW     x13, 2(x2)

--------------------------------------
010001e8:  	00f687b3    	ADD    x15, x13, x15

--------------------------------------
010001ec:  	0007a783    	LW     x15, 12(x15)

--------------------------------------
010001f0:  	00e7d863    	BGE    x15, x14, 10001f0

--------------------------------------
01000200:  	01c12783    	LW     x15, 16(x2)

--------------------------------------
01000204:  	00178793    	ADDI   x15, x15, 28

--------------------------------------
01000208:  	00f12e23    	SW     x15, 1(x2)

--------------------------------------
0100020c:  	01c12703    	LW     x14, 28(x2)

--------------------------------------
01000210:  	00600793    	ADDI   x15, x0, 28

--------------------------------------
01000214:  	fae7d8e3    	BGE    x15, x14, 100021a

--------------------------------------
010001c4:  	01c12783    	LW     x15, 4294967216(x2)

--------------------------------------
010001c8:  	00279793    	SLLI   x15, x15, 0x2

--------------------------------------
010001cc:  	00c12703    	LW     x14, 2(x2)

--------------------------------------
010001d0:  	00f707b3    	ADD    x15, x14, x15

--------------------------------------
010001d4:  	0007a703    	LW     x14, 12(x15)

--------------------------------------
010001d8:  	01c12783    	LW     x15, 0(x2)

--------------------------------------
010001dc:  	00178793    	ADDI   x15, x15, 28

--------------------------------------
010001e0:  	00279793    	SLLI   x15, x15, 0x2

--------------------------------------
010001e4:  	00c12683    	LW     x13, 2(x2)

--------------------------------------
010001e8:  	00f687b3    	ADD    x15, x13, x15

--------------------------------------
010001ec:  	0007a783    	LW     x15, 12(x15)

--------------------------------------
010001f0:  	00e7d863    	BGE    x15, x14, 10001f0

--------------------------------------
01000200:  	01c12783    	LW     x15, 16(x2)

--------------------------------------
01000204:  	00178793    	ADDI   x15, x15, 28

--------------------------------------
01000208:  	00f12e23    	SW     x15, 1(x2)

--------------------------------------
0100020c:  	01c12703    	LW     x14, 28(x2)

--------------------------------------
01000210:  	00600793    	ADDI   x15, x0, 28

--------------------------------------
01000214:  	fae7d8e3    	BGE    x15, x14, 100021a

--------------------------------------
010001c4:  	01c12783    	LW     x15, 4294967216(x2)

--------------------------------------
010001c8:  	00279793    	SLLI   x15, x15, 0x2

--------------------------------------
010001cc:  	00c12703    	LW     x14, 2(x2)

--------------------------------------
010001d0:  	00f707b3    	ADD    x15, x14, x15

--------------------------------------
010001d4:  	0007a703    	LW     x14, 12(x15)

--------------------------------------
010001d8:  	01c12783    	LW     x15, 0(x2)

--------------------------------------
010001dc:  	00178793    	ADDI   x15, x15, 28

--------------------------------------
010001e0:  	00279793    	SLLI   x15, x15, 0x2

--------------------------------------
010001e4:  	00c12683    	LW     x13, 2(x2)

--------------------------------------
010001e8:  	00f687b3    	ADD    x15, x13, x15

--------------------------------------
010001ec:  	0007a783    	LW     x15, 12(x15)

--------------------------------------
010001f0:  	00e7d863    	BGE    x15, x14, 10001f0

--------------------------------------
01000200:  	01c12783    	LW     x15, 16(x2)

--------------------------------------
01000204:  	00178793    	ADDI   x15, x15, 28

--------------------------------------
01000208:  	00f12e23    	SW     x15, 1(x2)

--------------------------------------
0100020c:  	01c12703    	LW     x14, 28(x2)

--------------------------------------
01000210:  	00600793    	ADDI   x15, x0, 28

--------------------------------------
01000214:  	fae7d8e3    	BGE    x15, x14, 100021a

--------------------------------------
010001c4:  	01c12783    	LW     x15, 4294967216(x2)

--------------------------------------
010001c8:  	00279793    	SLLI   x15, x15, 0x2

--------------------------------------
010001cc:  	00c12703    	LW     x14, 2(x2)

--------------------------------------
010001d0:  	00f707b3    	ADD    x15, x14, x15

--------------------------------------
010001d4:  	0007a703    	LW     x14, 12(x15)

--------------------------------------
010001d8:  	01c12783    	LW     x15, 0(x2)

--------------------------------------
010001dc:  	00178793    	ADDI   x15, x15, 28

--------------------------------------
010001e0:  	00279793    	SLLI   x15, x15, 0x2

--------------------------------------
010001e4:  	00c12683    	LW     x13, 2(x2)

--------------------------------------
010001e8:  	00f687b3    	ADD    x15, x13, x15

--------------------------------------
010001ec:  	0007a783    	LW     x15, 12(x15)

--------------------------------------
010001f0:  	00e7d863    	BGE    x15, x14, 10001f0

--------------------------------------
01000200:  	01c12783    	LW     x15, 16(x2)

--------------------------------------
01000204:  	00178793    	ADDI   x15, x15, 28

--------------------------------------
01000208:  	00f12e23    	SW     x15, 1(x2)

--------------------------------------
0100020c:  	01c12703    	LW     x14, 28(x2)

--------------------------------------
01000210:  	00600793    	ADDI   x15, x0, 28

--------------------------------------
01000214:  	fae7d8e3    	BGE    x15, x14, 100021a

--------------------------------------
010001c4:  	01c12783    	LW     x15, 4294967216(x2)

--------------------------------------
010001c8:  	00279793    	SLLI   x15, x15, 0x2

--------------------------------------
010001cc:  	00c12703    	LW     x14, 2(x2)

--------------------------------------
010001d0:  	00f707b3    	ADD    x15, x14, x15

--------------------------------------
010001d4:  	0007a703    	LW     x14, 12(x15)

--------------------------------------
010001d8:  	01c12783    	LW     x15, 0(x2)

--------------------------------------
010001dc:  	00178793    	ADDI   x15, x15, 28

--------------------------------------
010001e0:  	00279793    	SLLI   x15, x15, 0x2

--------------------------------------
010001e4:  	00c12683    	LW     x13, 2(x2)

--------------------------------------
010001e8:  	00f687b3    	ADD    x15, x13, x15

--------------------------------------
010001ec:  	0007a783    	LW     x15, 12(x15)

--------------------------------------
010001f0:  	00e7d863    	BGE    x15, x14, 10001f0

--------------------------------------
01000200:  	01c12783    	LW     x15, 16(x2)

--------------------------------------
01000204:  	00178793    	ADDI   x15, x15, 28

--------------------------------------
01000208:  	00f12e23    	SW     x15, 1(x2)

--------------------------------------
0100020c:  	01c12703    	LW     x14, 28(x2)

--------------------------------------
01000210:  	00600793    	ADDI   x15, x0, 28

--------------------------------------
01000214:  	fae7d8e3    	BGE    x15, x14, 100021a

--------------------------------------
010001c4:  	01c12783    	LW     x15, 4294967216(x2)

--------------------------------------
010001c8:  	00279793    	SLLI   x15, x15, 0x2

--------------------------------------
010001cc:  	00c12703    	LW     x14, 2(x2)

--------------------------------------
010001d0:  	00f707b3    	ADD    x15, x14, x15

--------------------------------------
010001d4:  	0007a703    	LW     x14, 12(x15)

--------------------------------------
010001d8:  	01c12783    	LW     x15, 0(x2)

--------------------------------------
010001dc:  	00178793    	ADDI   x15, x15, 28

--------------------------------------
010001e0:  	00279793    	SLLI   x15, x15, 0x2

--------------------------------------
010001e4:  	00c12683    	LW     x13, 2(x2)

--------------------------------------
010001e8:  	00f687b3    	ADD    x15, x13, x15

--------------------------------------
010001ec:  	0007a783    	LW     x15, 12(x15)

--------------------------------------
010001f0:  	00e7d863    	BGE    x15, x14, 10001f0

--------------------------------------
01000200:  	01c12783    	LW     x15, 16(x2)

--------------------------------------
01000204:  	00178793    	ADDI   x15, x15, 28

--------------------------------------
01000208:  	00f12e23    	SW     x15, 1(x2)

--------------------------------------
0100020c:  	01c12703    	LW     x14, 28(x2)

--------------------------------------
01000210:  	00600793    	ADDI   x15, x0, 28

--------------------------------------
01000214:  	fae7d8e3    	BGE    x15, x14, 100021a

--------------------------------------
01000218:  	018000ef    	JAL    x1, 10001c8

--------------------------------------
01000230:  	00100793    	ADDI   x15, x0, 24

--------------------------------------
01000234:  	00078513    	ADDI   x10, x15, 1

--------------------------------------
01000238:  	00008067    	JALR   x0, 0(x1)

--------------------------------------
0100021c:  	00050793    	ADDI   x15, x10, 0

--------------------------------------
01000220:  	00078513    	ADDI   x10, x15, 0

--------------------------------------
01000224:  	02c12083    	LW     x1, 0(x2)

--------------------------------------
01000228:  	03010113    	ADDI   x2, x2, 44

--------------------------------------
0100022c:  	00008067    	JALR   x0, 48(x1)

--------------------------------------
01000084:  	00050793    	ADDI   x15, x10, 0

--------------------------------------
01000088:  	00078513    	ADDI   x10, x15, 0

--------------------------------------
0100008c:  	02c12083    	LW     x1, 0(x2)

--------------------------------------
01000090:  	03010113    	ADDI   x2, x2, 44

--------------------------------------
01000094:  	00008067    	JALR   x0, 48(x1)
Returning to SP at end of memory, terminating simulation. 
Contents of regfile: 
r0 = 0
r1 = 0
r2 = 1011111
r3 = 0
r4 = 0
r5 = 0
r6 = 0
r7 = 0
r8 = 0
r9 = 0
r10 = 1
r11 = 8
r12 = 78
r13 = 10110e1
r14 = 7
r15 = 1
r16 = 9
r17 = c
r18 = 0
r19 = 0
r20 = 0
r21 = 0
r22 = 0
r23 = 0
r24 = 0
r25 = 0
r26 = 0
r27 = 0
r28 = 0
r29 = 0
r30 = 0
r31 = 0
CheckVowel.x
