BubbleSort.x
WARNING: components/memory.v:44: $readmemh(temp.x): Not enough words in the file for the requested range [0:262143].
WARNING: components/memory.v:44: $readmemh(temp.x): Not enough words in the file for the requested range [0:262143].
VCD info: dumpfile testbench.vcd opened for output.

--------------------------------------
01000000:  	fd010113    	ADDI   x2, x2, x
Insns: 11111101000000010000000100010011 at PC_x=01000000
Error in ALU mux
Error in ALU mux

--------------------------------------
01000004:  	02112623    	SW     x1, 4294967248(x2)

--------------------------------------
01000008:  	010007b7    	LUI    x15, 0x2c
LUIOP

--------------------------------------
0100000c:  	2487a883    	LW     x17, 44(x15)
Insns: 00100100100001111010100010000011 at PC_x=0100000c

--------------------------------------
01000010:  	24878713    	ADDI   x14, x15, 584
Insns: 00100100100001111000011100010011 at PC_x=01000010

--------------------------------------
01000014:  	00472803    	LW     x16, 584(x14)
Insns: 00000000010001110010100000000011 at PC_x=01000014

--------------------------------------
01000018:  	24878713    	ADDI   x14, x15, 4
Insns: 00100100100001111000011100010011 at PC_x=01000018

--------------------------------------
0100001c:  	00872503    	LW     x10, 584(x14)
Insns: 00000000100001110010010100000011 at PC_x=0100001c

--------------------------------------
01000020:  	24878713    	ADDI   x14, x15, 8
Insns: 00100100100001111000011100010011 at PC_x=01000020

--------------------------------------
01000024:  	00c72583    	LW     x11, 584(x14)
Insns: 00000000110001110010010110000011 at PC_x=01000024

--------------------------------------
01000028:  	24878713    	ADDI   x14, x15, 12
Insns: 00100100100001111000011100010011 at PC_x=01000028

--------------------------------------
0100002c:  	01072603    	LW     x12, 584(x14)
Insns: 00000001000001110010011000000011 at PC_x=0100002c

--------------------------------------
01000030:  	24878713    	ADDI   x14, x15, 16
Insns: 00100100100001111000011100010011 at PC_x=01000030

--------------------------------------
01000034:  	01472683    	LW     x13, 584(x14)
Insns: 00000001010001110010011010000011 at PC_x=01000034

--------------------------------------
01000038:  	24878713    	ADDI   x14, x15, 20
Insns: 00100100100001111000011100010011 at PC_x=01000038

--------------------------------------
0100003c:  	01872703    	LW     x14, 584(x14)
Insns: 00000001100001110010011100000011 at PC_x=0100003c

--------------------------------------
01000040:  	24878793    	ADDI   x15, x15, 24
Insns: 00100100100001111000011110010011 at PC_x=01000040

--------------------------------------
01000044:  	01c7a783    	LW     x15, 584(x15)
Insns: 00000001110001111010011110000011 at PC_x=01000044

--------------------------------------
01000048:  	01112023    	SW     x17, 28(x2)

--------------------------------------
0100004c:  	01012223    	SW     x16, 0(x2)

--------------------------------------
01000050:  	00a12423    	SW     x10, 4(x2)

--------------------------------------
01000054:  	00b12623    	SW     x11, 8(x2)

--------------------------------------
01000058:  	00c12823    	SW     x12, 12(x2)

--------------------------------------
0100005c:  	00d12a23    	SW     x13, 16(x2)

--------------------------------------
01000060:  	00e12c23    	SW     x14, 20(x2)

--------------------------------------
01000064:  	00f12e23    	SW     x15, 24(x2)

--------------------------------------
01000068:  	00010793    	ADDI   x15, x2, 28
Insns: 00000000000000010000011110010011 at PC_x=01000068

--------------------------------------
0100006c:  	00800593    	ADDI   x11, x0, 0
Insns: 00000000100000000000010110010011 at PC_x=0100006c

--------------------------------------
01000070:  	00078513    	ADDI   x10, x15, 8
Insns: 00000000000001111000010100010011 at PC_x=01000070

--------------------------------------
01000074:  	024000ef    	JAL    x1, 1000074

--------------------------------------
01000098:  	fe010113    	ADDI   x2, x2, 36
Insns: 11111110000000010000000100010011 at PC_x=01000098

--------------------------------------
0100009c:  	00a12623    	SW     x10, 4294967264(x2)

--------------------------------------
010000a0:  	00b12423    	SW     x11, 12(x2)

--------------------------------------
010000a4:  	00012e23    	SW     x0, 8(x2)

--------------------------------------
010000a8:  	0e40006f    	JAL    x0, 10000c4

--------------------------------------
0100018c:  	01c12703    	LW     x14, 228(x2)
Insns: 00000001110000010010011100000011 at PC_x=0100018c

--------------------------------------
01000190:  	00812783    	LW     x15, 28(x2)
Insns: 00000000100000010010011110000011 at PC_x=01000190

--------------------------------------
01000194:  	f0f74ce3    	BLT    x14, x15, 100019c

--------------------------------------
010000ac:  	00100793    	ADDI   x15, x0, 4294967064
Insns: 00000000000100000000011110010011 at PC_x=010000ac

--------------------------------------
010000b0:  	00f12c23    	SW     x15, 1(x2)

--------------------------------------
010000b4:  	0b80006f    	JAL    x0, 10000cc

--------------------------------------
0100016c:  	00812703    	LW     x14, 184(x2)
Insns: 00000000100000010010011100000011 at PC_x=0100016c

--------------------------------------
01000170:  	01c12783    	LW     x15, 8(x2)
Insns: 00000001110000010010011110000011 at PC_x=01000170

--------------------------------------
01000174:  	40f707b3    	SUB    x15, x14, x15

--------------------------------------
01000178:  	01812703    	LW     x14, 1039(x2)
Insns: 00000001100000010010011100000011 at PC_x=01000178

--------------------------------------
0100017c:  	f2f74ee3    	BLT    x14, x15, 1000194

--------------------------------------
010000b8:  	01812703    	LW     x14, 4294967100(x2)
Insns: 00000001100000010010011100000011 at PC_x=010000b8

--------------------------------------
010000bc:  	400007b7    	LUI    x15, 0x18
LUIOP

--------------------------------------
010000c0:  	fff78793    	ADDI   x15, x15, 1024
Insns: 11111111111101111000011110010011 at PC_x=010000c0

--------------------------------------
010000c4:  	00f707b3    	ADD    x15, x14, x15

--------------------------------------
010000c8:  	00279793    	SLLI   x15, x15, 0x2
Insns: 00000000001001111001011110010011 at PC_x=010000c8

--------------------------------------
010000cc:  	00c12703    	LW     x14, 2(x2)
Insns: 00000000110000010010011100000011 at PC_x=010000cc

--------------------------------------
010000d0:  	00f707b3    	ADD    x15, x14, x15

--------------------------------------
010000d4:  	0007a703    	LW     x14, 12(x15)
Insns: 00000000000001111010011100000011 at PC_x=010000d4

--------------------------------------
010000d8:  	01812783    	LW     x15, 0(x2)
Insns: 00000001100000010010011110000011 at PC_x=010000d8

--------------------------------------
010000dc:  	00279793    	SLLI   x15, x15, 0x2
Insns: 00000000001001111001011110010011 at PC_x=010000dc

--------------------------------------
010000e0:  	00c12683    	LW     x13, 2(x2)
Insns: 00000000110000010010011010000011 at PC_x=010000e0

--------------------------------------
010000e4:  	00f687b3    	ADD    x15, x13, x15

--------------------------------------
010000e8:  	0007a783    	LW     x15, 15(x15)
Insns: 00000000000001111010011110000011 at PC_x=010000e8

--------------------------------------
010000ec:  	06e7da63    	BGE    x15, x14, 10000ec

--------------------------------------
010000f0:  	01812703    	LW     x14, 116(x2)
Insns: 00000001100000010010011100000011 at PC_x=010000f0

--------------------------------------
010000f4:  	400007b7    	LUI    x15, 0x18
LUIOP

--------------------------------------
010000f8:  	fff78793    	ADDI   x15, x15, 1024
Insns: 11111111111101111000011110010011 at PC_x=010000f8

--------------------------------------
010000fc:  	00f707b3    	ADD    x15, x14, x15

--------------------------------------
01000100:  	00279793    	SLLI   x15, x15, 0x2
Insns: 00000000001001111001011110010011 at PC_x=01000100

--------------------------------------
01000104:  	00c12703    	LW     x14, 2(x2)
Insns: 00000000110000010010011100000011 at PC_x=01000104

--------------------------------------
01000108:  	00f707b3    	ADD    x15, x14, x15

--------------------------------------
0100010c:  	0007a783    	LW     x15, 12(x15)
Insns: 00000000000001111010011110000011 at PC_x=0100010c

--------------------------------------
01000110:  	00f12a23    	SW     x15, 0(x2)

--------------------------------------
01000114:  	01812783    	LW     x15, 20(x2)
Insns: 00000001100000010010011110000011 at PC_x=01000114

--------------------------------------
01000118:  	00279793    	SLLI   x15, x15, 0x2
Insns: 00000000001001111001011110010011 at PC_x=01000118

--------------------------------------
0100011c:  	00c12703    	LW     x14, 2(x2)
Insns: 00000000110000010010011100000011 at PC_x=0100011c

--------------------------------------
01000120:  	00f70733    	ADD    x14, x14, x15

--------------------------------------
01000124:  	01812683    	LW     x13, 12(x2)
Insns: 00000001100000010010011010000011 at PC_x=01000124

--------------------------------------
01000128:  	400007b7    	LUI    x15, 0x18
LUIOP

--------------------------------------
0100012c:  	fff78793    	ADDI   x15, x15, 24
Insns: 11111111111101111000011110010011 at PC_x=0100012c

--------------------------------------
01000130:  	00f687b3    	ADD    x15, x13, x15

--------------------------------------
01000134:  	00279793    	SLLI   x15, x15, 0x2
Insns: 00000000001001111001011110010011 at PC_x=01000134

--------------------------------------
01000138:  	00c12683    	LW     x13, 2(x2)
Insns: 00000000110000010010011010000011 at PC_x=01000138

--------------------------------------
0100013c:  	00f687b3    	ADD    x15, x13, x15

--------------------------------------
01000140:  	00072703    	LW     x14, 15(x14)
Insns: 00000000000001110010011100000011 at PC_x=01000140

--------------------------------------
01000144:  	00e7a023    	SW     x14, 0(x15)

--------------------------------------
01000148:  	01812783    	LW     x15, 0(x2)
Insns: 00000001100000010010011110000011 at PC_x=01000148

--------------------------------------
0100014c:  	00279793    	SLLI   x15, x15, 0x2
Insns: 00000000001001111001011110010011 at PC_x=0100014c

--------------------------------------
01000150:  	00c12703    	LW     x14, 2(x2)
Insns: 00000000110000010010011100000011 at PC_x=01000150

--------------------------------------
01000154:  	00f707b3    	ADD    x15, x14, x15

--------------------------------------
01000158:  	01412703    	LW     x14, 15(x2)
Insns: 00000001010000010010011100000011 at PC_x=01000158

--------------------------------------
0100015c:  	00e7a023    	SW     x14, 20(x15)

--------------------------------------
01000160:  	01812783    	LW     x15, 0(x2)
Insns: 00000001100000010010011110000011 at PC_x=01000160

--------------------------------------
01000164:  	00178793    	ADDI   x15, x15, 24
Insns: 00000000000101111000011110010011 at PC_x=01000164

--------------------------------------
01000168:  	00f12c23    	SW     x15, 1(x2)

--------------------------------------
0100016c:  	00812703    	LW     x14, 24(x2)
Insns: 00000000100000010010011100000011 at PC_x=0100016c

--------------------------------------
01000170:  	01c12783    	LW     x15, 8(x2)
Insns: 00000001110000010010011110000011 at PC_x=01000170

--------------------------------------
01000174:  	40f707b3    	SUB    x15, x14, x15

--------------------------------------
01000178:  	01812703    	LW     x14, 1039(x2)
Insns: 00000001100000010010011100000011 at PC_x=01000178

--------------------------------------
0100017c:  	f2f74ee3    	BLT    x14, x15, 1000194

--------------------------------------
010000b8:  	01812703    	LW     x14, 4294967100(x2)
Insns: 00000001100000010010011100000011 at PC_x=010000b8

--------------------------------------
010000bc:  	400007b7    	LUI    x15, 0x18
LUIOP

--------------------------------------
010000c0:  	fff78793    	ADDI   x15, x15, 1024
Insns: 11111111111101111000011110010011 at PC_x=010000c0

--------------------------------------
010000c4:  	00f707b3    	ADD    x15, x14, x15

--------------------------------------
010000c8:  	00279793    	SLLI   x15, x15, 0x2
Insns: 00000000001001111001011110010011 at PC_x=010000c8

--------------------------------------
010000cc:  	00c12703    	LW     x14, 2(x2)
Insns: 00000000110000010010011100000011 at PC_x=010000cc

--------------------------------------
010000d0:  	00f707b3    	ADD    x15, x14, x15

--------------------------------------
010000d4:  	0007a703    	LW     x14, 12(x15)
Insns: 00000000000001111010011100000011 at PC_x=010000d4

--------------------------------------
010000d8:  	01812783    	LW     x15, 0(x2)
Insns: 00000001100000010010011110000011 at PC_x=010000d8

--------------------------------------
010000dc:  	00279793    	SLLI   x15, x15, 0x2
Insns: 00000000001001111001011110010011 at PC_x=010000dc

--------------------------------------
010000e0:  	00c12683    	LW     x13, 2(x2)
Insns: 00000000110000010010011010000011 at PC_x=010000e0

--------------------------------------
010000e4:  	00f687b3    	ADD    x15, x13, x15

--------------------------------------
010000e8:  	0007a783    	LW     x15, 15(x15)
Insns: 00000000000001111010011110000011 at PC_x=010000e8

--------------------------------------
010000ec:  	06e7da63    	BGE    x15, x14, 10000ec

--------------------------------------
010000f0:  	01812703    	LW     x14, 116(x2)
Insns: 00000001100000010010011100000011 at PC_x=010000f0

--------------------------------------
010000f4:  	400007b7    	LUI    x15, 0x18
LUIOP

--------------------------------------
010000f8:  	fff78793    	ADDI   x15, x15, 1024
Insns: 11111111111101111000011110010011 at PC_x=010000f8

--------------------------------------
010000fc:  	00f707b3    	ADD    x15, x14, x15

--------------------------------------
01000100:  	00279793    	SLLI   x15, x15, 0x2
Insns: 00000000001001111001011110010011 at PC_x=01000100

--------------------------------------
01000104:  	00c12703    	LW     x14, 2(x2)
Insns: 00000000110000010010011100000011 at PC_x=01000104

--------------------------------------
01000108:  	00f707b3    	ADD    x15, x14, x15

--------------------------------------
0100010c:  	0007a783    	LW     x15, 12(x15)
Insns: 00000000000001111010011110000011 at PC_x=0100010c

--------------------------------------
01000110:  	00f12a23    	SW     x15, 0(x2)

--------------------------------------
01000114:  	01812783    	LW     x15, 20(x2)
Insns: 00000001100000010010011110000011 at PC_x=01000114

--------------------------------------
01000118:  	00279793    	SLLI   x15, x15, 0x2
Insns: 00000000001001111001011110010011 at PC_x=01000118

--------------------------------------
0100011c:  	00c12703    	LW     x14, 2(x2)
Insns: 00000000110000010010011100000011 at PC_x=0100011c

--------------------------------------
01000120:  	00f70733    	ADD    x14, x14, x15

--------------------------------------
01000124:  	01812683    	LW     x13, 12(x2)
Insns: 00000001100000010010011010000011 at PC_x=01000124

--------------------------------------
01000128:  	400007b7    	LUI    x15, 0x18
LUIOP

--------------------------------------
0100012c:  	fff78793    	ADDI   x15, x15, 24
Insns: 11111111111101111000011110010011 at PC_x=0100012c

--------------------------------------
01000130:  	00f687b3    	ADD    x15, x13, x15

--------------------------------------
01000134:  	00279793    	SLLI   x15, x15, 0x2
Insns: 00000000001001111001011110010011 at PC_x=01000134

--------------------------------------
01000138:  	00c12683    	LW     x13, 2(x2)
Insns: 00000000110000010010011010000011 at PC_x=01000138

--------------------------------------
0100013c:  	00f687b3    	ADD    x15, x13, x15

--------------------------------------
01000140:  	00072703    	LW     x14, 15(x14)
Insns: 00000000000001110010011100000011 at PC_x=01000140

--------------------------------------
01000144:  	00e7a023    	SW     x14, 0(x15)

--------------------------------------
01000148:  	01812783    	LW     x15, 0(x2)
Insns: 00000001100000010010011110000011 at PC_x=01000148

--------------------------------------
0100014c:  	00279793    	SLLI   x15, x15, 0x2
Insns: 00000000001001111001011110010011 at PC_x=0100014c

--------------------------------------
01000150:  	00c12703    	LW     x14, 2(x2)
Insns: 00000000110000010010011100000011 at PC_x=01000150

--------------------------------------
01000154:  	00f707b3    	ADD    x15, x14, x15

--------------------------------------
01000158:  	01412703    	LW     x14, 15(x2)
Insns: 00000001010000010010011100000011 at PC_x=01000158

--------------------------------------
0100015c:  	00e7a023    	SW     x14, 20(x15)

--------------------------------------
01000160:  	01812783    	LW     x15, 0(x2)
Insns: 00000001100000010010011110000011 at PC_x=01000160

--------------------------------------
01000164:  	00178793    	ADDI   x15, x15, 24
Insns: 00000000000101111000011110010011 at PC_x=01000164

--------------------------------------
01000168:  	00f12c23    	SW     x15, 1(x2)

--------------------------------------
0100016c:  	00812703    	LW     x14, 24(x2)
Insns: 00000000100000010010011100000011 at PC_x=0100016c

--------------------------------------
01000170:  	01c12783    	LW     x15, 8(x2)
Insns: 00000001110000010010011110000011 at PC_x=01000170

--------------------------------------
01000174:  	40f707b3    	SUB    x15, x14, x15

--------------------------------------
01000178:  	01812703    	LW     x14, 1039(x2)
Insns: 00000001100000010010011100000011 at PC_x=01000178

--------------------------------------
0100017c:  	f2f74ee3    	BLT    x14, x15, 1000194

--------------------------------------
010000b8:  	01812703    	LW     x14, 4294967100(x2)
Insns: 00000001100000010010011100000011 at PC_x=010000b8

--------------------------------------
010000bc:  	400007b7    	LUI    x15, 0x18
LUIOP

--------------------------------------
010000c0:  	fff78793    	ADDI   x15, x15, 1024
Insns: 11111111111101111000011110010011 at PC_x=010000c0

--------------------------------------
010000c4:  	00f707b3    	ADD    x15, x14, x15

--------------------------------------
010000c8:  	00279793    	SLLI   x15, x15, 0x2
Insns: 00000000001001111001011110010011 at PC_x=010000c8

--------------------------------------
010000cc:  	00c12703    	LW     x14, 2(x2)
Insns: 00000000110000010010011100000011 at PC_x=010000cc

--------------------------------------
010000d0:  	00f707b3    	ADD    x15, x14, x15

--------------------------------------
010000d4:  	0007a703    	LW     x14, 12(x15)
Insns: 00000000000001111010011100000011 at PC_x=010000d4

--------------------------------------
010000d8:  	01812783    	LW     x15, 0(x2)
Insns: 00000001100000010010011110000011 at PC_x=010000d8

--------------------------------------
010000dc:  	00279793    	SLLI   x15, x15, 0x2
Insns: 00000000001001111001011110010011 at PC_x=010000dc

--------------------------------------
010000e0:  	00c12683    	LW     x13, 2(x2)
Insns: 00000000110000010010011010000011 at PC_x=010000e0

--------------------------------------
010000e4:  	00f687b3    	ADD    x15, x13, x15

--------------------------------------
010000e8:  	0007a783    	LW     x15, 15(x15)
Insns: 00000000000001111010011110000011 at PC_x=010000e8

--------------------------------------
010000ec:  	06e7da63    	BGE    x15, x14, 10000ec

--------------------------------------
01000160:  	01812783    	LW     x15, 116(x2)
Insns: 00000001100000010010011110000011 at PC_x=01000160

--------------------------------------
01000164:  	00178793    	ADDI   x15, x15, 24
Insns: 00000000000101111000011110010011 at PC_x=01000164

--------------------------------------
01000168:  	00f12c23    	SW     x15, 1(x2)

--------------------------------------
0100016c:  	00812703    	LW     x14, 24(x2)
Insns: 00000000100000010010011100000011 at PC_x=0100016c

--------------------------------------
01000170:  	01c12783    	LW     x15, 8(x2)
Insns: 00000001110000010010011110000011 at PC_x=01000170

--------------------------------------
01000174:  	40f707b3    	SUB    x15, x14, x15

--------------------------------------
01000178:  	01812703    	LW     x14, 1039(x2)
Insns: 00000001100000010010011100000011 at PC_x=01000178

--------------------------------------
0100017c:  	f2f74ee3    	BLT    x14, x15, 1000194

--------------------------------------
010000b8:  	01812703    	LW     x14, 4294967100(x2)
Insns: 00000001100000010010011100000011 at PC_x=010000b8

--------------------------------------
010000bc:  	400007b7    	LUI    x15, 0x18
LUIOP

--------------------------------------
010000c0:  	fff78793    	ADDI   x15, x15, 1024
Insns: 11111111111101111000011110010011 at PC_x=010000c0

--------------------------------------
010000c4:  	00f707b3    	ADD    x15, x14, x15

--------------------------------------
010000c8:  	00279793    	SLLI   x15, x15, 0x2
Insns: 00000000001001111001011110010011 at PC_x=010000c8

--------------------------------------
010000cc:  	00c12703    	LW     x14, 2(x2)
Insns: 00000000110000010010011100000011 at PC_x=010000cc

--------------------------------------
010000d0:  	00f707b3    	ADD    x15, x14, x15

--------------------------------------
010000d4:  	0007a703    	LW     x14, 12(x15)
Insns: 00000000000001111010011100000011 at PC_x=010000d4

--------------------------------------
010000d8:  	01812783    	LW     x15, 0(x2)
Insns: 00000001100000010010011110000011 at PC_x=010000d8

--------------------------------------
010000dc:  	00279793    	SLLI   x15, x15, 0x2
Insns: 00000000001001111001011110010011 at PC_x=010000dc

--------------------------------------
010000e0:  	00c12683    	LW     x13, 2(x2)
Insns: 00000000110000010010011010000011 at PC_x=010000e0

--------------------------------------
010000e4:  	00f687b3    	ADD    x15, x13, x15

--------------------------------------
010000e8:  	0007a783    	LW     x15, 15(x15)
Insns: 00000000000001111010011110000011 at PC_x=010000e8

--------------------------------------
010000ec:  	06e7da63    	BGE    x15, x14, 10000ec

--------------------------------------
01000160:  	01812783    	LW     x15, 116(x2)
Insns: 00000001100000010010011110000011 at PC_x=01000160

--------------------------------------
01000164:  	00178793    	ADDI   x15, x15, 24
Insns: 00000000000101111000011110010011 at PC_x=01000164

--------------------------------------
01000168:  	00f12c23    	SW     x15, 1(x2)

--------------------------------------
0100016c:  	00812703    	LW     x14, 24(x2)
Insns: 00000000100000010010011100000011 at PC_x=0100016c

--------------------------------------
01000170:  	01c12783    	LW     x15, 8(x2)
Insns: 00000001110000010010011110000011 at PC_x=01000170

--------------------------------------
01000174:  	40f707b3    	SUB    x15, x14, x15

--------------------------------------
01000178:  	01812703    	LW     x14, 1039(x2)
Insns: 00000001100000010010011100000011 at PC_x=01000178

--------------------------------------
0100017c:  	f2f74ee3    	BLT    x14, x15, 1000194

--------------------------------------
010000b8:  	01812703    	LW     x14, 4294967100(x2)
Insns: 00000001100000010010011100000011 at PC_x=010000b8

--------------------------------------
010000bc:  	400007b7    	LUI    x15, 0x18
LUIOP

--------------------------------------
010000c0:  	fff78793    	ADDI   x15, x15, 1024
Insns: 11111111111101111000011110010011 at PC_x=010000c0

--------------------------------------
010000c4:  	00f707b3    	ADD    x15, x14, x15

--------------------------------------
010000c8:  	00279793    	SLLI   x15, x15, 0x2
Insns: 00000000001001111001011110010011 at PC_x=010000c8

--------------------------------------
010000cc:  	00c12703    	LW     x14, 2(x2)
Insns: 00000000110000010010011100000011 at PC_x=010000cc

--------------------------------------
010000d0:  	00f707b3    	ADD    x15, x14, x15

--------------------------------------
010000d4:  	0007a703    	LW     x14, 12(x15)
Insns: 00000000000001111010011100000011 at PC_x=010000d4

--------------------------------------
010000d8:  	01812783    	LW     x15, 0(x2)
Insns: 00000001100000010010011110000011 at PC_x=010000d8

--------------------------------------
010000dc:  	00279793    	SLLI   x15, x15, 0x2
Insns: 00000000001001111001011110010011 at PC_x=010000dc

--------------------------------------
010000e0:  	00c12683    	LW     x13, 2(x2)
Insns: 00000000110000010010011010000011 at PC_x=010000e0

--------------------------------------
010000e4:  	00f687b3    	ADD    x15, x13, x15

--------------------------------------
010000e8:  	0007a783    	LW     x15, 15(x15)
Insns: 00000000000001111010011110000011 at PC_x=010000e8

--------------------------------------
010000ec:  	06e7da63    	BGE    x15, x14, 10000ec

--------------------------------------
010000f0:  	01812703    	LW     x14, 116(x2)
Insns: 00000001100000010010011100000011 at PC_x=010000f0

--------------------------------------
010000f4:  	400007b7    	LUI    x15, 0x18
LUIOP

--------------------------------------
010000f8:  	fff78793    	ADDI   x15, x15, 1024
Insns: 11111111111101111000011110010011 at PC_x=010000f8

--------------------------------------
010000fc:  	00f707b3    	ADD    x15, x14, x15

--------------------------------------
01000100:  	00279793    	SLLI   x15, x15, 0x2
Insns: 00000000001001111001011110010011 at PC_x=01000100

--------------------------------------
01000104:  	00c12703    	LW     x14, 2(x2)
Insns: 00000000110000010010011100000011 at PC_x=01000104

--------------------------------------
01000108:  	00f707b3    	ADD    x15, x14, x15

--------------------------------------
0100010c:  	0007a783    	LW     x15, 12(x15)
Insns: 00000000000001111010011110000011 at PC_x=0100010c

--------------------------------------
01000110:  	00f12a23    	SW     x15, 0(x2)

--------------------------------------
01000114:  	01812783    	LW     x15, 20(x2)
Insns: 00000001100000010010011110000011 at PC_x=01000114

--------------------------------------
01000118:  	00279793    	SLLI   x15, x15, 0x2
Insns: 00000000001001111001011110010011 at PC_x=01000118

--------------------------------------
0100011c:  	00c12703    	LW     x14, 2(x2)
Insns: 00000000110000010010011100000011 at PC_x=0100011c

--------------------------------------
01000120:  	00f70733    	ADD    x14, x14, x15

--------------------------------------
01000124:  	01812683    	LW     x13, 12(x2)
Insns: 00000001100000010010011010000011 at PC_x=01000124

--------------------------------------
01000128:  	400007b7    	LUI    x15, 0x18
LUIOP

--------------------------------------
0100012c:  	fff78793    	ADDI   x15, x15, 24
Insns: 11111111111101111000011110010011 at PC_x=0100012c

--------------------------------------
01000130:  	00f687b3    	ADD    x15, x13, x15

--------------------------------------
01000134:  	00279793    	SLLI   x15, x15, 0x2
Insns: 00000000001001111001011110010011 at PC_x=01000134

--------------------------------------
01000138:  	00c12683    	LW     x13, 2(x2)
Insns: 00000000110000010010011010000011 at PC_x=01000138

--------------------------------------
0100013c:  	00f687b3    	ADD    x15, x13, x15

--------------------------------------
01000140:  	00072703    	LW     x14, 15(x14)
Insns: 00000000000001110010011100000011 at PC_x=01000140

--------------------------------------
01000144:  	00e7a023    	SW     x14, 0(x15)

--------------------------------------
01000148:  	01812783    	LW     x15, 0(x2)
Insns: 00000001100000010010011110000011 at PC_x=01000148

--------------------------------------
0100014c:  	00279793    	SLLI   x15, x15, 0x2
Insns: 00000000001001111001011110010011 at PC_x=0100014c

--------------------------------------
01000150:  	00c12703    	LW     x14, 2(x2)
Insns: 00000000110000010010011100000011 at PC_x=01000150

--------------------------------------
01000154:  	00f707b3    	ADD    x15, x14, x15

--------------------------------------
01000158:  	01412703    	LW     x14, 15(x2)
Insns: 00000001010000010010011100000011 at PC_x=01000158

--------------------------------------
0100015c:  	00e7a023    	SW     x14, 20(x15)

--------------------------------------
01000160:  	01812783    	LW     x15, 0(x2)
Insns: 00000001100000010010011110000011 at PC_x=01000160

--------------------------------------
01000164:  	00178793    	ADDI   x15, x15, 24
Insns: 00000000000101111000011110010011 at PC_x=01000164

--------------------------------------
01000168:  	00f12c23    	SW     x15, 1(x2)

--------------------------------------
0100016c:  	00812703    	LW     x14, 24(x2)
Insns: 00000000100000010010011100000011 at PC_x=0100016c

--------------------------------------
01000170:  	01c12783    	LW     x15, 8(x2)
Insns: 00000001110000010010011110000011 at PC_x=01000170

--------------------------------------
01000174:  	40f707b3    	SUB    x15, x14, x15

--------------------------------------
01000178:  	01812703    	LW     x14, 1039(x2)
Insns: 00000001100000010010011100000011 at PC_x=01000178

--------------------------------------
0100017c:  	f2f74ee3    	BLT    x14, x15, 1000194

--------------------------------------
010000b8:  	01812703    	LW     x14, 4294967100(x2)
Insns: 00000001100000010010011100000011 at PC_x=010000b8

--------------------------------------
010000bc:  	400007b7    	LUI    x15, 0x18
LUIOP

--------------------------------------
010000c0:  	fff78793    	ADDI   x15, x15, 1024
Insns: 11111111111101111000011110010011 at PC_x=010000c0

--------------------------------------
010000c4:  	00f707b3    	ADD    x15, x14, x15

--------------------------------------
010000c8:  	00279793    	SLLI   x15, x15, 0x2
Insns: 00000000001001111001011110010011 at PC_x=010000c8

--------------------------------------
010000cc:  	00c12703    	LW     x14, 2(x2)
Insns: 00000000110000010010011100000011 at PC_x=010000cc

--------------------------------------
010000d0:  	00f707b3    	ADD    x15, x14, x15

--------------------------------------
010000d4:  	0007a703    	LW     x14, 12(x15)
Insns: 00000000000001111010011100000011 at PC_x=010000d4

--------------------------------------
010000d8:  	01812783    	LW     x15, 0(x2)
Insns: 00000001100000010010011110000011 at PC_x=010000d8

--------------------------------------
010000dc:  	00279793    	SLLI   x15, x15, 0x2
Insns: 00000000001001111001011110010011 at PC_x=010000dc

--------------------------------------
010000e0:  	00c12683    	LW     x13, 2(x2)
Insns: 00000000110000010010011010000011 at PC_x=010000e0

--------------------------------------
010000e4:  	00f687b3    	ADD    x15, x13, x15

--------------------------------------
010000e8:  	0007a783    	LW     x15, 15(x15)
Insns: 00000000000001111010011110000011 at PC_x=010000e8

--------------------------------------
010000ec:  	06e7da63    	BGE    x15, x14, 10000ec

--------------------------------------
010000f0:  	01812703    	LW     x14, 116(x2)
Insns: 00000001100000010010011100000011 at PC_x=010000f0

--------------------------------------
010000f4:  	400007b7    	LUI    x15, 0x18
LUIOP

--------------------------------------
010000f8:  	fff78793    	ADDI   x15, x15, 1024
Insns: 11111111111101111000011110010011 at PC_x=010000f8

--------------------------------------
010000fc:  	00f707b3    	ADD    x15, x14, x15

--------------------------------------
01000100:  	00279793    	SLLI   x15, x15, 0x2
Insns: 00000000001001111001011110010011 at PC_x=01000100

--------------------------------------
01000104:  	00c12703    	LW     x14, 2(x2)
Insns: 00000000110000010010011100000011 at PC_x=01000104

--------------------------------------
01000108:  	00f707b3    	ADD    x15, x14, x15

--------------------------------------
0100010c:  	0007a783    	LW     x15, 12(x15)
Insns: 00000000000001111010011110000011 at PC_x=0100010c

--------------------------------------
01000110:  	00f12a23    	SW     x15, 0(x2)

--------------------------------------
01000114:  	01812783    	LW     x15, 20(x2)
Insns: 00000001100000010010011110000011 at PC_x=01000114

--------------------------------------
01000118:  	00279793    	SLLI   x15, x15, 0x2
Insns: 00000000001001111001011110010011 at PC_x=01000118

--------------------------------------
0100011c:  	00c12703    	LW     x14, 2(x2)
Insns: 00000000110000010010011100000011 at PC_x=0100011c

--------------------------------------
01000120:  	00f70733    	ADD    x14, x14, x15

--------------------------------------
01000124:  	01812683    	LW     x13, 12(x2)
Insns: 00000001100000010010011010000011 at PC_x=01000124

--------------------------------------
01000128:  	400007b7    	LUI    x15, 0x18
LUIOP

--------------------------------------
0100012c:  	fff78793    	ADDI   x15, x15, 24
Insns: 11111111111101111000011110010011 at PC_x=0100012c

--------------------------------------
01000130:  	00f687b3    	ADD    x15, x13, x15

--------------------------------------
01000134:  	00279793    	SLLI   x15, x15, 0x2
Insns: 00000000001001111001011110010011 at PC_x=01000134

--------------------------------------
01000138:  	00c12683    	LW     x13, 2(x2)
Insns: 00000000110000010010011010000011 at PC_x=01000138

--------------------------------------
0100013c:  	00f687b3    	ADD    x15, x13, x15

--------------------------------------
01000140:  	00072703    	LW     x14, 15(x14)
Insns: 00000000000001110010011100000011 at PC_x=01000140

--------------------------------------
01000144:  	00e7a023    	SW     x14, 0(x15)

--------------------------------------
01000148:  	01812783    	LW     x15, 0(x2)
Insns: 00000001100000010010011110000011 at PC_x=01000148

--------------------------------------
0100014c:  	00279793    	SLLI   x15, x15, 0x2
Insns: 00000000001001111001011110010011 at PC_x=0100014c

--------------------------------------
01000150:  	00c12703    	LW     x14, 2(x2)
Insns: 00000000110000010010011100000011 at PC_x=01000150

--------------------------------------
01000154:  	00f707b3    	ADD    x15, x14, x15

--------------------------------------
01000158:  	01412703    	LW     x14, 15(x2)
Insns: 00000001010000010010011100000011 at PC_x=01000158

--------------------------------------
0100015c:  	00e7a023    	SW     x14, 20(x15)

--------------------------------------
01000160:  	01812783    	LW     x15, 0(x2)
Insns: 00000001100000010010011110000011 at PC_x=01000160

--------------------------------------
01000164:  	00178793    	ADDI   x15, x15, 24
Insns: 00000000000101111000011110010011 at PC_x=01000164

--------------------------------------
01000168:  	00f12c23    	SW     x15, 1(x2)

--------------------------------------
0100016c:  	00812703    	LW     x14, 24(x2)
Insns: 00000000100000010010011100000011 at PC_x=0100016c

--------------------------------------
01000170:  	01c12783    	LW     x15, 8(x2)
Insns: 00000001110000010010011110000011 at PC_x=01000170

--------------------------------------
01000174:  	40f707b3    	SUB    x15, x14, x15

--------------------------------------
01000178:  	01812703    	LW     x14, 1039(x2)
Insns: 00000001100000010010011100000011 at PC_x=01000178

--------------------------------------
0100017c:  	f2f74ee3    	BLT    x14, x15, 1000194

--------------------------------------
010000b8:  	01812703    	LW     x14, 4294967100(x2)
Insns: 00000001100000010010011100000011 at PC_x=010000b8

--------------------------------------
010000bc:  	400007b7    	LUI    x15, 0x18
LUIOP

--------------------------------------
010000c0:  	fff78793    	ADDI   x15, x15, 1024
Insns: 11111111111101111000011110010011 at PC_x=010000c0

--------------------------------------
010000c4:  	00f707b3    	ADD    x15, x14, x15

--------------------------------------
010000c8:  	00279793    	SLLI   x15, x15, 0x2
Insns: 00000000001001111001011110010011 at PC_x=010000c8

--------------------------------------
010000cc:  	00c12703    	LW     x14, 2(x2)
Insns: 00000000110000010010011100000011 at PC_x=010000cc

--------------------------------------
010000d0:  	00f707b3    	ADD    x15, x14, x15

--------------------------------------
010000d4:  	0007a703    	LW     x14, 12(x15)
Insns: 00000000000001111010011100000011 at PC_x=010000d4

--------------------------------------
010000d8:  	01812783    	LW     x15, 0(x2)
Insns: 00000001100000010010011110000011 at PC_x=010000d8

--------------------------------------
010000dc:  	00279793    	SLLI   x15, x15, 0x2
Insns: 00000000001001111001011110010011 at PC_x=010000dc

--------------------------------------
010000e0:  	00c12683    	LW     x13, 2(x2)
Insns: 00000000110000010010011010000011 at PC_x=010000e0

--------------------------------------
010000e4:  	00f687b3    	ADD    x15, x13, x15

--------------------------------------
010000e8:  	0007a783    	LW     x15, 15(x15)
Insns: 00000000000001111010011110000011 at PC_x=010000e8

--------------------------------------
010000ec:  	06e7da63    	BGE    x15, x14, 10000ec

--------------------------------------
010000f0:  	01812703    	LW     x14, 116(x2)
Insns: 00000001100000010010011100000011 at PC_x=010000f0

--------------------------------------
010000f4:  	400007b7    	LUI    x15, 0x18
LUIOP

--------------------------------------
010000f8:  	fff78793    	ADDI   x15, x15, 1024
Insns: 11111111111101111000011110010011 at PC_x=010000f8

--------------------------------------
010000fc:  	00f707b3    	ADD    x15, x14, x15

--------------------------------------
01000100:  	00279793    	SLLI   x15, x15, 0x2
Insns: 00000000001001111001011110010011 at PC_x=01000100

--------------------------------------
01000104:  	00c12703    	LW     x14, 2(x2)
Insns: 00000000110000010010011100000011 at PC_x=01000104

--------------------------------------
01000108:  	00f707b3    	ADD    x15, x14, x15

--------------------------------------
0100010c:  	0007a783    	LW     x15, 12(x15)
Insns: 00000000000001111010011110000011 at PC_x=0100010c

--------------------------------------
01000110:  	00f12a23    	SW     x15, 0(x2)

--------------------------------------
01000114:  	01812783    	LW     x15, 20(x2)
Insns: 00000001100000010010011110000011 at PC_x=01000114

--------------------------------------
01000118:  	00279793    	SLLI   x15, x15, 0x2
Insns: 00000000001001111001011110010011 at PC_x=01000118

--------------------------------------
0100011c:  	00c12703    	LW     x14, 2(x2)
Insns: 00000000110000010010011100000011 at PC_x=0100011c

--------------------------------------
01000120:  	00f70733    	ADD    x14, x14, x15

--------------------------------------
01000124:  	01812683    	LW     x13, 12(x2)
Insns: 00000001100000010010011010000011 at PC_x=01000124

--------------------------------------
01000128:  	400007b7    	LUI    x15, 0x18
LUIOP

--------------------------------------
0100012c:  	fff78793    	ADDI   x15, x15, 24
Insns: 11111111111101111000011110010011 at PC_x=0100012c

--------------------------------------
01000130:  	00f687b3    	ADD    x15, x13, x15

--------------------------------------
01000134:  	00279793    	SLLI   x15, x15, 0x2
Insns: 00000000001001111001011110010011 at PC_x=01000134

--------------------------------------
01000138:  	00c12683    	LW     x13, 2(x2)
Insns: 00000000110000010010011010000011 at PC_x=01000138

--------------------------------------
0100013c:  	00f687b3    	ADD    x15, x13, x15

--------------------------------------
01000140:  	00072703    	LW     x14, 15(x14)
Insns: 00000000000001110010011100000011 at PC_x=01000140

--------------------------------------
01000144:  	00e7a023    	SW     x14, 0(x15)

--------------------------------------
01000148:  	01812783    	LW     x15, 0(x2)
Insns: 00000001100000010010011110000011 at PC_x=01000148

--------------------------------------
0100014c:  	00279793    	SLLI   x15, x15, 0x2
Insns: 00000000001001111001011110010011 at PC_x=0100014c

--------------------------------------
01000150:  	00c12703    	LW     x14, 2(x2)
Insns: 00000000110000010010011100000011 at PC_x=01000150

--------------------------------------
01000154:  	00f707b3    	ADD    x15, x14, x15

--------------------------------------
01000158:  	01412703    	LW     x14, 15(x2)
Insns: 00000001010000010010011100000011 at PC_x=01000158

--------------------------------------
0100015c:  	00e7a023    	SW     x14, 20(x15)

--------------------------------------
01000160:  	01812783    	LW     x15, 0(x2)
Insns: 00000001100000010010011110000011 at PC_x=01000160

--------------------------------------
01000164:  	00178793    	ADDI   x15, x15, 24
Insns: 00000000000101111000011110010011 at PC_x=01000164

--------------------------------------
01000168:  	00f12c23    	SW     x15, 1(x2)

--------------------------------------
0100016c:  	00812703    	LW     x14, 24(x2)
Insns: 00000000100000010010011100000011 at PC_x=0100016c

--------------------------------------
01000170:  	01c12783    	LW     x15, 8(x2)
Insns: 00000001110000010010011110000011 at PC_x=01000170

--------------------------------------
01000174:  	40f707b3    	SUB    x15, x14, x15

--------------------------------------
01000178:  	01812703    	LW     x14, 1039(x2)
Insns: 00000001100000010010011100000011 at PC_x=01000178

--------------------------------------
0100017c:  	f2f74ee3    	BLT    x14, x15, 1000194

--------------------------------------
01000180:  	01c12783    	LW     x15, 4294967100(x2)
Insns: 00000001110000010010011110000011 at PC_x=01000180

--------------------------------------
01000184:  	00178793    	ADDI   x15, x15, 28
Insns: 00000000000101111000011110010011 at PC_x=01000184

--------------------------------------
01000188:  	00f12e23    	SW     x15, 1(x2)

--------------------------------------
0100018c:  	01c12703    	LW     x14, 28(x2)
Insns: 00000001110000010010011100000011 at PC_x=0100018c

--------------------------------------
01000190:  	00812783    	LW     x15, 28(x2)
Insns: 00000000100000010010011110000011 at PC_x=01000190

--------------------------------------
01000194:  	f0f74ce3    	BLT    x14, x15, 100019c

--------------------------------------
010000ac:  	00100793    	ADDI   x15, x0, 4294967064
Insns: 00000000000100000000011110010011 at PC_x=010000ac

--------------------------------------
010000b0:  	00f12c23    	SW     x15, 1(x2)

--------------------------------------
010000b4:  	0b80006f    	JAL    x0, 10000cc

--------------------------------------
0100016c:  	00812703    	LW     x14, 184(x2)
Insns: 00000000100000010010011100000011 at PC_x=0100016c

--------------------------------------
01000170:  	01c12783    	LW     x15, 8(x2)
Insns: 00000001110000010010011110000011 at PC_x=01000170

--------------------------------------
01000174:  	40f707b3    	SUB    x15, x14, x15

--------------------------------------
01000178:  	01812703    	LW     x14, 1039(x2)
Insns: 00000001100000010010011100000011 at PC_x=01000178

--------------------------------------
0100017c:  	f2f74ee3    	BLT    x14, x15, 1000194

--------------------------------------
010000b8:  	01812703    	LW     x14, 4294967100(x2)
Insns: 00000001100000010010011100000011 at PC_x=010000b8

--------------------------------------
010000bc:  	400007b7    	LUI    x15, 0x18
LUIOP

--------------------------------------
010000c0:  	fff78793    	ADDI   x15, x15, 1024
Insns: 11111111111101111000011110010011 at PC_x=010000c0

--------------------------------------
010000c4:  	00f707b3    	ADD    x15, x14, x15

--------------------------------------
010000c8:  	00279793    	SLLI   x15, x15, 0x2
Insns: 00000000001001111001011110010011 at PC_x=010000c8

--------------------------------------
010000cc:  	00c12703    	LW     x14, 2(x2)
Insns: 00000000110000010010011100000011 at PC_x=010000cc

--------------------------------------
010000d0:  	00f707b3    	ADD    x15, x14, x15

--------------------------------------
010000d4:  	0007a703    	LW     x14, 12(x15)
Insns: 00000000000001111010011100000011 at PC_x=010000d4

--------------------------------------
010000d8:  	01812783    	LW     x15, 0(x2)
Insns: 00000001100000010010011110000011 at PC_x=010000d8

--------------------------------------
010000dc:  	00279793    	SLLI   x15, x15, 0x2
Insns: 00000000001001111001011110010011 at PC_x=010000dc

--------------------------------------
010000e0:  	00c12683    	LW     x13, 2(x2)
Insns: 00000000110000010010011010000011 at PC_x=010000e0

--------------------------------------
010000e4:  	00f687b3    	ADD    x15, x13, x15

--------------------------------------
010000e8:  	0007a783    	LW     x15, 15(x15)
Insns: 00000000000001111010011110000011 at PC_x=010000e8

--------------------------------------
010000ec:  	06e7da63    	BGE    x15, x14, 10000ec

--------------------------------------
010000f0:  	01812703    	LW     x14, 116(x2)
Insns: 00000001100000010010011100000011 at PC_x=010000f0

--------------------------------------
010000f4:  	400007b7    	LUI    x15, 0x18
LUIOP

--------------------------------------
010000f8:  	fff78793    	ADDI   x15, x15, 1024
Insns: 11111111111101111000011110010011 at PC_x=010000f8

--------------------------------------
010000fc:  	00f707b3    	ADD    x15, x14, x15

--------------------------------------
01000100:  	00279793    	SLLI   x15, x15, 0x2
Insns: 00000000001001111001011110010011 at PC_x=01000100

--------------------------------------
01000104:  	00c12703    	LW     x14, 2(x2)
Insns: 00000000110000010010011100000011 at PC_x=01000104

--------------------------------------
01000108:  	00f707b3    	ADD    x15, x14, x15

--------------------------------------
0100010c:  	0007a783    	LW     x15, 12(x15)
Insns: 00000000000001111010011110000011 at PC_x=0100010c

--------------------------------------
01000110:  	00f12a23    	SW     x15, 0(x2)

--------------------------------------
01000114:  	01812783    	LW     x15, 20(x2)
Insns: 00000001100000010010011110000011 at PC_x=01000114

--------------------------------------
01000118:  	00279793    	SLLI   x15, x15, 0x2
Insns: 00000000001001111001011110010011 at PC_x=01000118

--------------------------------------
0100011c:  	00c12703    	LW     x14, 2(x2)
Insns: 00000000110000010010011100000011 at PC_x=0100011c

--------------------------------------
01000120:  	00f70733    	ADD    x14, x14, x15

--------------------------------------
01000124:  	01812683    	LW     x13, 12(x2)
Insns: 00000001100000010010011010000011 at PC_x=01000124

--------------------------------------
01000128:  	400007b7    	LUI    x15, 0x18
LUIOP

--------------------------------------
0100012c:  	fff78793    	ADDI   x15, x15, 24
Insns: 11111111111101111000011110010011 at PC_x=0100012c

--------------------------------------
01000130:  	00f687b3    	ADD    x15, x13, x15

--------------------------------------
01000134:  	00279793    	SLLI   x15, x15, 0x2
Insns: 00000000001001111001011110010011 at PC_x=01000134

--------------------------------------
01000138:  	00c12683    	LW     x13, 2(x2)
Insns: 00000000110000010010011010000011 at PC_x=01000138

--------------------------------------
0100013c:  	00f687b3    	ADD    x15, x13, x15

--------------------------------------
01000140:  	00072703    	LW     x14, 15(x14)
Insns: 00000000000001110010011100000011 at PC_x=01000140

--------------------------------------
01000144:  	00e7a023    	SW     x14, 0(x15)

--------------------------------------
01000148:  	01812783    	LW     x15, 0(x2)
Insns: 00000001100000010010011110000011 at PC_x=01000148

--------------------------------------
0100014c:  	00279793    	SLLI   x15, x15, 0x2
Insns: 00000000001001111001011110010011 at PC_x=0100014c

--------------------------------------
01000150:  	00c12703    	LW     x14, 2(x2)
Insns: 00000000110000010010011100000011 at PC_x=01000150

--------------------------------------
01000154:  	00f707b3    	ADD    x15, x14, x15

--------------------------------------
01000158:  	01412703    	LW     x14, 15(x2)
Insns: 00000001010000010010011100000011 at PC_x=01000158

--------------------------------------
0100015c:  	00e7a023    	SW     x14, 20(x15)

--------------------------------------
01000160:  	01812783    	LW     x15, 0(x2)
Insns: 00000001100000010010011110000011 at PC_x=01000160

--------------------------------------
01000164:  	00178793    	ADDI   x15, x15, 24
Insns: 00000000000101111000011110010011 at PC_x=01000164

--------------------------------------
01000168:  	00f12c23    	SW     x15, 1(x2)

--------------------------------------
0100016c:  	00812703    	LW     x14, 24(x2)
Insns: 00000000100000010010011100000011 at PC_x=0100016c

--------------------------------------
01000170:  	01c12783    	LW     x15, 8(x2)
Insns: 00000001110000010010011110000011 at PC_x=01000170

--------------------------------------
01000174:  	40f707b3    	SUB    x15, x14, x15

--------------------------------------
01000178:  	01812703    	LW     x14, 1039(x2)
Insns: 00000001100000010010011100000011 at PC_x=01000178

--------------------------------------
0100017c:  	f2f74ee3    	BLT    x14, x15, 1000194

--------------------------------------
010000b8:  	01812703    	LW     x14, 4294967100(x2)
Insns: 00000001100000010010011100000011 at PC_x=010000b8

--------------------------------------
010000bc:  	400007b7    	LUI    x15, 0x18
LUIOP

--------------------------------------
010000c0:  	fff78793    	ADDI   x15, x15, 1024
Insns: 11111111111101111000011110010011 at PC_x=010000c0

--------------------------------------
010000c4:  	00f707b3    	ADD    x15, x14, x15

--------------------------------------
010000c8:  	00279793    	SLLI   x15, x15, 0x2
Insns: 00000000001001111001011110010011 at PC_x=010000c8

--------------------------------------
010000cc:  	00c12703    	LW     x14, 2(x2)
Insns: 00000000110000010010011100000011 at PC_x=010000cc

--------------------------------------
010000d0:  	00f707b3    	ADD    x15, x14, x15

--------------------------------------
010000d4:  	0007a703    	LW     x14, 12(x15)
Insns: 00000000000001111010011100000011 at PC_x=010000d4

--------------------------------------
010000d8:  	01812783    	LW     x15, 0(x2)
Insns: 00000001100000010010011110000011 at PC_x=010000d8

--------------------------------------
010000dc:  	00279793    	SLLI   x15, x15, 0x2
Insns: 00000000001001111001011110010011 at PC_x=010000dc

--------------------------------------
010000e0:  	00c12683    	LW     x13, 2(x2)
Insns: 00000000110000010010011010000011 at PC_x=010000e0

--------------------------------------
010000e4:  	00f687b3    	ADD    x15, x13, x15

--------------------------------------
010000e8:  	0007a783    	LW     x15, 15(x15)
Insns: 00000000000001111010011110000011 at PC_x=010000e8

--------------------------------------
010000ec:  	06e7da63    	BGE    x15, x14, 10000ec

--------------------------------------
01000160:  	01812783    	LW     x15, 116(x2)
Insns: 00000001100000010010011110000011 at PC_x=01000160

--------------------------------------
01000164:  	00178793    	ADDI   x15, x15, 24
Insns: 00000000000101111000011110010011 at PC_x=01000164

--------------------------------------
01000168:  	00f12c23    	SW     x15, 1(x2)

--------------------------------------
0100016c:  	00812703    	LW     x14, 24(x2)
Insns: 00000000100000010010011100000011 at PC_x=0100016c

--------------------------------------
01000170:  	01c12783    	LW     x15, 8(x2)
Insns: 00000001110000010010011110000011 at PC_x=01000170

--------------------------------------
01000174:  	40f707b3    	SUB    x15, x14, x15

--------------------------------------
01000178:  	01812703    	LW     x14, 1039(x2)
Insns: 00000001100000010010011100000011 at PC_x=01000178

--------------------------------------
0100017c:  	f2f74ee3    	BLT    x14, x15, 1000194

--------------------------------------
010000b8:  	01812703    	LW     x14, 4294967100(x2)
Insns: 00000001100000010010011100000011 at PC_x=010000b8

--------------------------------------
010000bc:  	400007b7    	LUI    x15, 0x18
LUIOP

--------------------------------------
010000c0:  	fff78793    	ADDI   x15, x15, 1024
Insns: 11111111111101111000011110010011 at PC_x=010000c0

--------------------------------------
010000c4:  	00f707b3    	ADD    x15, x14, x15

--------------------------------------
010000c8:  	00279793    	SLLI   x15, x15, 0x2
Insns: 00000000001001111001011110010011 at PC_x=010000c8

--------------------------------------
010000cc:  	00c12703    	LW     x14, 2(x2)
Insns: 00000000110000010010011100000011 at PC_x=010000cc

--------------------------------------
010000d0:  	00f707b3    	ADD    x15, x14, x15

--------------------------------------
010000d4:  	0007a703    	LW     x14, 12(x15)
Insns: 00000000000001111010011100000011 at PC_x=010000d4

--------------------------------------
010000d8:  	01812783    	LW     x15, 0(x2)
Insns: 00000001100000010010011110000011 at PC_x=010000d8

--------------------------------------
010000dc:  	00279793    	SLLI   x15, x15, 0x2
Insns: 00000000001001111001011110010011 at PC_x=010000dc

--------------------------------------
010000e0:  	00c12683    	LW     x13, 2(x2)
Insns: 00000000110000010010011010000011 at PC_x=010000e0

--------------------------------------
010000e4:  	00f687b3    	ADD    x15, x13, x15

--------------------------------------
010000e8:  	0007a783    	LW     x15, 15(x15)
Insns: 00000000000001111010011110000011 at PC_x=010000e8

--------------------------------------
010000ec:  	06e7da63    	BGE    x15, x14, 10000ec

--------------------------------------
01000160:  	01812783    	LW     x15, 116(x2)
Insns: 00000001100000010010011110000011 at PC_x=01000160

--------------------------------------
01000164:  	00178793    	ADDI   x15, x15, 24
Insns: 00000000000101111000011110010011 at PC_x=01000164

--------------------------------------
01000168:  	00f12c23    	SW     x15, 1(x2)

--------------------------------------
0100016c:  	00812703    	LW     x14, 24(x2)
Insns: 00000000100000010010011100000011 at PC_x=0100016c

--------------------------------------
01000170:  	01c12783    	LW     x15, 8(x2)
Insns: 00000001110000010010011110000011 at PC_x=01000170

--------------------------------------
01000174:  	40f707b3    	SUB    x15, x14, x15

--------------------------------------
01000178:  	01812703    	LW     x14, 1039(x2)
Insns: 00000001100000010010011100000011 at PC_x=01000178

--------------------------------------
0100017c:  	f2f74ee3    	BLT    x14, x15, 1000194

--------------------------------------
010000b8:  	01812703    	LW     x14, 4294967100(x2)
Insns: 00000001100000010010011100000011 at PC_x=010000b8

--------------------------------------
010000bc:  	400007b7    	LUI    x15, 0x18
LUIOP

--------------------------------------
010000c0:  	fff78793    	ADDI   x15, x15, 1024
Insns: 11111111111101111000011110010011 at PC_x=010000c0

--------------------------------------
010000c4:  	00f707b3    	ADD    x15, x14, x15

--------------------------------------
010000c8:  	00279793    	SLLI   x15, x15, 0x2
Insns: 00000000001001111001011110010011 at PC_x=010000c8

--------------------------------------
010000cc:  	00c12703    	LW     x14, 2(x2)
Insns: 00000000110000010010011100000011 at PC_x=010000cc

--------------------------------------
010000d0:  	00f707b3    	ADD    x15, x14, x15

--------------------------------------
010000d4:  	0007a703    	LW     x14, 12(x15)
Insns: 00000000000001111010011100000011 at PC_x=010000d4

--------------------------------------
010000d8:  	01812783    	LW     x15, 0(x2)
Insns: 00000001100000010010011110000011 at PC_x=010000d8

--------------------------------------
010000dc:  	00279793    	SLLI   x15, x15, 0x2
Insns: 00000000001001111001011110010011 at PC_x=010000dc

--------------------------------------
010000e0:  	00c12683    	LW     x13, 2(x2)
Insns: 00000000110000010010011010000011 at PC_x=010000e0

--------------------------------------
010000e4:  	00f687b3    	ADD    x15, x13, x15

--------------------------------------
010000e8:  	0007a783    	LW     x15, 15(x15)
Insns: 00000000000001111010011110000011 at PC_x=010000e8

--------------------------------------
010000ec:  	06e7da63    	BGE    x15, x14, 10000ec

--------------------------------------
010000f0:  	01812703    	LW     x14, 116(x2)
Insns: 00000001100000010010011100000011 at PC_x=010000f0

--------------------------------------
010000f4:  	400007b7    	LUI    x15, 0x18
LUIOP

--------------------------------------
010000f8:  	fff78793    	ADDI   x15, x15, 1024
Insns: 11111111111101111000011110010011 at PC_x=010000f8

--------------------------------------
010000fc:  	00f707b3    	ADD    x15, x14, x15

--------------------------------------
01000100:  	00279793    	SLLI   x15, x15, 0x2
Insns: 00000000001001111001011110010011 at PC_x=01000100

--------------------------------------
01000104:  	00c12703    	LW     x14, 2(x2)
Insns: 00000000110000010010011100000011 at PC_x=01000104

--------------------------------------
01000108:  	00f707b3    	ADD    x15, x14, x15

--------------------------------------
0100010c:  	0007a783    	LW     x15, 12(x15)
Insns: 00000000000001111010011110000011 at PC_x=0100010c

--------------------------------------
01000110:  	00f12a23    	SW     x15, 0(x2)

--------------------------------------
01000114:  	01812783    	LW     x15, 20(x2)
Insns: 00000001100000010010011110000011 at PC_x=01000114

--------------------------------------
01000118:  	00279793    	SLLI   x15, x15, 0x2
Insns: 00000000001001111001011110010011 at PC_x=01000118

--------------------------------------
0100011c:  	00c12703    	LW     x14, 2(x2)
Insns: 00000000110000010010011100000011 at PC_x=0100011c

--------------------------------------
01000120:  	00f70733    	ADD    x14, x14, x15

--------------------------------------
01000124:  	01812683    	LW     x13, 12(x2)
Insns: 00000001100000010010011010000011 at PC_x=01000124

--------------------------------------
01000128:  	400007b7    	LUI    x15, 0x18
LUIOP

--------------------------------------
0100012c:  	fff78793    	ADDI   x15, x15, 24
Insns: 11111111111101111000011110010011 at PC_x=0100012c

--------------------------------------
01000130:  	00f687b3    	ADD    x15, x13, x15

--------------------------------------
01000134:  	00279793    	SLLI   x15, x15, 0x2
Insns: 00000000001001111001011110010011 at PC_x=01000134

--------------------------------------
01000138:  	00c12683    	LW     x13, 2(x2)
Insns: 00000000110000010010011010000011 at PC_x=01000138

--------------------------------------
0100013c:  	00f687b3    	ADD    x15, x13, x15

--------------------------------------
01000140:  	00072703    	LW     x14, 15(x14)
Insns: 00000000000001110010011100000011 at PC_x=01000140

--------------------------------------
01000144:  	00e7a023    	SW     x14, 0(x15)

--------------------------------------
01000148:  	01812783    	LW     x15, 0(x2)
Insns: 00000001100000010010011110000011 at PC_x=01000148

--------------------------------------
0100014c:  	00279793    	SLLI   x15, x15, 0x2
Insns: 00000000001001111001011110010011 at PC_x=0100014c

--------------------------------------
01000150:  	00c12703    	LW     x14, 2(x2)
Insns: 00000000110000010010011100000011 at PC_x=01000150

--------------------------------------
01000154:  	00f707b3    	ADD    x15, x14, x15

--------------------------------------
01000158:  	01412703    	LW     x14, 15(x2)
Insns: 00000001010000010010011100000011 at PC_x=01000158

--------------------------------------
0100015c:  	00e7a023    	SW     x14, 20(x15)

--------------------------------------
01000160:  	01812783    	LW     x15, 0(x2)
Insns: 00000001100000010010011110000011 at PC_x=01000160

--------------------------------------
01000164:  	00178793    	ADDI   x15, x15, 24
Insns: 00000000000101111000011110010011 at PC_x=01000164

--------------------------------------
01000168:  	00f12c23    	SW     x15, 1(x2)

--------------------------------------
0100016c:  	00812703    	LW     x14, 24(x2)
Insns: 00000000100000010010011100000011 at PC_x=0100016c

--------------------------------------
01000170:  	01c12783    	LW     x15, 8(x2)
Insns: 00000001110000010010011110000011 at PC_x=01000170

--------------------------------------
01000174:  	40f707b3    	SUB    x15, x14, x15

--------------------------------------
01000178:  	01812703    	LW     x14, 1039(x2)
Insns: 00000001100000010010011100000011 at PC_x=01000178

--------------------------------------
0100017c:  	f2f74ee3    	BLT    x14, x15, 1000194

--------------------------------------
010000b8:  	01812703    	LW     x14, 4294967100(x2)
Insns: 00000001100000010010011100000011 at PC_x=010000b8

--------------------------------------
010000bc:  	400007b7    	LUI    x15, 0x18
LUIOP

--------------------------------------
010000c0:  	fff78793    	ADDI   x15, x15, 1024
Insns: 11111111111101111000011110010011 at PC_x=010000c0

--------------------------------------
010000c4:  	00f707b3    	ADD    x15, x14, x15

--------------------------------------
010000c8:  	00279793    	SLLI   x15, x15, 0x2
Insns: 00000000001001111001011110010011 at PC_x=010000c8

--------------------------------------
010000cc:  	00c12703    	LW     x14, 2(x2)
Insns: 00000000110000010010011100000011 at PC_x=010000cc

--------------------------------------
010000d0:  	00f707b3    	ADD    x15, x14, x15

--------------------------------------
010000d4:  	0007a703    	LW     x14, 12(x15)
Insns: 00000000000001111010011100000011 at PC_x=010000d4

--------------------------------------
010000d8:  	01812783    	LW     x15, 0(x2)
Insns: 00000001100000010010011110000011 at PC_x=010000d8

--------------------------------------
010000dc:  	00279793    	SLLI   x15, x15, 0x2
Insns: 00000000001001111001011110010011 at PC_x=010000dc

--------------------------------------
010000e0:  	00c12683    	LW     x13, 2(x2)
Insns: 00000000110000010010011010000011 at PC_x=010000e0

--------------------------------------
010000e4:  	00f687b3    	ADD    x15, x13, x15

--------------------------------------
010000e8:  	0007a783    	LW     x15, 15(x15)
Insns: 00000000000001111010011110000011 at PC_x=010000e8

--------------------------------------
010000ec:  	06e7da63    	BGE    x15, x14, 10000ec

--------------------------------------
010000f0:  	01812703    	LW     x14, 116(x2)
Insns: 00000001100000010010011100000011 at PC_x=010000f0

--------------------------------------
010000f4:  	400007b7    	LUI    x15, 0x18
LUIOP

--------------------------------------
010000f8:  	fff78793    	ADDI   x15, x15, 1024
Insns: 11111111111101111000011110010011 at PC_x=010000f8

--------------------------------------
010000fc:  	00f707b3    	ADD    x15, x14, x15

--------------------------------------
01000100:  	00279793    	SLLI   x15, x15, 0x2
Insns: 00000000001001111001011110010011 at PC_x=01000100

--------------------------------------
01000104:  	00c12703    	LW     x14, 2(x2)
Insns: 00000000110000010010011100000011 at PC_x=01000104

--------------------------------------
01000108:  	00f707b3    	ADD    x15, x14, x15

--------------------------------------
0100010c:  	0007a783    	LW     x15, 12(x15)
Insns: 00000000000001111010011110000011 at PC_x=0100010c

--------------------------------------
01000110:  	00f12a23    	SW     x15, 0(x2)

--------------------------------------
01000114:  	01812783    	LW     x15, 20(x2)
Insns: 00000001100000010010011110000011 at PC_x=01000114

--------------------------------------
01000118:  	00279793    	SLLI   x15, x15, 0x2
Insns: 00000000001001111001011110010011 at PC_x=01000118

--------------------------------------
0100011c:  	00c12703    	LW     x14, 2(x2)
Insns: 00000000110000010010011100000011 at PC_x=0100011c

--------------------------------------
01000120:  	00f70733    	ADD    x14, x14, x15

--------------------------------------
01000124:  	01812683    	LW     x13, 12(x2)
Insns: 00000001100000010010011010000011 at PC_x=01000124

--------------------------------------
01000128:  	400007b7    	LUI    x15, 0x18
LUIOP

--------------------------------------
0100012c:  	fff78793    	ADDI   x15, x15, 24
Insns: 11111111111101111000011110010011 at PC_x=0100012c

--------------------------------------
01000130:  	00f687b3    	ADD    x15, x13, x15

--------------------------------------
01000134:  	00279793    	SLLI   x15, x15, 0x2
Insns: 00000000001001111001011110010011 at PC_x=01000134

--------------------------------------
01000138:  	00c12683    	LW     x13, 2(x2)
Insns: 00000000110000010010011010000011 at PC_x=01000138

--------------------------------------
0100013c:  	00f687b3    	ADD    x15, x13, x15

--------------------------------------
01000140:  	00072703    	LW     x14, 15(x14)
Insns: 00000000000001110010011100000011 at PC_x=01000140

--------------------------------------
01000144:  	00e7a023    	SW     x14, 0(x15)

--------------------------------------
01000148:  	01812783    	LW     x15, 0(x2)
Insns: 00000001100000010010011110000011 at PC_x=01000148

--------------------------------------
0100014c:  	00279793    	SLLI   x15, x15, 0x2
Insns: 00000000001001111001011110010011 at PC_x=0100014c

--------------------------------------
01000150:  	00c12703    	LW     x14, 2(x2)
Insns: 00000000110000010010011100000011 at PC_x=01000150

--------------------------------------
01000154:  	00f707b3    	ADD    x15, x14, x15

--------------------------------------
01000158:  	01412703    	LW     x14, 15(x2)
Insns: 00000001010000010010011100000011 at PC_x=01000158

--------------------------------------
0100015c:  	00e7a023    	SW     x14, 20(x15)

--------------------------------------
01000160:  	01812783    	LW     x15, 0(x2)
Insns: 00000001100000010010011110000011 at PC_x=01000160

--------------------------------------
01000164:  	00178793    	ADDI   x15, x15, 24
Insns: 00000000000101111000011110010011 at PC_x=01000164

--------------------------------------
01000168:  	00f12c23    	SW     x15, 1(x2)

--------------------------------------
0100016c:  	00812703    	LW     x14, 24(x2)
Insns: 00000000100000010010011100000011 at PC_x=0100016c

--------------------------------------
01000170:  	01c12783    	LW     x15, 8(x2)
Insns: 00000001110000010010011110000011 at PC_x=01000170

--------------------------------------
01000174:  	40f707b3    	SUB    x15, x14, x15

--------------------------------------
01000178:  	01812703    	LW     x14, 1039(x2)
Insns: 00000001100000010010011100000011 at PC_x=01000178

--------------------------------------
0100017c:  	f2f74ee3    	BLT    x14, x15, 1000194

--------------------------------------
010000b8:  	01812703    	LW     x14, 4294967100(x2)
Insns: 00000001100000010010011100000011 at PC_x=010000b8

--------------------------------------
010000bc:  	400007b7    	LUI    x15, 0x18
LUIOP

--------------------------------------
010000c0:  	fff78793    	ADDI   x15, x15, 1024
Insns: 11111111111101111000011110010011 at PC_x=010000c0

--------------------------------------
010000c4:  	00f707b3    	ADD    x15, x14, x15

--------------------------------------
010000c8:  	00279793    	SLLI   x15, x15, 0x2
Insns: 00000000001001111001011110010011 at PC_x=010000c8

--------------------------------------
010000cc:  	00c12703    	LW     x14, 2(x2)
Insns: 00000000110000010010011100000011 at PC_x=010000cc

--------------------------------------
010000d0:  	00f707b3    	ADD    x15, x14, x15

--------------------------------------
010000d4:  	0007a703    	LW     x14, 12(x15)
Insns: 00000000000001111010011100000011 at PC_x=010000d4

--------------------------------------
010000d8:  	01812783    	LW     x15, 0(x2)
Insns: 00000001100000010010011110000011 at PC_x=010000d8

--------------------------------------
010000dc:  	00279793    	SLLI   x15, x15, 0x2
Insns: 00000000001001111001011110010011 at PC_x=010000dc

--------------------------------------
010000e0:  	00c12683    	LW     x13, 2(x2)
Insns: 00000000110000010010011010000011 at PC_x=010000e0

--------------------------------------
010000e4:  	00f687b3    	ADD    x15, x13, x15

--------------------------------------
010000e8:  	0007a783    	LW     x15, 15(x15)
Insns: 00000000000001111010011110000011 at PC_x=010000e8

--------------------------------------
010000ec:  	06e7da63    	BGE    x15, x14, 10000ec

--------------------------------------
010000f0:  	01812703    	LW     x14, 116(x2)
Insns: 00000001100000010010011100000011 at PC_x=010000f0

--------------------------------------
010000f4:  	400007b7    	LUI    x15, 0x18
LUIOP

--------------------------------------
010000f8:  	fff78793    	ADDI   x15, x15, 1024
Insns: 11111111111101111000011110010011 at PC_x=010000f8

--------------------------------------
010000fc:  	00f707b3    	ADD    x15, x14, x15

--------------------------------------
01000100:  	00279793    	SLLI   x15, x15, 0x2
Insns: 00000000001001111001011110010011 at PC_x=01000100

--------------------------------------
01000104:  	00c12703    	LW     x14, 2(x2)
Insns: 00000000110000010010011100000011 at PC_x=01000104

--------------------------------------
01000108:  	00f707b3    	ADD    x15, x14, x15

--------------------------------------
0100010c:  	0007a783    	LW     x15, 12(x15)
Insns: 00000000000001111010011110000011 at PC_x=0100010c

--------------------------------------
01000110:  	00f12a23    	SW     x15, 0(x2)

--------------------------------------
01000114:  	01812783    	LW     x15, 20(x2)
Insns: 00000001100000010010011110000011 at PC_x=01000114

--------------------------------------
01000118:  	00279793    	SLLI   x15, x15, 0x2
Insns: 00000000001001111001011110010011 at PC_x=01000118

--------------------------------------
0100011c:  	00c12703    	LW     x14, 2(x2)
Insns: 00000000110000010010011100000011 at PC_x=0100011c

--------------------------------------
01000120:  	00f70733    	ADD    x14, x14, x15

--------------------------------------
01000124:  	01812683    	LW     x13, 12(x2)
Insns: 00000001100000010010011010000011 at PC_x=01000124

--------------------------------------
01000128:  	400007b7    	LUI    x15, 0x18
LUIOP

--------------------------------------
0100012c:  	fff78793    	ADDI   x15, x15, 24
Insns: 11111111111101111000011110010011 at PC_x=0100012c

--------------------------------------
01000130:  	00f687b3    	ADD    x15, x13, x15

--------------------------------------
01000134:  	00279793    	SLLI   x15, x15, 0x2
Insns: 00000000001001111001011110010011 at PC_x=01000134

--------------------------------------
01000138:  	00c12683    	LW     x13, 2(x2)
Insns: 00000000110000010010011010000011 at PC_x=01000138

--------------------------------------
0100013c:  	00f687b3    	ADD    x15, x13, x15

--------------------------------------
01000140:  	00072703    	LW     x14, 15(x14)
Insns: 00000000000001110010011100000011 at PC_x=01000140

--------------------------------------
01000144:  	00e7a023    	SW     x14, 0(x15)

--------------------------------------
01000148:  	01812783    	LW     x15, 0(x2)
Insns: 00000001100000010010011110000011 at PC_x=01000148

--------------------------------------
0100014c:  	00279793    	SLLI   x15, x15, 0x2
Insns: 00000000001001111001011110010011 at PC_x=0100014c

--------------------------------------
01000150:  	00c12703    	LW     x14, 2(x2)
Insns: 00000000110000010010011100000011 at PC_x=01000150

--------------------------------------
01000154:  	00f707b3    	ADD    x15, x14, x15

--------------------------------------
01000158:  	01412703    	LW     x14, 15(x2)
Insns: 00000001010000010010011100000011 at PC_x=01000158

--------------------------------------
0100015c:  	00e7a023    	SW     x14, 20(x15)

--------------------------------------
01000160:  	01812783    	LW     x15, 0(x2)
Insns: 00000001100000010010011110000011 at PC_x=01000160

--------------------------------------
01000164:  	00178793    	ADDI   x15, x15, 24
Insns: 00000000000101111000011110010011 at PC_x=01000164

--------------------------------------
01000168:  	00f12c23    	SW     x15, 1(x2)

--------------------------------------
0100016c:  	00812703    	LW     x14, 24(x2)
Insns: 00000000100000010010011100000011 at PC_x=0100016c

--------------------------------------
01000170:  	01c12783    	LW     x15, 8(x2)
Insns: 00000001110000010010011110000011 at PC_x=01000170

--------------------------------------
01000174:  	40f707b3    	SUB    x15, x14, x15

--------------------------------------
01000178:  	01812703    	LW     x14, 1039(x2)
Insns: 00000001100000010010011100000011 at PC_x=01000178

--------------------------------------
0100017c:  	f2f74ee3    	BLT    x14, x15, 1000194

--------------------------------------
01000180:  	01c12783    	LW     x15, 4294967100(x2)
Insns: 00000001110000010010011110000011 at PC_x=01000180

--------------------------------------
01000184:  	00178793    	ADDI   x15, x15, 28
Insns: 00000000000101111000011110010011 at PC_x=01000184

--------------------------------------
01000188:  	00f12e23    	SW     x15, 1(x2)

--------------------------------------
0100018c:  	01c12703    	LW     x14, 28(x2)
Insns: 00000001110000010010011100000011 at PC_x=0100018c

--------------------------------------
01000190:  	00812783    	LW     x15, 28(x2)
Insns: 00000000100000010010011110000011 at PC_x=01000190

--------------------------------------
01000194:  	f0f74ce3    	BLT    x14, x15, 100019c

--------------------------------------
010000ac:  	00100793    	ADDI   x15, x0, 4294967064
Insns: 00000000000100000000011110010011 at PC_x=010000ac

--------------------------------------
010000b0:  	00f12c23    	SW     x15, 1(x2)

--------------------------------------
010000b4:  	0b80006f    	JAL    x0, 10000cc

--------------------------------------
0100016c:  	00812703    	LW     x14, 184(x2)
Insns: 00000000100000010010011100000011 at PC_x=0100016c

--------------------------------------
01000170:  	01c12783    	LW     x15, 8(x2)
Insns: 00000001110000010010011110000011 at PC_x=01000170

--------------------------------------
01000174:  	40f707b3    	SUB    x15, x14, x15

--------------------------------------
01000178:  	01812703    	LW     x14, 1039(x2)
Insns: 00000001100000010010011100000011 at PC_x=01000178

--------------------------------------
0100017c:  	f2f74ee3    	BLT    x14, x15, 1000194

--------------------------------------
010000b8:  	01812703    	LW     x14, 4294967100(x2)
Insns: 00000001100000010010011100000011 at PC_x=010000b8

--------------------------------------
010000bc:  	400007b7    	LUI    x15, 0x18
LUIOP

--------------------------------------
010000c0:  	fff78793    	ADDI   x15, x15, 1024
Insns: 11111111111101111000011110010011 at PC_x=010000c0

--------------------------------------
010000c4:  	00f707b3    	ADD    x15, x14, x15

--------------------------------------
010000c8:  	00279793    	SLLI   x15, x15, 0x2
Insns: 00000000001001111001011110010011 at PC_x=010000c8

--------------------------------------
010000cc:  	00c12703    	LW     x14, 2(x2)
Insns: 00000000110000010010011100000011 at PC_x=010000cc

--------------------------------------
010000d0:  	00f707b3    	ADD    x15, x14, x15

--------------------------------------
010000d4:  	0007a703    	LW     x14, 12(x15)
Insns: 00000000000001111010011100000011 at PC_x=010000d4

--------------------------------------
010000d8:  	01812783    	LW     x15, 0(x2)
Insns: 00000001100000010010011110000011 at PC_x=010000d8

--------------------------------------
010000dc:  	00279793    	SLLI   x15, x15, 0x2
Insns: 00000000001001111001011110010011 at PC_x=010000dc

--------------------------------------
010000e0:  	00c12683    	LW     x13, 2(x2)
Insns: 00000000110000010010011010000011 at PC_x=010000e0

--------------------------------------
010000e4:  	00f687b3    	ADD    x15, x13, x15

--------------------------------------
010000e8:  	0007a783    	LW     x15, 15(x15)
Insns: 00000000000001111010011110000011 at PC_x=010000e8

--------------------------------------
010000ec:  	06e7da63    	BGE    x15, x14, 10000ec

--------------------------------------
01000160:  	01812783    	LW     x15, 116(x2)
Insns: 00000001100000010010011110000011 at PC_x=01000160

--------------------------------------
01000164:  	00178793    	ADDI   x15, x15, 24
Insns: 00000000000101111000011110010011 at PC_x=01000164

--------------------------------------
01000168:  	00f12c23    	SW     x15, 1(x2)

--------------------------------------
0100016c:  	00812703    	LW     x14, 24(x2)
Insns: 00000000100000010010011100000011 at PC_x=0100016c

--------------------------------------
01000170:  	01c12783    	LW     x15, 8(x2)
Insns: 00000001110000010010011110000011 at PC_x=01000170

--------------------------------------
01000174:  	40f707b3    	SUB    x15, x14, x15

--------------------------------------
01000178:  	01812703    	LW     x14, 1039(x2)
Insns: 00000001100000010010011100000011 at PC_x=01000178

--------------------------------------
0100017c:  	f2f74ee3    	BLT    x14, x15, 1000194

--------------------------------------
010000b8:  	01812703    	LW     x14, 4294967100(x2)
Insns: 00000001100000010010011100000011 at PC_x=010000b8

--------------------------------------
010000bc:  	400007b7    	LUI    x15, 0x18
LUIOP

--------------------------------------
010000c0:  	fff78793    	ADDI   x15, x15, 1024
Insns: 11111111111101111000011110010011 at PC_x=010000c0

--------------------------------------
010000c4:  	00f707b3    	ADD    x15, x14, x15

--------------------------------------
010000c8:  	00279793    	SLLI   x15, x15, 0x2
Insns: 00000000001001111001011110010011 at PC_x=010000c8

--------------------------------------
010000cc:  	00c12703    	LW     x14, 2(x2)
Insns: 00000000110000010010011100000011 at PC_x=010000cc

--------------------------------------
010000d0:  	00f707b3    	ADD    x15, x14, x15

--------------------------------------
010000d4:  	0007a703    	LW     x14, 12(x15)
Insns: 00000000000001111010011100000011 at PC_x=010000d4

--------------------------------------
010000d8:  	01812783    	LW     x15, 0(x2)
Insns: 00000001100000010010011110000011 at PC_x=010000d8

--------------------------------------
010000dc:  	00279793    	SLLI   x15, x15, 0x2
Insns: 00000000001001111001011110010011 at PC_x=010000dc

--------------------------------------
010000e0:  	00c12683    	LW     x13, 2(x2)
Insns: 00000000110000010010011010000011 at PC_x=010000e0

--------------------------------------
010000e4:  	00f687b3    	ADD    x15, x13, x15

--------------------------------------
010000e8:  	0007a783    	LW     x15, 15(x15)
Insns: 00000000000001111010011110000011 at PC_x=010000e8

--------------------------------------
010000ec:  	06e7da63    	BGE    x15, x14, 10000ec

--------------------------------------
01000160:  	01812783    	LW     x15, 116(x2)
Insns: 00000001100000010010011110000011 at PC_x=01000160

--------------------------------------
01000164:  	00178793    	ADDI   x15, x15, 24
Insns: 00000000000101111000011110010011 at PC_x=01000164

--------------------------------------
01000168:  	00f12c23    	SW     x15, 1(x2)

--------------------------------------
0100016c:  	00812703    	LW     x14, 24(x2)
Insns: 00000000100000010010011100000011 at PC_x=0100016c

--------------------------------------
01000170:  	01c12783    	LW     x15, 8(x2)
Insns: 00000001110000010010011110000011 at PC_x=01000170

--------------------------------------
01000174:  	40f707b3    	SUB    x15, x14, x15

--------------------------------------
01000178:  	01812703    	LW     x14, 1039(x2)
Insns: 00000001100000010010011100000011 at PC_x=01000178

--------------------------------------
0100017c:  	f2f74ee3    	BLT    x14, x15, 1000194

--------------------------------------
010000b8:  	01812703    	LW     x14, 4294967100(x2)
Insns: 00000001100000010010011100000011 at PC_x=010000b8

--------------------------------------
010000bc:  	400007b7    	LUI    x15, 0x18
LUIOP

--------------------------------------
010000c0:  	fff78793    	ADDI   x15, x15, 1024
Insns: 11111111111101111000011110010011 at PC_x=010000c0

--------------------------------------
010000c4:  	00f707b3    	ADD    x15, x14, x15

--------------------------------------
010000c8:  	00279793    	SLLI   x15, x15, 0x2
Insns: 00000000001001111001011110010011 at PC_x=010000c8

--------------------------------------
010000cc:  	00c12703    	LW     x14, 2(x2)
Insns: 00000000110000010010011100000011 at PC_x=010000cc

--------------------------------------
010000d0:  	00f707b3    	ADD    x15, x14, x15

--------------------------------------
010000d4:  	0007a703    	LW     x14, 12(x15)
Insns: 00000000000001111010011100000011 at PC_x=010000d4

--------------------------------------
010000d8:  	01812783    	LW     x15, 0(x2)
Insns: 00000001100000010010011110000011 at PC_x=010000d8

--------------------------------------
010000dc:  	00279793    	SLLI   x15, x15, 0x2
Insns: 00000000001001111001011110010011 at PC_x=010000dc

--------------------------------------
010000e0:  	00c12683    	LW     x13, 2(x2)
Insns: 00000000110000010010011010000011 at PC_x=010000e0

--------------------------------------
010000e4:  	00f687b3    	ADD    x15, x13, x15

--------------------------------------
010000e8:  	0007a783    	LW     x15, 15(x15)
Insns: 00000000000001111010011110000011 at PC_x=010000e8

--------------------------------------
010000ec:  	06e7da63    	BGE    x15, x14, 10000ec

--------------------------------------
010000f0:  	01812703    	LW     x14, 116(x2)
Insns: 00000001100000010010011100000011 at PC_x=010000f0

--------------------------------------
010000f4:  	400007b7    	LUI    x15, 0x18
LUIOP

--------------------------------------
010000f8:  	fff78793    	ADDI   x15, x15, 1024
Insns: 11111111111101111000011110010011 at PC_x=010000f8

--------------------------------------
010000fc:  	00f707b3    	ADD    x15, x14, x15

--------------------------------------
01000100:  	00279793    	SLLI   x15, x15, 0x2
Insns: 00000000001001111001011110010011 at PC_x=01000100

--------------------------------------
01000104:  	00c12703    	LW     x14, 2(x2)
Insns: 00000000110000010010011100000011 at PC_x=01000104

--------------------------------------
01000108:  	00f707b3    	ADD    x15, x14, x15

--------------------------------------
0100010c:  	0007a783    	LW     x15, 12(x15)
Insns: 00000000000001111010011110000011 at PC_x=0100010c

--------------------------------------
01000110:  	00f12a23    	SW     x15, 0(x2)

--------------------------------------
01000114:  	01812783    	LW     x15, 20(x2)
Insns: 00000001100000010010011110000011 at PC_x=01000114

--------------------------------------
01000118:  	00279793    	SLLI   x15, x15, 0x2
Insns: 00000000001001111001011110010011 at PC_x=01000118

--------------------------------------
0100011c:  	00c12703    	LW     x14, 2(x2)
Insns: 00000000110000010010011100000011 at PC_x=0100011c

--------------------------------------
01000120:  	00f70733    	ADD    x14, x14, x15

--------------------------------------
01000124:  	01812683    	LW     x13, 12(x2)
Insns: 00000001100000010010011010000011 at PC_x=01000124

--------------------------------------
01000128:  	400007b7    	LUI    x15, 0x18
LUIOP

--------------------------------------
0100012c:  	fff78793    	ADDI   x15, x15, 24
Insns: 11111111111101111000011110010011 at PC_x=0100012c

--------------------------------------
01000130:  	00f687b3    	ADD    x15, x13, x15

--------------------------------------
01000134:  	00279793    	SLLI   x15, x15, 0x2
Insns: 00000000001001111001011110010011 at PC_x=01000134

--------------------------------------
01000138:  	00c12683    	LW     x13, 2(x2)
Insns: 00000000110000010010011010000011 at PC_x=01000138

--------------------------------------
0100013c:  	00f687b3    	ADD    x15, x13, x15

--------------------------------------
01000140:  	00072703    	LW     x14, 15(x14)
Insns: 00000000000001110010011100000011 at PC_x=01000140

--------------------------------------
01000144:  	00e7a023    	SW     x14, 0(x15)

--------------------------------------
01000148:  	01812783    	LW     x15, 0(x2)
Insns: 00000001100000010010011110000011 at PC_x=01000148

--------------------------------------
0100014c:  	00279793    	SLLI   x15, x15, 0x2
Insns: 00000000001001111001011110010011 at PC_x=0100014c

--------------------------------------
01000150:  	00c12703    	LW     x14, 2(x2)
Insns: 00000000110000010010011100000011 at PC_x=01000150

--------------------------------------
01000154:  	00f707b3    	ADD    x15, x14, x15

--------------------------------------
01000158:  	01412703    	LW     x14, 15(x2)
Insns: 00000001010000010010011100000011 at PC_x=01000158

--------------------------------------
0100015c:  	00e7a023    	SW     x14, 20(x15)

--------------------------------------
01000160:  	01812783    	LW     x15, 0(x2)
Insns: 00000001100000010010011110000011 at PC_x=01000160

--------------------------------------
01000164:  	00178793    	ADDI   x15, x15, 24
Insns: 00000000000101111000011110010011 at PC_x=01000164

--------------------------------------
01000168:  	00f12c23    	SW     x15, 1(x2)

--------------------------------------
0100016c:  	00812703    	LW     x14, 24(x2)
Insns: 00000000100000010010011100000011 at PC_x=0100016c

--------------------------------------
01000170:  	01c12783    	LW     x15, 8(x2)
Insns: 00000001110000010010011110000011 at PC_x=01000170

--------------------------------------
01000174:  	40f707b3    	SUB    x15, x14, x15

--------------------------------------
01000178:  	01812703    	LW     x14, 1039(x2)
Insns: 00000001100000010010011100000011 at PC_x=01000178

--------------------------------------
0100017c:  	f2f74ee3    	BLT    x14, x15, 1000194

--------------------------------------
010000b8:  	01812703    	LW     x14, 4294967100(x2)
Insns: 00000001100000010010011100000011 at PC_x=010000b8

--------------------------------------
010000bc:  	400007b7    	LUI    x15, 0x18
LUIOP

--------------------------------------
010000c0:  	fff78793    	ADDI   x15, x15, 1024
Insns: 11111111111101111000011110010011 at PC_x=010000c0

--------------------------------------
010000c4:  	00f707b3    	ADD    x15, x14, x15

--------------------------------------
010000c8:  	00279793    	SLLI   x15, x15, 0x2
Insns: 00000000001001111001011110010011 at PC_x=010000c8

--------------------------------------
010000cc:  	00c12703    	LW     x14, 2(x2)
Insns: 00000000110000010010011100000011 at PC_x=010000cc

--------------------------------------
010000d0:  	00f707b3    	ADD    x15, x14, x15

--------------------------------------
010000d4:  	0007a703    	LW     x14, 12(x15)
Insns: 00000000000001111010011100000011 at PC_x=010000d4

--------------------------------------
010000d8:  	01812783    	LW     x15, 0(x2)
Insns: 00000001100000010010011110000011 at PC_x=010000d8

--------------------------------------
010000dc:  	00279793    	SLLI   x15, x15, 0x2
Insns: 00000000001001111001011110010011 at PC_x=010000dc

--------------------------------------
010000e0:  	00c12683    	LW     x13, 2(x2)
Insns: 00000000110000010010011010000011 at PC_x=010000e0

--------------------------------------
010000e4:  	00f687b3    	ADD    x15, x13, x15

--------------------------------------
010000e8:  	0007a783    	LW     x15, 15(x15)
Insns: 00000000000001111010011110000011 at PC_x=010000e8

--------------------------------------
010000ec:  	06e7da63    	BGE    x15, x14, 10000ec

--------------------------------------
010000f0:  	01812703    	LW     x14, 116(x2)
Insns: 00000001100000010010011100000011 at PC_x=010000f0

--------------------------------------
010000f4:  	400007b7    	LUI    x15, 0x18
LUIOP

--------------------------------------
010000f8:  	fff78793    	ADDI   x15, x15, 1024
Insns: 11111111111101111000011110010011 at PC_x=010000f8

--------------------------------------
010000fc:  	00f707b3    	ADD    x15, x14, x15

--------------------------------------
01000100:  	00279793    	SLLI   x15, x15, 0x2
Insns: 00000000001001111001011110010011 at PC_x=01000100

--------------------------------------
01000104:  	00c12703    	LW     x14, 2(x2)
Insns: 00000000110000010010011100000011 at PC_x=01000104

--------------------------------------
01000108:  	00f707b3    	ADD    x15, x14, x15

--------------------------------------
0100010c:  	0007a783    	LW     x15, 12(x15)
Insns: 00000000000001111010011110000011 at PC_x=0100010c

--------------------------------------
01000110:  	00f12a23    	SW     x15, 0(x2)

--------------------------------------
01000114:  	01812783    	LW     x15, 20(x2)
Insns: 00000001100000010010011110000011 at PC_x=01000114

--------------------------------------
01000118:  	00279793    	SLLI   x15, x15, 0x2
Insns: 00000000001001111001011110010011 at PC_x=01000118

--------------------------------------
0100011c:  	00c12703    	LW     x14, 2(x2)
Insns: 00000000110000010010011100000011 at PC_x=0100011c

--------------------------------------
01000120:  	00f70733    	ADD    x14, x14, x15

--------------------------------------
01000124:  	01812683    	LW     x13, 12(x2)
Insns: 00000001100000010010011010000011 at PC_x=01000124

--------------------------------------
01000128:  	400007b7    	LUI    x15, 0x18
LUIOP

--------------------------------------
0100012c:  	fff78793    	ADDI   x15, x15, 24
Insns: 11111111111101111000011110010011 at PC_x=0100012c

--------------------------------------
01000130:  	00f687b3    	ADD    x15, x13, x15

--------------------------------------
01000134:  	00279793    	SLLI   x15, x15, 0x2
Insns: 00000000001001111001011110010011 at PC_x=01000134

--------------------------------------
01000138:  	00c12683    	LW     x13, 2(x2)
Insns: 00000000110000010010011010000011 at PC_x=01000138

--------------------------------------
0100013c:  	00f687b3    	ADD    x15, x13, x15

--------------------------------------
01000140:  	00072703    	LW     x14, 15(x14)
Insns: 00000000000001110010011100000011 at PC_x=01000140

--------------------------------------
01000144:  	00e7a023    	SW     x14, 0(x15)

--------------------------------------
01000148:  	01812783    	LW     x15, 0(x2)
Insns: 00000001100000010010011110000011 at PC_x=01000148

--------------------------------------
0100014c:  	00279793    	SLLI   x15, x15, 0x2
Insns: 00000000001001111001011110010011 at PC_x=0100014c

--------------------------------------
01000150:  	00c12703    	LW     x14, 2(x2)
Insns: 00000000110000010010011100000011 at PC_x=01000150

--------------------------------------
01000154:  	00f707b3    	ADD    x15, x14, x15

--------------------------------------
01000158:  	01412703    	LW     x14, 15(x2)
Insns: 00000001010000010010011100000011 at PC_x=01000158

--------------------------------------
0100015c:  	00e7a023    	SW     x14, 20(x15)

--------------------------------------
01000160:  	01812783    	LW     x15, 0(x2)
Insns: 00000001100000010010011110000011 at PC_x=01000160

--------------------------------------
01000164:  	00178793    	ADDI   x15, x15, 24
Insns: 00000000000101111000011110010011 at PC_x=01000164

--------------------------------------
01000168:  	00f12c23    	SW     x15, 1(x2)

--------------------------------------
0100016c:  	00812703    	LW     x14, 24(x2)
Insns: 00000000100000010010011100000011 at PC_x=0100016c

--------------------------------------
01000170:  	01c12783    	LW     x15, 8(x2)
Insns: 00000001110000010010011110000011 at PC_x=01000170

--------------------------------------
01000174:  	40f707b3    	SUB    x15, x14, x15

--------------------------------------
01000178:  	01812703    	LW     x14, 1039(x2)
Insns: 00000001100000010010011100000011 at PC_x=01000178

--------------------------------------
0100017c:  	f2f74ee3    	BLT    x14, x15, 1000194

--------------------------------------
010000b8:  	01812703    	LW     x14, 4294967100(x2)
Insns: 00000001100000010010011100000011 at PC_x=010000b8

--------------------------------------
010000bc:  	400007b7    	LUI    x15, 0x18
LUIOP

--------------------------------------
010000c0:  	fff78793    	ADDI   x15, x15, 1024
Insns: 11111111111101111000011110010011 at PC_x=010000c0

--------------------------------------
010000c4:  	00f707b3    	ADD    x15, x14, x15

--------------------------------------
010000c8:  	00279793    	SLLI   x15, x15, 0x2
Insns: 00000000001001111001011110010011 at PC_x=010000c8

--------------------------------------
010000cc:  	00c12703    	LW     x14, 2(x2)
Insns: 00000000110000010010011100000011 at PC_x=010000cc

--------------------------------------
010000d0:  	00f707b3    	ADD    x15, x14, x15

--------------------------------------
010000d4:  	0007a703    	LW     x14, 12(x15)
Insns: 00000000000001111010011100000011 at PC_x=010000d4

--------------------------------------
010000d8:  	01812783    	LW     x15, 0(x2)
Insns: 00000001100000010010011110000011 at PC_x=010000d8

--------------------------------------
010000dc:  	00279793    	SLLI   x15, x15, 0x2
Insns: 00000000001001111001011110010011 at PC_x=010000dc

--------------------------------------
010000e0:  	00c12683    	LW     x13, 2(x2)
Insns: 00000000110000010010011010000011 at PC_x=010000e0

--------------------------------------
010000e4:  	00f687b3    	ADD    x15, x13, x15

--------------------------------------
010000e8:  	0007a783    	LW     x15, 15(x15)
Insns: 00000000000001111010011110000011 at PC_x=010000e8

--------------------------------------
010000ec:  	06e7da63    	BGE    x15, x14, 10000ec

--------------------------------------
010000f0:  	01812703    	LW     x14, 116(x2)
Insns: 00000001100000010010011100000011 at PC_x=010000f0

--------------------------------------
010000f4:  	400007b7    	LUI    x15, 0x18
LUIOP

--------------------------------------
010000f8:  	fff78793    	ADDI   x15, x15, 1024
Insns: 11111111111101111000011110010011 at PC_x=010000f8

--------------------------------------
010000fc:  	00f707b3    	ADD    x15, x14, x15

--------------------------------------
01000100:  	00279793    	SLLI   x15, x15, 0x2
Insns: 00000000001001111001011110010011 at PC_x=01000100

--------------------------------------
01000104:  	00c12703    	LW     x14, 2(x2)
Insns: 00000000110000010010011100000011 at PC_x=01000104

--------------------------------------
01000108:  	00f707b3    	ADD    x15, x14, x15

--------------------------------------
0100010c:  	0007a783    	LW     x15, 12(x15)
Insns: 00000000000001111010011110000011 at PC_x=0100010c

--------------------------------------
01000110:  	00f12a23    	SW     x15, 0(x2)

--------------------------------------
01000114:  	01812783    	LW     x15, 20(x2)
Insns: 00000001100000010010011110000011 at PC_x=01000114

--------------------------------------
01000118:  	00279793    	SLLI   x15, x15, 0x2
Insns: 00000000001001111001011110010011 at PC_x=01000118

--------------------------------------
0100011c:  	00c12703    	LW     x14, 2(x2)
Insns: 00000000110000010010011100000011 at PC_x=0100011c

--------------------------------------
01000120:  	00f70733    	ADD    x14, x14, x15

--------------------------------------
01000124:  	01812683    	LW     x13, 12(x2)
Insns: 00000001100000010010011010000011 at PC_x=01000124

--------------------------------------
01000128:  	400007b7    	LUI    x15, 0x18
LUIOP

--------------------------------------
0100012c:  	fff78793    	ADDI   x15, x15, 24
Insns: 11111111111101111000011110010011 at PC_x=0100012c

--------------------------------------
01000130:  	00f687b3    	ADD    x15, x13, x15

--------------------------------------
01000134:  	00279793    	SLLI   x15, x15, 0x2
Insns: 00000000001001111001011110010011 at PC_x=01000134

--------------------------------------
01000138:  	00c12683    	LW     x13, 2(x2)
Insns: 00000000110000010010011010000011 at PC_x=01000138

--------------------------------------
0100013c:  	00f687b3    	ADD    x15, x13, x15

--------------------------------------
01000140:  	00072703    	LW     x14, 15(x14)
Insns: 00000000000001110010011100000011 at PC_x=01000140

--------------------------------------
01000144:  	00e7a023    	SW     x14, 0(x15)

--------------------------------------
01000148:  	01812783    	LW     x15, 0(x2)
Insns: 00000001100000010010011110000011 at PC_x=01000148

--------------------------------------
0100014c:  	00279793    	SLLI   x15, x15, 0x2
Insns: 00000000001001111001011110010011 at PC_x=0100014c

--------------------------------------
01000150:  	00c12703    	LW     x14, 2(x2)
Insns: 00000000110000010010011100000011 at PC_x=01000150

--------------------------------------
01000154:  	00f707b3    	ADD    x15, x14, x15

--------------------------------------
01000158:  	01412703    	LW     x14, 15(x2)
Insns: 00000001010000010010011100000011 at PC_x=01000158

--------------------------------------
0100015c:  	00e7a023    	SW     x14, 20(x15)

--------------------------------------
01000160:  	01812783    	LW     x15, 0(x2)
Insns: 00000001100000010010011110000011 at PC_x=01000160

--------------------------------------
01000164:  	00178793    	ADDI   x15, x15, 24
Insns: 00000000000101111000011110010011 at PC_x=01000164

--------------------------------------
01000168:  	00f12c23    	SW     x15, 1(x2)

--------------------------------------
0100016c:  	00812703    	LW     x14, 24(x2)
Insns: 00000000100000010010011100000011 at PC_x=0100016c

--------------------------------------
01000170:  	01c12783    	LW     x15, 8(x2)
Insns: 00000001110000010010011110000011 at PC_x=01000170

--------------------------------------
01000174:  	40f707b3    	SUB    x15, x14, x15

--------------------------------------
01000178:  	01812703    	LW     x14, 1039(x2)
Insns: 00000001100000010010011100000011 at PC_x=01000178

--------------------------------------
0100017c:  	f2f74ee3    	BLT    x14, x15, 1000194

--------------------------------------
01000180:  	01c12783    	LW     x15, 4294967100(x2)
Insns: 00000001110000010010011110000011 at PC_x=01000180

--------------------------------------
01000184:  	00178793    	ADDI   x15, x15, 28
Insns: 00000000000101111000011110010011 at PC_x=01000184

--------------------------------------
01000188:  	00f12e23    	SW     x15, 1(x2)

--------------------------------------
0100018c:  	01c12703    	LW     x14, 28(x2)
Insns: 00000001110000010010011100000011 at PC_x=0100018c

--------------------------------------
01000190:  	00812783    	LW     x15, 28(x2)
Insns: 00000000100000010010011110000011 at PC_x=01000190

--------------------------------------
01000194:  	f0f74ce3    	BLT    x14, x15, 100019c

--------------------------------------
010000ac:  	00100793    	ADDI   x15, x0, 4294967064
Insns: 00000000000100000000011110010011 at PC_x=010000ac

--------------------------------------
010000b0:  	00f12c23    	SW     x15, 1(x2)

--------------------------------------
010000b4:  	0b80006f    	JAL    x0, 10000cc

--------------------------------------
0100016c:  	00812703    	LW     x14, 184(x2)
Insns: 00000000100000010010011100000011 at PC_x=0100016c

--------------------------------------
01000170:  	01c12783    	LW     x15, 8(x2)
Insns: 00000001110000010010011110000011 at PC_x=01000170

--------------------------------------
01000174:  	40f707b3    	SUB    x15, x14, x15

--------------------------------------
01000178:  	01812703    	LW     x14, 1039(x2)
Insns: 00000001100000010010011100000011 at PC_x=01000178

--------------------------------------
0100017c:  	f2f74ee3    	BLT    x14, x15, 1000194

--------------------------------------
010000b8:  	01812703    	LW     x14, 4294967100(x2)
Insns: 00000001100000010010011100000011 at PC_x=010000b8

--------------------------------------
010000bc:  	400007b7    	LUI    x15, 0x18
LUIOP

--------------------------------------
010000c0:  	fff78793    	ADDI   x15, x15, 1024
Insns: 11111111111101111000011110010011 at PC_x=010000c0

--------------------------------------
010000c4:  	00f707b3    	ADD    x15, x14, x15

--------------------------------------
010000c8:  	00279793    	SLLI   x15, x15, 0x2
Insns: 00000000001001111001011110010011 at PC_x=010000c8

--------------------------------------
010000cc:  	00c12703    	LW     x14, 2(x2)
Insns: 00000000110000010010011100000011 at PC_x=010000cc

--------------------------------------
010000d0:  	00f707b3    	ADD    x15, x14, x15

--------------------------------------
010000d4:  	0007a703    	LW     x14, 12(x15)
Insns: 00000000000001111010011100000011 at PC_x=010000d4

--------------------------------------
010000d8:  	01812783    	LW     x15, 0(x2)
Insns: 00000001100000010010011110000011 at PC_x=010000d8

--------------------------------------
010000dc:  	00279793    	SLLI   x15, x15, 0x2
Insns: 00000000001001111001011110010011 at PC_x=010000dc

--------------------------------------
010000e0:  	00c12683    	LW     x13, 2(x2)
Insns: 00000000110000010010011010000011 at PC_x=010000e0

--------------------------------------
010000e4:  	00f687b3    	ADD    x15, x13, x15

--------------------------------------
010000e8:  	0007a783    	LW     x15, 15(x15)
Insns: 00000000000001111010011110000011 at PC_x=010000e8

--------------------------------------
010000ec:  	06e7da63    	BGE    x15, x14, 10000ec

--------------------------------------
01000160:  	01812783    	LW     x15, 116(x2)
Insns: 00000001100000010010011110000011 at PC_x=01000160

--------------------------------------
01000164:  	00178793    	ADDI   x15, x15, 24
Insns: 00000000000101111000011110010011 at PC_x=01000164

--------------------------------------
01000168:  	00f12c23    	SW     x15, 1(x2)

--------------------------------------
0100016c:  	00812703    	LW     x14, 24(x2)
Insns: 00000000100000010010011100000011 at PC_x=0100016c

--------------------------------------
01000170:  	01c12783    	LW     x15, 8(x2)
Insns: 00000001110000010010011110000011 at PC_x=01000170

--------------------------------------
01000174:  	40f707b3    	SUB    x15, x14, x15

--------------------------------------
01000178:  	01812703    	LW     x14, 1039(x2)
Insns: 00000001100000010010011100000011 at PC_x=01000178

--------------------------------------
0100017c:  	f2f74ee3    	BLT    x14, x15, 1000194

--------------------------------------
010000b8:  	01812703    	LW     x14, 4294967100(x2)
Insns: 00000001100000010010011100000011 at PC_x=010000b8

--------------------------------------
010000bc:  	400007b7    	LUI    x15, 0x18
LUIOP

--------------------------------------
010000c0:  	fff78793    	ADDI   x15, x15, 1024
Insns: 11111111111101111000011110010011 at PC_x=010000c0

--------------------------------------
010000c4:  	00f707b3    	ADD    x15, x14, x15

--------------------------------------
010000c8:  	00279793    	SLLI   x15, x15, 0x2
Insns: 00000000001001111001011110010011 at PC_x=010000c8

--------------------------------------
010000cc:  	00c12703    	LW     x14, 2(x2)
Insns: 00000000110000010010011100000011 at PC_x=010000cc

--------------------------------------
010000d0:  	00f707b3    	ADD    x15, x14, x15

--------------------------------------
010000d4:  	0007a703    	LW     x14, 12(x15)
Insns: 00000000000001111010011100000011 at PC_x=010000d4

--------------------------------------
010000d8:  	01812783    	LW     x15, 0(x2)
Insns: 00000001100000010010011110000011 at PC_x=010000d8

--------------------------------------
010000dc:  	00279793    	SLLI   x15, x15, 0x2
Insns: 00000000001001111001011110010011 at PC_x=010000dc

--------------------------------------
010000e0:  	00c12683    	LW     x13, 2(x2)
Insns: 00000000110000010010011010000011 at PC_x=010000e0

--------------------------------------
010000e4:  	00f687b3    	ADD    x15, x13, x15

--------------------------------------
010000e8:  	0007a783    	LW     x15, 15(x15)
Insns: 00000000000001111010011110000011 at PC_x=010000e8

--------------------------------------
010000ec:  	06e7da63    	BGE    x15, x14, 10000ec

--------------------------------------
010000f0:  	01812703    	LW     x14, 116(x2)
Insns: 00000001100000010010011100000011 at PC_x=010000f0

--------------------------------------
010000f4:  	400007b7    	LUI    x15, 0x18
LUIOP

--------------------------------------
010000f8:  	fff78793    	ADDI   x15, x15, 1024
Insns: 11111111111101111000011110010011 at PC_x=010000f8

--------------------------------------
010000fc:  	00f707b3    	ADD    x15, x14, x15

--------------------------------------
01000100:  	00279793    	SLLI   x15, x15, 0x2
Insns: 00000000001001111001011110010011 at PC_x=01000100

--------------------------------------
01000104:  	00c12703    	LW     x14, 2(x2)
Insns: 00000000110000010010011100000011 at PC_x=01000104

--------------------------------------
01000108:  	00f707b3    	ADD    x15, x14, x15

--------------------------------------
0100010c:  	0007a783    	LW     x15, 12(x15)
Insns: 00000000000001111010011110000011 at PC_x=0100010c

--------------------------------------
01000110:  	00f12a23    	SW     x15, 0(x2)

--------------------------------------
01000114:  	01812783    	LW     x15, 20(x2)
Insns: 00000001100000010010011110000011 at PC_x=01000114

--------------------------------------
01000118:  	00279793    	SLLI   x15, x15, 0x2
Insns: 00000000001001111001011110010011 at PC_x=01000118

--------------------------------------
0100011c:  	00c12703    	LW     x14, 2(x2)
Insns: 00000000110000010010011100000011 at PC_x=0100011c

--------------------------------------
01000120:  	00f70733    	ADD    x14, x14, x15

--------------------------------------
01000124:  	01812683    	LW     x13, 12(x2)
Insns: 00000001100000010010011010000011 at PC_x=01000124

--------------------------------------
01000128:  	400007b7    	LUI    x15, 0x18
LUIOP

--------------------------------------
0100012c:  	fff78793    	ADDI   x15, x15, 24
Insns: 11111111111101111000011110010011 at PC_x=0100012c

--------------------------------------
01000130:  	00f687b3    	ADD    x15, x13, x15

--------------------------------------
01000134:  	00279793    	SLLI   x15, x15, 0x2
Insns: 00000000001001111001011110010011 at PC_x=01000134

--------------------------------------
01000138:  	00c12683    	LW     x13, 2(x2)
Insns: 00000000110000010010011010000011 at PC_x=01000138

--------------------------------------
0100013c:  	00f687b3    	ADD    x15, x13, x15

--------------------------------------
01000140:  	00072703    	LW     x14, 15(x14)
Insns: 00000000000001110010011100000011 at PC_x=01000140

--------------------------------------
01000144:  	00e7a023    	SW     x14, 0(x15)

--------------------------------------
01000148:  	01812783    	LW     x15, 0(x2)
Insns: 00000001100000010010011110000011 at PC_x=01000148

--------------------------------------
0100014c:  	00279793    	SLLI   x15, x15, 0x2
Insns: 00000000001001111001011110010011 at PC_x=0100014c

--------------------------------------
01000150:  	00c12703    	LW     x14, 2(x2)
Insns: 00000000110000010010011100000011 at PC_x=01000150

--------------------------------------
01000154:  	00f707b3    	ADD    x15, x14, x15

--------------------------------------
01000158:  	01412703    	LW     x14, 15(x2)
Insns: 00000001010000010010011100000011 at PC_x=01000158

--------------------------------------
0100015c:  	00e7a023    	SW     x14, 20(x15)

--------------------------------------
01000160:  	01812783    	LW     x15, 0(x2)
Insns: 00000001100000010010011110000011 at PC_x=01000160

--------------------------------------
01000164:  	00178793    	ADDI   x15, x15, 24
Insns: 00000000000101111000011110010011 at PC_x=01000164

--------------------------------------
01000168:  	00f12c23    	SW     x15, 1(x2)

--------------------------------------
0100016c:  	00812703    	LW     x14, 24(x2)
Insns: 00000000100000010010011100000011 at PC_x=0100016c

--------------------------------------
01000170:  	01c12783    	LW     x15, 8(x2)
Insns: 00000001110000010010011110000011 at PC_x=01000170

--------------------------------------
01000174:  	40f707b3    	SUB    x15, x14, x15

--------------------------------------
01000178:  	01812703    	LW     x14, 1039(x2)
Insns: 00000001100000010010011100000011 at PC_x=01000178

--------------------------------------
0100017c:  	f2f74ee3    	BLT    x14, x15, 1000194

--------------------------------------
010000b8:  	01812703    	LW     x14, 4294967100(x2)
Insns: 00000001100000010010011100000011 at PC_x=010000b8

--------------------------------------
010000bc:  	400007b7    	LUI    x15, 0x18
LUIOP

--------------------------------------
010000c0:  	fff78793    	ADDI   x15, x15, 1024
Insns: 11111111111101111000011110010011 at PC_x=010000c0

--------------------------------------
010000c4:  	00f707b3    	ADD    x15, x14, x15

--------------------------------------
010000c8:  	00279793    	SLLI   x15, x15, 0x2
Insns: 00000000001001111001011110010011 at PC_x=010000c8

--------------------------------------
010000cc:  	00c12703    	LW     x14, 2(x2)
Insns: 00000000110000010010011100000011 at PC_x=010000cc

--------------------------------------
010000d0:  	00f707b3    	ADD    x15, x14, x15

--------------------------------------
010000d4:  	0007a703    	LW     x14, 12(x15)
Insns: 00000000000001111010011100000011 at PC_x=010000d4

--------------------------------------
010000d8:  	01812783    	LW     x15, 0(x2)
Insns: 00000001100000010010011110000011 at PC_x=010000d8

--------------------------------------
010000dc:  	00279793    	SLLI   x15, x15, 0x2
Insns: 00000000001001111001011110010011 at PC_x=010000dc

--------------------------------------
010000e0:  	00c12683    	LW     x13, 2(x2)
Insns: 00000000110000010010011010000011 at PC_x=010000e0

--------------------------------------
010000e4:  	00f687b3    	ADD    x15, x13, x15

--------------------------------------
010000e8:  	0007a783    	LW     x15, 15(x15)
Insns: 00000000000001111010011110000011 at PC_x=010000e8

--------------------------------------
010000ec:  	06e7da63    	BGE    x15, x14, 10000ec

--------------------------------------
010000f0:  	01812703    	LW     x14, 116(x2)
Insns: 00000001100000010010011100000011 at PC_x=010000f0

--------------------------------------
010000f4:  	400007b7    	LUI    x15, 0x18
LUIOP

--------------------------------------
010000f8:  	fff78793    	ADDI   x15, x15, 1024
Insns: 11111111111101111000011110010011 at PC_x=010000f8

--------------------------------------
010000fc:  	00f707b3    	ADD    x15, x14, x15

--------------------------------------
01000100:  	00279793    	SLLI   x15, x15, 0x2
Insns: 00000000001001111001011110010011 at PC_x=01000100

--------------------------------------
01000104:  	00c12703    	LW     x14, 2(x2)
Insns: 00000000110000010010011100000011 at PC_x=01000104

--------------------------------------
01000108:  	00f707b3    	ADD    x15, x14, x15

--------------------------------------
0100010c:  	0007a783    	LW     x15, 12(x15)
Insns: 00000000000001111010011110000011 at PC_x=0100010c

--------------------------------------
01000110:  	00f12a23    	SW     x15, 0(x2)

--------------------------------------
01000114:  	01812783    	LW     x15, 20(x2)
Insns: 00000001100000010010011110000011 at PC_x=01000114

--------------------------------------
01000118:  	00279793    	SLLI   x15, x15, 0x2
Insns: 00000000001001111001011110010011 at PC_x=01000118

--------------------------------------
0100011c:  	00c12703    	LW     x14, 2(x2)
Insns: 00000000110000010010011100000011 at PC_x=0100011c

--------------------------------------
01000120:  	00f70733    	ADD    x14, x14, x15

--------------------------------------
01000124:  	01812683    	LW     x13, 12(x2)
Insns: 00000001100000010010011010000011 at PC_x=01000124

--------------------------------------
01000128:  	400007b7    	LUI    x15, 0x18
LUIOP

--------------------------------------
0100012c:  	fff78793    	ADDI   x15, x15, 24
Insns: 11111111111101111000011110010011 at PC_x=0100012c

--------------------------------------
01000130:  	00f687b3    	ADD    x15, x13, x15

--------------------------------------
01000134:  	00279793    	SLLI   x15, x15, 0x2
Insns: 00000000001001111001011110010011 at PC_x=01000134

--------------------------------------
01000138:  	00c12683    	LW     x13, 2(x2)
Insns: 00000000110000010010011010000011 at PC_x=01000138

--------------------------------------
0100013c:  	00f687b3    	ADD    x15, x13, x15

--------------------------------------
01000140:  	00072703    	LW     x14, 15(x14)
Insns: 00000000000001110010011100000011 at PC_x=01000140

--------------------------------------
01000144:  	00e7a023    	SW     x14, 0(x15)

--------------------------------------
01000148:  	01812783    	LW     x15, 0(x2)
Insns: 00000001100000010010011110000011 at PC_x=01000148

--------------------------------------
0100014c:  	00279793    	SLLI   x15, x15, 0x2
Insns: 00000000001001111001011110010011 at PC_x=0100014c

--------------------------------------
01000150:  	00c12703    	LW     x14, 2(x2)
Insns: 00000000110000010010011100000011 at PC_x=01000150

--------------------------------------
01000154:  	00f707b3    	ADD    x15, x14, x15

--------------------------------------
01000158:  	01412703    	LW     x14, 15(x2)
Insns: 00000001010000010010011100000011 at PC_x=01000158

--------------------------------------
0100015c:  	00e7a023    	SW     x14, 20(x15)

--------------------------------------
01000160:  	01812783    	LW     x15, 0(x2)
Insns: 00000001100000010010011110000011 at PC_x=01000160

--------------------------------------
01000164:  	00178793    	ADDI   x15, x15, 24
Insns: 00000000000101111000011110010011 at PC_x=01000164

--------------------------------------
01000168:  	00f12c23    	SW     x15, 1(x2)

--------------------------------------
0100016c:  	00812703    	LW     x14, 24(x2)
Insns: 00000000100000010010011100000011 at PC_x=0100016c

--------------------------------------
01000170:  	01c12783    	LW     x15, 8(x2)
Insns: 00000001110000010010011110000011 at PC_x=01000170

--------------------------------------
01000174:  	40f707b3    	SUB    x15, x14, x15

--------------------------------------
01000178:  	01812703    	LW     x14, 1039(x2)
Insns: 00000001100000010010011100000011 at PC_x=01000178

--------------------------------------
0100017c:  	f2f74ee3    	BLT    x14, x15, 1000194

--------------------------------------
010000b8:  	01812703    	LW     x14, 4294967100(x2)
Insns: 00000001100000010010011100000011 at PC_x=010000b8

--------------------------------------
010000bc:  	400007b7    	LUI    x15, 0x18
LUIOP

--------------------------------------
010000c0:  	fff78793    	ADDI   x15, x15, 1024
Insns: 11111111111101111000011110010011 at PC_x=010000c0

--------------------------------------
010000c4:  	00f707b3    	ADD    x15, x14, x15

--------------------------------------
010000c8:  	00279793    	SLLI   x15, x15, 0x2
Insns: 00000000001001111001011110010011 at PC_x=010000c8

--------------------------------------
010000cc:  	00c12703    	LW     x14, 2(x2)
Insns: 00000000110000010010011100000011 at PC_x=010000cc

--------------------------------------
010000d0:  	00f707b3    	ADD    x15, x14, x15

--------------------------------------
010000d4:  	0007a703    	LW     x14, 12(x15)
Insns: 00000000000001111010011100000011 at PC_x=010000d4

--------------------------------------
010000d8:  	01812783    	LW     x15, 0(x2)
Insns: 00000001100000010010011110000011 at PC_x=010000d8

--------------------------------------
010000dc:  	00279793    	SLLI   x15, x15, 0x2
Insns: 00000000001001111001011110010011 at PC_x=010000dc

--------------------------------------
010000e0:  	00c12683    	LW     x13, 2(x2)
Insns: 00000000110000010010011010000011 at PC_x=010000e0

--------------------------------------
010000e4:  	00f687b3    	ADD    x15, x13, x15

--------------------------------------
010000e8:  	0007a783    	LW     x15, 15(x15)
Insns: 00000000000001111010011110000011 at PC_x=010000e8

--------------------------------------
010000ec:  	06e7da63    	BGE    x15, x14, 10000ec

--------------------------------------
01000160:  	01812783    	LW     x15, 116(x2)
Insns: 00000001100000010010011110000011 at PC_x=01000160

--------------------------------------
01000164:  	00178793    	ADDI   x15, x15, 24
Insns: 00000000000101111000011110010011 at PC_x=01000164

--------------------------------------
01000168:  	00f12c23    	SW     x15, 1(x2)

--------------------------------------
0100016c:  	00812703    	LW     x14, 24(x2)
Insns: 00000000100000010010011100000011 at PC_x=0100016c

--------------------------------------
01000170:  	01c12783    	LW     x15, 8(x2)
Insns: 00000001110000010010011110000011 at PC_x=01000170

--------------------------------------
01000174:  	40f707b3    	SUB    x15, x14, x15

--------------------------------------
01000178:  	01812703    	LW     x14, 1039(x2)
Insns: 00000001100000010010011100000011 at PC_x=01000178

--------------------------------------
0100017c:  	f2f74ee3    	BLT    x14, x15, 1000194

--------------------------------------
01000180:  	01c12783    	LW     x15, 4294967100(x2)
Insns: 00000001110000010010011110000011 at PC_x=01000180

--------------------------------------
01000184:  	00178793    	ADDI   x15, x15, 28
Insns: 00000000000101111000011110010011 at PC_x=01000184

--------------------------------------
01000188:  	00f12e23    	SW     x15, 1(x2)

--------------------------------------
0100018c:  	01c12703    	LW     x14, 28(x2)
Insns: 00000001110000010010011100000011 at PC_x=0100018c

--------------------------------------
01000190:  	00812783    	LW     x15, 28(x2)
Insns: 00000000100000010010011110000011 at PC_x=01000190

--------------------------------------
01000194:  	f0f74ce3    	BLT    x14, x15, 100019c

--------------------------------------
010000ac:  	00100793    	ADDI   x15, x0, 4294967064
Insns: 00000000000100000000011110010011 at PC_x=010000ac

--------------------------------------
010000b0:  	00f12c23    	SW     x15, 1(x2)

--------------------------------------
010000b4:  	0b80006f    	JAL    x0, 10000cc

--------------------------------------
0100016c:  	00812703    	LW     x14, 184(x2)
Insns: 00000000100000010010011100000011 at PC_x=0100016c

--------------------------------------
01000170:  	01c12783    	LW     x15, 8(x2)
Insns: 00000001110000010010011110000011 at PC_x=01000170

--------------------------------------
01000174:  	40f707b3    	SUB    x15, x14, x15

--------------------------------------
01000178:  	01812703    	LW     x14, 1039(x2)
Insns: 00000001100000010010011100000011 at PC_x=01000178

--------------------------------------
0100017c:  	f2f74ee3    	BLT    x14, x15, 1000194

--------------------------------------
010000b8:  	01812703    	LW     x14, 4294967100(x2)
Insns: 00000001100000010010011100000011 at PC_x=010000b8

--------------------------------------
010000bc:  	400007b7    	LUI    x15, 0x18
LUIOP

--------------------------------------
010000c0:  	fff78793    	ADDI   x15, x15, 1024
Insns: 11111111111101111000011110010011 at PC_x=010000c0

--------------------------------------
010000c4:  	00f707b3    	ADD    x15, x14, x15

--------------------------------------
010000c8:  	00279793    	SLLI   x15, x15, 0x2
Insns: 00000000001001111001011110010011 at PC_x=010000c8

--------------------------------------
010000cc:  	00c12703    	LW     x14, 2(x2)
Insns: 00000000110000010010011100000011 at PC_x=010000cc

--------------------------------------
010000d0:  	00f707b3    	ADD    x15, x14, x15

--------------------------------------
010000d4:  	0007a703    	LW     x14, 12(x15)
Insns: 00000000000001111010011100000011 at PC_x=010000d4

--------------------------------------
010000d8:  	01812783    	LW     x15, 0(x2)
Insns: 00000001100000010010011110000011 at PC_x=010000d8

--------------------------------------
010000dc:  	00279793    	SLLI   x15, x15, 0x2
Insns: 00000000001001111001011110010011 at PC_x=010000dc

--------------------------------------
010000e0:  	00c12683    	LW     x13, 2(x2)
Insns: 00000000110000010010011010000011 at PC_x=010000e0

--------------------------------------
010000e4:  	00f687b3    	ADD    x15, x13, x15

--------------------------------------
010000e8:  	0007a783    	LW     x15, 15(x15)
Insns: 00000000000001111010011110000011 at PC_x=010000e8

--------------------------------------
010000ec:  	06e7da63    	BGE    x15, x14, 10000ec

--------------------------------------
010000f0:  	01812703    	LW     x14, 116(x2)
Insns: 00000001100000010010011100000011 at PC_x=010000f0

--------------------------------------
010000f4:  	400007b7    	LUI    x15, 0x18
LUIOP

--------------------------------------
010000f8:  	fff78793    	ADDI   x15, x15, 1024
Insns: 11111111111101111000011110010011 at PC_x=010000f8

--------------------------------------
010000fc:  	00f707b3    	ADD    x15, x14, x15

--------------------------------------
01000100:  	00279793    	SLLI   x15, x15, 0x2
Insns: 00000000001001111001011110010011 at PC_x=01000100

--------------------------------------
01000104:  	00c12703    	LW     x14, 2(x2)
Insns: 00000000110000010010011100000011 at PC_x=01000104

--------------------------------------
01000108:  	00f707b3    	ADD    x15, x14, x15

--------------------------------------
0100010c:  	0007a783    	LW     x15, 12(x15)
Insns: 00000000000001111010011110000011 at PC_x=0100010c

--------------------------------------
01000110:  	00f12a23    	SW     x15, 0(x2)

--------------------------------------
01000114:  	01812783    	LW     x15, 20(x2)
Insns: 00000001100000010010011110000011 at PC_x=01000114

--------------------------------------
01000118:  	00279793    	SLLI   x15, x15, 0x2
Insns: 00000000001001111001011110010011 at PC_x=01000118

--------------------------------------
0100011c:  	00c12703    	LW     x14, 2(x2)
Insns: 00000000110000010010011100000011 at PC_x=0100011c

--------------------------------------
01000120:  	00f70733    	ADD    x14, x14, x15

--------------------------------------
01000124:  	01812683    	LW     x13, 12(x2)
Insns: 00000001100000010010011010000011 at PC_x=01000124

--------------------------------------
01000128:  	400007b7    	LUI    x15, 0x18
LUIOP

--------------------------------------
0100012c:  	fff78793    	ADDI   x15, x15, 24
Insns: 11111111111101111000011110010011 at PC_x=0100012c

--------------------------------------
01000130:  	00f687b3    	ADD    x15, x13, x15

--------------------------------------
01000134:  	00279793    	SLLI   x15, x15, 0x2
Insns: 00000000001001111001011110010011 at PC_x=01000134

--------------------------------------
01000138:  	00c12683    	LW     x13, 2(x2)
Insns: 00000000110000010010011010000011 at PC_x=01000138

--------------------------------------
0100013c:  	00f687b3    	ADD    x15, x13, x15

--------------------------------------
01000140:  	00072703    	LW     x14, 15(x14)
Insns: 00000000000001110010011100000011 at PC_x=01000140

--------------------------------------
01000144:  	00e7a023    	SW     x14, 0(x15)

--------------------------------------
01000148:  	01812783    	LW     x15, 0(x2)
Insns: 00000001100000010010011110000011 at PC_x=01000148

--------------------------------------
0100014c:  	00279793    	SLLI   x15, x15, 0x2
Insns: 00000000001001111001011110010011 at PC_x=0100014c

--------------------------------------
01000150:  	00c12703    	LW     x14, 2(x2)
Insns: 00000000110000010010011100000011 at PC_x=01000150

--------------------------------------
01000154:  	00f707b3    	ADD    x15, x14, x15

--------------------------------------
01000158:  	01412703    	LW     x14, 15(x2)
Insns: 00000001010000010010011100000011 at PC_x=01000158

--------------------------------------
0100015c:  	00e7a023    	SW     x14, 20(x15)

--------------------------------------
01000160:  	01812783    	LW     x15, 0(x2)
Insns: 00000001100000010010011110000011 at PC_x=01000160

--------------------------------------
01000164:  	00178793    	ADDI   x15, x15, 24
Insns: 00000000000101111000011110010011 at PC_x=01000164

--------------------------------------
01000168:  	00f12c23    	SW     x15, 1(x2)

--------------------------------------
0100016c:  	00812703    	LW     x14, 24(x2)
Insns: 00000000100000010010011100000011 at PC_x=0100016c

--------------------------------------
01000170:  	01c12783    	LW     x15, 8(x2)
Insns: 00000001110000010010011110000011 at PC_x=01000170

--------------------------------------
01000174:  	40f707b3    	SUB    x15, x14, x15

--------------------------------------
01000178:  	01812703    	LW     x14, 1039(x2)
Insns: 00000001100000010010011100000011 at PC_x=01000178

--------------------------------------
0100017c:  	f2f74ee3    	BLT    x14, x15, 1000194

--------------------------------------
010000b8:  	01812703    	LW     x14, 4294967100(x2)
Insns: 00000001100000010010011100000011 at PC_x=010000b8

--------------------------------------
010000bc:  	400007b7    	LUI    x15, 0x18
LUIOP

--------------------------------------
010000c0:  	fff78793    	ADDI   x15, x15, 1024
Insns: 11111111111101111000011110010011 at PC_x=010000c0

--------------------------------------
010000c4:  	00f707b3    	ADD    x15, x14, x15

--------------------------------------
010000c8:  	00279793    	SLLI   x15, x15, 0x2
Insns: 00000000001001111001011110010011 at PC_x=010000c8

--------------------------------------
010000cc:  	00c12703    	LW     x14, 2(x2)
Insns: 00000000110000010010011100000011 at PC_x=010000cc

--------------------------------------
010000d0:  	00f707b3    	ADD    x15, x14, x15

--------------------------------------
010000d4:  	0007a703    	LW     x14, 12(x15)
Insns: 00000000000001111010011100000011 at PC_x=010000d4

--------------------------------------
010000d8:  	01812783    	LW     x15, 0(x2)
Insns: 00000001100000010010011110000011 at PC_x=010000d8

--------------------------------------
010000dc:  	00279793    	SLLI   x15, x15, 0x2
Insns: 00000000001001111001011110010011 at PC_x=010000dc

--------------------------------------
010000e0:  	00c12683    	LW     x13, 2(x2)
Insns: 00000000110000010010011010000011 at PC_x=010000e0

--------------------------------------
010000e4:  	00f687b3    	ADD    x15, x13, x15

--------------------------------------
010000e8:  	0007a783    	LW     x15, 15(x15)
Insns: 00000000000001111010011110000011 at PC_x=010000e8

--------------------------------------
010000ec:  	06e7da63    	BGE    x15, x14, 10000ec

--------------------------------------
010000f0:  	01812703    	LW     x14, 116(x2)
Insns: 00000001100000010010011100000011 at PC_x=010000f0

--------------------------------------
010000f4:  	400007b7    	LUI    x15, 0x18
LUIOP

--------------------------------------
010000f8:  	fff78793    	ADDI   x15, x15, 1024
Insns: 11111111111101111000011110010011 at PC_x=010000f8

--------------------------------------
010000fc:  	00f707b3    	ADD    x15, x14, x15

--------------------------------------
01000100:  	00279793    	SLLI   x15, x15, 0x2
Insns: 00000000001001111001011110010011 at PC_x=01000100

--------------------------------------
01000104:  	00c12703    	LW     x14, 2(x2)
Insns: 00000000110000010010011100000011 at PC_x=01000104

--------------------------------------
01000108:  	00f707b3    	ADD    x15, x14, x15

--------------------------------------
0100010c:  	0007a783    	LW     x15, 12(x15)
Insns: 00000000000001111010011110000011 at PC_x=0100010c

--------------------------------------
01000110:  	00f12a23    	SW     x15, 0(x2)

--------------------------------------
01000114:  	01812783    	LW     x15, 20(x2)
Insns: 00000001100000010010011110000011 at PC_x=01000114

--------------------------------------
01000118:  	00279793    	SLLI   x15, x15, 0x2
Insns: 00000000001001111001011110010011 at PC_x=01000118

--------------------------------------
0100011c:  	00c12703    	LW     x14, 2(x2)
Insns: 00000000110000010010011100000011 at PC_x=0100011c

--------------------------------------
01000120:  	00f70733    	ADD    x14, x14, x15

--------------------------------------
01000124:  	01812683    	LW     x13, 12(x2)
Insns: 00000001100000010010011010000011 at PC_x=01000124

--------------------------------------
01000128:  	400007b7    	LUI    x15, 0x18
LUIOP

--------------------------------------
0100012c:  	fff78793    	ADDI   x15, x15, 24
Insns: 11111111111101111000011110010011 at PC_x=0100012c

--------------------------------------
01000130:  	00f687b3    	ADD    x15, x13, x15

--------------------------------------
01000134:  	00279793    	SLLI   x15, x15, 0x2
Insns: 00000000001001111001011110010011 at PC_x=01000134

--------------------------------------
01000138:  	00c12683    	LW     x13, 2(x2)
Insns: 00000000110000010010011010000011 at PC_x=01000138

--------------------------------------
0100013c:  	00f687b3    	ADD    x15, x13, x15

--------------------------------------
01000140:  	00072703    	LW     x14, 15(x14)
Insns: 00000000000001110010011100000011 at PC_x=01000140

--------------------------------------
01000144:  	00e7a023    	SW     x14, 0(x15)

--------------------------------------
01000148:  	01812783    	LW     x15, 0(x2)
Insns: 00000001100000010010011110000011 at PC_x=01000148

--------------------------------------
0100014c:  	00279793    	SLLI   x15, x15, 0x2
Insns: 00000000001001111001011110010011 at PC_x=0100014c

--------------------------------------
01000150:  	00c12703    	LW     x14, 2(x2)
Insns: 00000000110000010010011100000011 at PC_x=01000150

--------------------------------------
01000154:  	00f707b3    	ADD    x15, x14, x15

--------------------------------------
01000158:  	01412703    	LW     x14, 15(x2)
Insns: 00000001010000010010011100000011 at PC_x=01000158

--------------------------------------
0100015c:  	00e7a023    	SW     x14, 20(x15)

--------------------------------------
01000160:  	01812783    	LW     x15, 0(x2)
Insns: 00000001100000010010011110000011 at PC_x=01000160

--------------------------------------
01000164:  	00178793    	ADDI   x15, x15, 24
Insns: 00000000000101111000011110010011 at PC_x=01000164

--------------------------------------
01000168:  	00f12c23    	SW     x15, 1(x2)

--------------------------------------
0100016c:  	00812703    	LW     x14, 24(x2)
Insns: 00000000100000010010011100000011 at PC_x=0100016c

--------------------------------------
01000170:  	01c12783    	LW     x15, 8(x2)
Insns: 00000001110000010010011110000011 at PC_x=01000170

--------------------------------------
01000174:  	40f707b3    	SUB    x15, x14, x15

--------------------------------------
01000178:  	01812703    	LW     x14, 1039(x2)
Insns: 00000001100000010010011100000011 at PC_x=01000178

--------------------------------------
0100017c:  	f2f74ee3    	BLT    x14, x15, 1000194

--------------------------------------
010000b8:  	01812703    	LW     x14, 4294967100(x2)
Insns: 00000001100000010010011100000011 at PC_x=010000b8

--------------------------------------
010000bc:  	400007b7    	LUI    x15, 0x18
LUIOP

--------------------------------------
010000c0:  	fff78793    	ADDI   x15, x15, 1024
Insns: 11111111111101111000011110010011 at PC_x=010000c0

--------------------------------------
010000c4:  	00f707b3    	ADD    x15, x14, x15

--------------------------------------
010000c8:  	00279793    	SLLI   x15, x15, 0x2
Insns: 00000000001001111001011110010011 at PC_x=010000c8

--------------------------------------
010000cc:  	00c12703    	LW     x14, 2(x2)
Insns: 00000000110000010010011100000011 at PC_x=010000cc

--------------------------------------
010000d0:  	00f707b3    	ADD    x15, x14, x15

--------------------------------------
010000d4:  	0007a703    	LW     x14, 12(x15)
Insns: 00000000000001111010011100000011 at PC_x=010000d4

--------------------------------------
010000d8:  	01812783    	LW     x15, 0(x2)
Insns: 00000001100000010010011110000011 at PC_x=010000d8

--------------------------------------
010000dc:  	00279793    	SLLI   x15, x15, 0x2
Insns: 00000000001001111001011110010011 at PC_x=010000dc

--------------------------------------
010000e0:  	00c12683    	LW     x13, 2(x2)
Insns: 00000000110000010010011010000011 at PC_x=010000e0

--------------------------------------
010000e4:  	00f687b3    	ADD    x15, x13, x15

--------------------------------------
010000e8:  	0007a783    	LW     x15, 15(x15)
Insns: 00000000000001111010011110000011 at PC_x=010000e8

--------------------------------------
010000ec:  	06e7da63    	BGE    x15, x14, 10000ec

--------------------------------------
01000160:  	01812783    	LW     x15, 116(x2)
Insns: 00000001100000010010011110000011 at PC_x=01000160

--------------------------------------
01000164:  	00178793    	ADDI   x15, x15, 24
Insns: 00000000000101111000011110010011 at PC_x=01000164

--------------------------------------
01000168:  	00f12c23    	SW     x15, 1(x2)

--------------------------------------
0100016c:  	00812703    	LW     x14, 24(x2)
Insns: 00000000100000010010011100000011 at PC_x=0100016c

--------------------------------------
01000170:  	01c12783    	LW     x15, 8(x2)
Insns: 00000001110000010010011110000011 at PC_x=01000170

--------------------------------------
01000174:  	40f707b3    	SUB    x15, x14, x15

--------------------------------------
01000178:  	01812703    	LW     x14, 1039(x2)
Insns: 00000001100000010010011100000011 at PC_x=01000178

--------------------------------------
0100017c:  	f2f74ee3    	BLT    x14, x15, 1000194

--------------------------------------
01000180:  	01c12783    	LW     x15, 4294967100(x2)
Insns: 00000001110000010010011110000011 at PC_x=01000180

--------------------------------------
01000184:  	00178793    	ADDI   x15, x15, 28
Insns: 00000000000101111000011110010011 at PC_x=01000184

--------------------------------------
01000188:  	00f12e23    	SW     x15, 1(x2)

--------------------------------------
0100018c:  	01c12703    	LW     x14, 28(x2)
Insns: 00000001110000010010011100000011 at PC_x=0100018c

--------------------------------------
01000190:  	00812783    	LW     x15, 28(x2)
Insns: 00000000100000010010011110000011 at PC_x=01000190

--------------------------------------
01000194:  	f0f74ce3    	BLT    x14, x15, 100019c

--------------------------------------
010000ac:  	00100793    	ADDI   x15, x0, 4294967064
Insns: 00000000000100000000011110010011 at PC_x=010000ac

--------------------------------------
010000b0:  	00f12c23    	SW     x15, 1(x2)

--------------------------------------
010000b4:  	0b80006f    	JAL    x0, 10000cc

--------------------------------------
0100016c:  	00812703    	LW     x14, 184(x2)
Insns: 00000000100000010010011100000011 at PC_x=0100016c

--------------------------------------
01000170:  	01c12783    	LW     x15, 8(x2)
Insns: 00000001110000010010011110000011 at PC_x=01000170

--------------------------------------
01000174:  	40f707b3    	SUB    x15, x14, x15

--------------------------------------
01000178:  	01812703    	LW     x14, 1039(x2)
Insns: 00000001100000010010011100000011 at PC_x=01000178

--------------------------------------
0100017c:  	f2f74ee3    	BLT    x14, x15, 1000194

--------------------------------------
010000b8:  	01812703    	LW     x14, 4294967100(x2)
Insns: 00000001100000010010011100000011 at PC_x=010000b8

--------------------------------------
010000bc:  	400007b7    	LUI    x15, 0x18
LUIOP

--------------------------------------
010000c0:  	fff78793    	ADDI   x15, x15, 1024
Insns: 11111111111101111000011110010011 at PC_x=010000c0

--------------------------------------
010000c4:  	00f707b3    	ADD    x15, x14, x15

--------------------------------------
010000c8:  	00279793    	SLLI   x15, x15, 0x2
Insns: 00000000001001111001011110010011 at PC_x=010000c8

--------------------------------------
010000cc:  	00c12703    	LW     x14, 2(x2)
Insns: 00000000110000010010011100000011 at PC_x=010000cc

--------------------------------------
010000d0:  	00f707b3    	ADD    x15, x14, x15

--------------------------------------
010000d4:  	0007a703    	LW     x14, 12(x15)
Insns: 00000000000001111010011100000011 at PC_x=010000d4

--------------------------------------
010000d8:  	01812783    	LW     x15, 0(x2)
Insns: 00000001100000010010011110000011 at PC_x=010000d8

--------------------------------------
010000dc:  	00279793    	SLLI   x15, x15, 0x2
Insns: 00000000001001111001011110010011 at PC_x=010000dc

--------------------------------------
010000e0:  	00c12683    	LW     x13, 2(x2)
Insns: 00000000110000010010011010000011 at PC_x=010000e0

--------------------------------------
010000e4:  	00f687b3    	ADD    x15, x13, x15

--------------------------------------
010000e8:  	0007a783    	LW     x15, 15(x15)
Insns: 00000000000001111010011110000011 at PC_x=010000e8

--------------------------------------
010000ec:  	06e7da63    	BGE    x15, x14, 10000ec

--------------------------------------
01000160:  	01812783    	LW     x15, 116(x2)
Insns: 00000001100000010010011110000011 at PC_x=01000160

--------------------------------------
01000164:  	00178793    	ADDI   x15, x15, 24
Insns: 00000000000101111000011110010011 at PC_x=01000164

--------------------------------------
01000168:  	00f12c23    	SW     x15, 1(x2)

--------------------------------------
0100016c:  	00812703    	LW     x14, 24(x2)
Insns: 00000000100000010010011100000011 at PC_x=0100016c

--------------------------------------
01000170:  	01c12783    	LW     x15, 8(x2)
Insns: 00000001110000010010011110000011 at PC_x=01000170

--------------------------------------
01000174:  	40f707b3    	SUB    x15, x14, x15

--------------------------------------
01000178:  	01812703    	LW     x14, 1039(x2)
Insns: 00000001100000010010011100000011 at PC_x=01000178

--------------------------------------
0100017c:  	f2f74ee3    	BLT    x14, x15, 1000194

--------------------------------------
010000b8:  	01812703    	LW     x14, 4294967100(x2)
Insns: 00000001100000010010011100000011 at PC_x=010000b8

--------------------------------------
010000bc:  	400007b7    	LUI    x15, 0x18
LUIOP

--------------------------------------
010000c0:  	fff78793    	ADDI   x15, x15, 1024
Insns: 11111111111101111000011110010011 at PC_x=010000c0

--------------------------------------
010000c4:  	00f707b3    	ADD    x15, x14, x15

--------------------------------------
010000c8:  	00279793    	SLLI   x15, x15, 0x2
Insns: 00000000001001111001011110010011 at PC_x=010000c8

--------------------------------------
010000cc:  	00c12703    	LW     x14, 2(x2)
Insns: 00000000110000010010011100000011 at PC_x=010000cc

--------------------------------------
010000d0:  	00f707b3    	ADD    x15, x14, x15

--------------------------------------
010000d4:  	0007a703    	LW     x14, 12(x15)
Insns: 00000000000001111010011100000011 at PC_x=010000d4

--------------------------------------
010000d8:  	01812783    	LW     x15, 0(x2)
Insns: 00000001100000010010011110000011 at PC_x=010000d8

--------------------------------------
010000dc:  	00279793    	SLLI   x15, x15, 0x2
Insns: 00000000001001111001011110010011 at PC_x=010000dc

--------------------------------------
010000e0:  	00c12683    	LW     x13, 2(x2)
Insns: 00000000110000010010011010000011 at PC_x=010000e0

--------------------------------------
010000e4:  	00f687b3    	ADD    x15, x13, x15

--------------------------------------
010000e8:  	0007a783    	LW     x15, 15(x15)
Insns: 00000000000001111010011110000011 at PC_x=010000e8

--------------------------------------
010000ec:  	06e7da63    	BGE    x15, x14, 10000ec

--------------------------------------
01000160:  	01812783    	LW     x15, 116(x2)
Insns: 00000001100000010010011110000011 at PC_x=01000160

--------------------------------------
01000164:  	00178793    	ADDI   x15, x15, 24
Insns: 00000000000101111000011110010011 at PC_x=01000164

--------------------------------------
01000168:  	00f12c23    	SW     x15, 1(x2)

--------------------------------------
0100016c:  	00812703    	LW     x14, 24(x2)
Insns: 00000000100000010010011100000011 at PC_x=0100016c

--------------------------------------
01000170:  	01c12783    	LW     x15, 8(x2)
Insns: 00000001110000010010011110000011 at PC_x=01000170

--------------------------------------
01000174:  	40f707b3    	SUB    x15, x14, x15

--------------------------------------
01000178:  	01812703    	LW     x14, 1039(x2)
Insns: 00000001100000010010011100000011 at PC_x=01000178

--------------------------------------
0100017c:  	f2f74ee3    	BLT    x14, x15, 1000194

--------------------------------------
01000180:  	01c12783    	LW     x15, 4294967100(x2)
Insns: 00000001110000010010011110000011 at PC_x=01000180

--------------------------------------
01000184:  	00178793    	ADDI   x15, x15, 28
Insns: 00000000000101111000011110010011 at PC_x=01000184

--------------------------------------
01000188:  	00f12e23    	SW     x15, 1(x2)

--------------------------------------
0100018c:  	01c12703    	LW     x14, 28(x2)
Insns: 00000001110000010010011100000011 at PC_x=0100018c

--------------------------------------
01000190:  	00812783    	LW     x15, 28(x2)
Insns: 00000000100000010010011110000011 at PC_x=01000190

--------------------------------------
01000194:  	f0f74ce3    	BLT    x14, x15, 100019c

--------------------------------------
010000ac:  	00100793    	ADDI   x15, x0, 4294967064
Insns: 00000000000100000000011110010011 at PC_x=010000ac

--------------------------------------
010000b0:  	00f12c23    	SW     x15, 1(x2)

--------------------------------------
010000b4:  	0b80006f    	JAL    x0, 10000cc

--------------------------------------
0100016c:  	00812703    	LW     x14, 184(x2)
Insns: 00000000100000010010011100000011 at PC_x=0100016c

--------------------------------------
01000170:  	01c12783    	LW     x15, 8(x2)
Insns: 00000001110000010010011110000011 at PC_x=01000170

--------------------------------------
01000174:  	40f707b3    	SUB    x15, x14, x15

--------------------------------------
01000178:  	01812703    	LW     x14, 1039(x2)
Insns: 00000001100000010010011100000011 at PC_x=01000178

--------------------------------------
0100017c:  	f2f74ee3    	BLT    x14, x15, 1000194

--------------------------------------
010000b8:  	01812703    	LW     x14, 4294967100(x2)
Insns: 00000001100000010010011100000011 at PC_x=010000b8

--------------------------------------
010000bc:  	400007b7    	LUI    x15, 0x18
LUIOP

--------------------------------------
010000c0:  	fff78793    	ADDI   x15, x15, 1024
Insns: 11111111111101111000011110010011 at PC_x=010000c0

--------------------------------------
010000c4:  	00f707b3    	ADD    x15, x14, x15

--------------------------------------
010000c8:  	00279793    	SLLI   x15, x15, 0x2
Insns: 00000000001001111001011110010011 at PC_x=010000c8

--------------------------------------
010000cc:  	00c12703    	LW     x14, 2(x2)
Insns: 00000000110000010010011100000011 at PC_x=010000cc

--------------------------------------
010000d0:  	00f707b3    	ADD    x15, x14, x15

--------------------------------------
010000d4:  	0007a703    	LW     x14, 12(x15)
Insns: 00000000000001111010011100000011 at PC_x=010000d4

--------------------------------------
010000d8:  	01812783    	LW     x15, 0(x2)
Insns: 00000001100000010010011110000011 at PC_x=010000d8

--------------------------------------
010000dc:  	00279793    	SLLI   x15, x15, 0x2
Insns: 00000000001001111001011110010011 at PC_x=010000dc

--------------------------------------
010000e0:  	00c12683    	LW     x13, 2(x2)
Insns: 00000000110000010010011010000011 at PC_x=010000e0

--------------------------------------
010000e4:  	00f687b3    	ADD    x15, x13, x15

--------------------------------------
010000e8:  	0007a783    	LW     x15, 15(x15)
Insns: 00000000000001111010011110000011 at PC_x=010000e8

--------------------------------------
010000ec:  	06e7da63    	BGE    x15, x14, 10000ec

--------------------------------------
01000160:  	01812783    	LW     x15, 116(x2)
Insns: 00000001100000010010011110000011 at PC_x=01000160

--------------------------------------
01000164:  	00178793    	ADDI   x15, x15, 24
Insns: 00000000000101111000011110010011 at PC_x=01000164

--------------------------------------
01000168:  	00f12c23    	SW     x15, 1(x2)

--------------------------------------
0100016c:  	00812703    	LW     x14, 24(x2)
Insns: 00000000100000010010011100000011 at PC_x=0100016c

--------------------------------------
01000170:  	01c12783    	LW     x15, 8(x2)
Insns: 00000001110000010010011110000011 at PC_x=01000170

--------------------------------------
01000174:  	40f707b3    	SUB    x15, x14, x15

--------------------------------------
01000178:  	01812703    	LW     x14, 1039(x2)
Insns: 00000001100000010010011100000011 at PC_x=01000178

--------------------------------------
0100017c:  	f2f74ee3    	BLT    x14, x15, 1000194

--------------------------------------
01000180:  	01c12783    	LW     x15, 4294967100(x2)
Insns: 00000001110000010010011110000011 at PC_x=01000180

--------------------------------------
01000184:  	00178793    	ADDI   x15, x15, 28
Insns: 00000000000101111000011110010011 at PC_x=01000184

--------------------------------------
01000188:  	00f12e23    	SW     x15, 1(x2)

--------------------------------------
0100018c:  	01c12703    	LW     x14, 28(x2)
Insns: 00000001110000010010011100000011 at PC_x=0100018c

--------------------------------------
01000190:  	00812783    	LW     x15, 28(x2)
Insns: 00000000100000010010011110000011 at PC_x=01000190

--------------------------------------
01000194:  	f0f74ce3    	BLT    x14, x15, 100019c

--------------------------------------
010000ac:  	00100793    	ADDI   x15, x0, 4294967064
Insns: 00000000000100000000011110010011 at PC_x=010000ac

--------------------------------------
010000b0:  	00f12c23    	SW     x15, 1(x2)

--------------------------------------
010000b4:  	0b80006f    	JAL    x0, 10000cc

--------------------------------------
0100016c:  	00812703    	LW     x14, 184(x2)
Insns: 00000000100000010010011100000011 at PC_x=0100016c

--------------------------------------
01000170:  	01c12783    	LW     x15, 8(x2)
Insns: 00000001110000010010011110000011 at PC_x=01000170

--------------------------------------
01000174:  	40f707b3    	SUB    x15, x14, x15

--------------------------------------
01000178:  	01812703    	LW     x14, 1039(x2)
Insns: 00000001100000010010011100000011 at PC_x=01000178

--------------------------------------
0100017c:  	f2f74ee3    	BLT    x14, x15, 1000194

--------------------------------------
01000180:  	01c12783    	LW     x15, 4294967100(x2)
Insns: 00000001110000010010011110000011 at PC_x=01000180

--------------------------------------
01000184:  	00178793    	ADDI   x15, x15, 28
Insns: 00000000000101111000011110010011 at PC_x=01000184

--------------------------------------
01000188:  	00f12e23    	SW     x15, 1(x2)

--------------------------------------
0100018c:  	01c12703    	LW     x14, 28(x2)
Insns: 00000001110000010010011100000011 at PC_x=0100018c

--------------------------------------
01000190:  	00812783    	LW     x15, 28(x2)
Insns: 00000000100000010010011110000011 at PC_x=01000190

--------------------------------------
01000194:  	f0f74ce3    	BLT    x14, x15, 100019c

--------------------------------------
01000198:  	00000013    	ADDI   x0, x0, 4294967064
Insns: 00000000000000000000000000010011 at PC_x=01000198

--------------------------------------
0100019c:  	02010113    	ADDI   x2, x2, 0
Insns: 00000010000000010000000100010011 at PC_x=0100019c

--------------------------------------
010001a0:  	00008067    	JALR   x0, 32(x1)
Insns: 00000000000000001000000001100111 at PC_x=010001a0

--------------------------------------
01000078:  	00010793    	ADDI   x15, x2, 0
Insns: 00000000000000010000011110010011 at PC_x=01000078

--------------------------------------
0100007c:  	00078513    	ADDI   x10, x15, 0
Insns: 00000000000001111000010100010011 at PC_x=0100007c

--------------------------------------
01000080:  	124000ef    	JAL    x1, 1000080

--------------------------------------
010001a4:  	fd010113    	ADDI   x2, x2, 292
Insns: 11111101000000010000000100010011 at PC_x=010001a4

--------------------------------------
010001a8:  	02112623    	SW     x1, 4294967248(x2)

--------------------------------------
010001ac:  	00a12623    	SW     x10, 44(x2)

--------------------------------------
010001b0:  	00100793    	ADDI   x15, x0, 12
Insns: 00000000000100000000011110010011 at PC_x=010001b0

--------------------------------------
010001b4:  	00f12c23    	SW     x15, 1(x2)

--------------------------------------
010001b8:  	00012e23    	SW     x0, 24(x2)

--------------------------------------

--------------------------------------
010001c0:  	04c0006f    	JAL    x0, 10001dc

--------------------------------------
0100020c:  	01c12703    	LW     x14, 76(x2)
Insns: 00000001110000010010011100000011 at PC_x=0100020c

--------------------------------------
01000210:  	00600793    	ADDI   x15, x0, 28
Insns: 00000000011000000000011110010011 at PC_x=01000210

--------------------------------------
01000214:  	fae7d8e3    	BGE    x15, x14, 100021a

--------------------------------------
010001c4:  	01c12783    	LW     x15, 4294967216(x2)
Insns: 00000001110000010010011110000011 at PC_x=010001c4

--------------------------------------
010001c8:  	00279793    	SLLI   x15, x15, 0x2
Insns: 00000000001001111001011110010011 at PC_x=010001c8

--------------------------------------
010001cc:  	00c12703    	LW     x14, 2(x2)
Insns: 00000000110000010010011100000011 at PC_x=010001cc

--------------------------------------
010001d0:  	00f707b3    	ADD    x15, x14, x15

--------------------------------------
010001d4:  	0007a703    	LW     x14, 12(x15)
Insns: 00000000000001111010011100000011 at PC_x=010001d4

--------------------------------------
010001d8:  	01c12783    	LW     x15, 0(x2)
Insns: 00000001110000010010011110000011 at PC_x=010001d8

--------------------------------------
010001dc:  	00178793    	ADDI   x15, x15, 28
Insns: 00000000000101111000011110010011 at PC_x=010001dc

--------------------------------------
010001e0:  	00279793    	SLLI   x15, x15, 0x2
Insns: 00000000001001111001011110010011 at PC_x=010001e0

--------------------------------------
010001e4:  	00c12683    	LW     x13, 2(x2)
Insns: 00000000110000010010011010000011 at PC_x=010001e4

--------------------------------------
010001e8:  	00f687b3    	ADD    x15, x13, x15

--------------------------------------
010001ec:  	0007a783    	LW     x15, 12(x15)
Insns: 00000000000001111010011110000011 at PC_x=010001ec

--------------------------------------
010001f0:  	00e7d863    	BGE    x15, x14, 10001f0

--------------------------------------
01000200:  	01c12783    	LW     x15, 16(x2)
Insns: 00000001110000010010011110000011 at PC_x=01000200

--------------------------------------
01000204:  	00178793    	ADDI   x15, x15, 28
Insns: 00000000000101111000011110010011 at PC_x=01000204

--------------------------------------
01000208:  	00f12e23    	SW     x15, 1(x2)

--------------------------------------
0100020c:  	01c12703    	LW     x14, 28(x2)
Insns: 00000001110000010010011100000011 at PC_x=0100020c

--------------------------------------
01000210:  	00600793    	ADDI   x15, x0, 28
Insns: 00000000011000000000011110010011 at PC_x=01000210

--------------------------------------
01000214:  	fae7d8e3    	BGE    x15, x14, 100021a

--------------------------------------
010001c4:  	01c12783    	LW     x15, 4294967216(x2)
Insns: 00000001110000010010011110000011 at PC_x=010001c4

--------------------------------------
010001c8:  	00279793    	SLLI   x15, x15, 0x2
Insns: 00000000001001111001011110010011 at PC_x=010001c8

--------------------------------------
010001cc:  	00c12703    	LW     x14, 2(x2)
Insns: 00000000110000010010011100000011 at PC_x=010001cc

--------------------------------------
010001d0:  	00f707b3    	ADD    x15, x14, x15

--------------------------------------
010001d4:  	0007a703    	LW     x14, 12(x15)
Insns: 00000000000001111010011100000011 at PC_x=010001d4

--------------------------------------
010001d8:  	01c12783    	LW     x15, 0(x2)
Insns: 00000001110000010010011110000011 at PC_x=010001d8

--------------------------------------
010001dc:  	00178793    	ADDI   x15, x15, 28
Insns: 00000000000101111000011110010011 at PC_x=010001dc

--------------------------------------
010001e0:  	00279793    	SLLI   x15, x15, 0x2
Insns: 00000000001001111001011110010011 at PC_x=010001e0

--------------------------------------
010001e4:  	00c12683    	LW     x13, 2(x2)
Insns: 00000000110000010010011010000011 at PC_x=010001e4

--------------------------------------
010001e8:  	00f687b3    	ADD    x15, x13, x15

--------------------------------------
010001ec:  	0007a783    	LW     x15, 12(x15)
Insns: 00000000000001111010011110000011 at PC_x=010001ec

--------------------------------------
010001f0:  	00e7d863    	BGE    x15, x14, 10001f0

--------------------------------------
01000200:  	01c12783    	LW     x15, 16(x2)
Insns: 00000001110000010010011110000011 at PC_x=01000200

--------------------------------------
01000204:  	00178793    	ADDI   x15, x15, 28
Insns: 00000000000101111000011110010011 at PC_x=01000204

--------------------------------------
01000208:  	00f12e23    	SW     x15, 1(x2)

--------------------------------------
0100020c:  	01c12703    	LW     x14, 28(x2)
Insns: 00000001110000010010011100000011 at PC_x=0100020c

--------------------------------------
01000210:  	00600793    	ADDI   x15, x0, 28
Insns: 00000000011000000000011110010011 at PC_x=01000210

--------------------------------------
01000214:  	fae7d8e3    	BGE    x15, x14, 100021a

--------------------------------------
010001c4:  	01c12783    	LW     x15, 4294967216(x2)
Insns: 00000001110000010010011110000011 at PC_x=010001c4

--------------------------------------
010001c8:  	00279793    	SLLI   x15, x15, 0x2
Insns: 00000000001001111001011110010011 at PC_x=010001c8

--------------------------------------
010001cc:  	00c12703    	LW     x14, 2(x2)
Insns: 00000000110000010010011100000011 at PC_x=010001cc

--------------------------------------
010001d0:  	00f707b3    	ADD    x15, x14, x15

--------------------------------------
010001d4:  	0007a703    	LW     x14, 12(x15)
Insns: 00000000000001111010011100000011 at PC_x=010001d4

--------------------------------------
010001d8:  	01c12783    	LW     x15, 0(x2)
Insns: 00000001110000010010011110000011 at PC_x=010001d8

--------------------------------------
010001dc:  	00178793    	ADDI   x15, x15, 28
Insns: 00000000000101111000011110010011 at PC_x=010001dc

--------------------------------------
010001e0:  	00279793    	SLLI   x15, x15, 0x2
Insns: 00000000001001111001011110010011 at PC_x=010001e0

--------------------------------------
010001e4:  	00c12683    	LW     x13, 2(x2)
Insns: 00000000110000010010011010000011 at PC_x=010001e4

--------------------------------------
010001e8:  	00f687b3    	ADD    x15, x13, x15

--------------------------------------
010001ec:  	0007a783    	LW     x15, 12(x15)
Insns: 00000000000001111010011110000011 at PC_x=010001ec

--------------------------------------
010001f0:  	00e7d863    	BGE    x15, x14, 10001f0

--------------------------------------
01000200:  	01c12783    	LW     x15, 16(x2)
Insns: 00000001110000010010011110000011 at PC_x=01000200

--------------------------------------
01000204:  	00178793    	ADDI   x15, x15, 28
Insns: 00000000000101111000011110010011 at PC_x=01000204

--------------------------------------
01000208:  	00f12e23    	SW     x15, 1(x2)

--------------------------------------
0100020c:  	01c12703    	LW     x14, 28(x2)
Insns: 00000001110000010010011100000011 at PC_x=0100020c

--------------------------------------
01000210:  	00600793    	ADDI   x15, x0, 28
Insns: 00000000011000000000011110010011 at PC_x=01000210

--------------------------------------
01000214:  	fae7d8e3    	BGE    x15, x14, 100021a

--------------------------------------
010001c4:  	01c12783    	LW     x15, 4294967216(x2)
Insns: 00000001110000010010011110000011 at PC_x=010001c4

--------------------------------------
010001c8:  	00279793    	SLLI   x15, x15, 0x2
Insns: 00000000001001111001011110010011 at PC_x=010001c8

--------------------------------------
010001cc:  	00c12703    	LW     x14, 2(x2)
Insns: 00000000110000010010011100000011 at PC_x=010001cc

--------------------------------------
010001d0:  	00f707b3    	ADD    x15, x14, x15

--------------------------------------
010001d4:  	0007a703    	LW     x14, 12(x15)
Insns: 00000000000001111010011100000011 at PC_x=010001d4

--------------------------------------
010001d8:  	01c12783    	LW     x15, 0(x2)
Insns: 00000001110000010010011110000011 at PC_x=010001d8

--------------------------------------
010001dc:  	00178793    	ADDI   x15, x15, 28
Insns: 00000000000101111000011110010011 at PC_x=010001dc

--------------------------------------
010001e0:  	00279793    	SLLI   x15, x15, 0x2
Insns: 00000000001001111001011110010011 at PC_x=010001e0

--------------------------------------
010001e4:  	00c12683    	LW     x13, 2(x2)
Insns: 00000000110000010010011010000011 at PC_x=010001e4

--------------------------------------
010001e8:  	00f687b3    	ADD    x15, x13, x15

--------------------------------------
010001ec:  	0007a783    	LW     x15, 12(x15)
Insns: 00000000000001111010011110000011 at PC_x=010001ec

--------------------------------------
010001f0:  	00e7d863    	BGE    x15, x14, 10001f0

--------------------------------------
01000200:  	01c12783    	LW     x15, 16(x2)
Insns: 00000001110000010010011110000011 at PC_x=01000200

--------------------------------------
01000204:  	00178793    	ADDI   x15, x15, 28
Insns: 00000000000101111000011110010011 at PC_x=01000204

--------------------------------------
01000208:  	00f12e23    	SW     x15, 1(x2)

--------------------------------------
0100020c:  	01c12703    	LW     x14, 28(x2)
Insns: 00000001110000010010011100000011 at PC_x=0100020c

--------------------------------------
01000210:  	00600793    	ADDI   x15, x0, 28
Insns: 00000000011000000000011110010011 at PC_x=01000210

--------------------------------------
01000214:  	fae7d8e3    	BGE    x15, x14, 100021a

--------------------------------------
010001c4:  	01c12783    	LW     x15, 4294967216(x2)
Insns: 00000001110000010010011110000011 at PC_x=010001c4

--------------------------------------
010001c8:  	00279793    	SLLI   x15, x15, 0x2
Insns: 00000000001001111001011110010011 at PC_x=010001c8

--------------------------------------
010001cc:  	00c12703    	LW     x14, 2(x2)
Insns: 00000000110000010010011100000011 at PC_x=010001cc

--------------------------------------
010001d0:  	00f707b3    	ADD    x15, x14, x15

--------------------------------------
010001d4:  	0007a703    	LW     x14, 12(x15)
Insns: 00000000000001111010011100000011 at PC_x=010001d4

--------------------------------------
010001d8:  	01c12783    	LW     x15, 0(x2)
Insns: 00000001110000010010011110000011 at PC_x=010001d8

--------------------------------------
010001dc:  	00178793    	ADDI   x15, x15, 28
Insns: 00000000000101111000011110010011 at PC_x=010001dc

--------------------------------------
010001e0:  	00279793    	SLLI   x15, x15, 0x2
Insns: 00000000001001111001011110010011 at PC_x=010001e0

--------------------------------------
010001e4:  	00c12683    	LW     x13, 2(x2)
Insns: 00000000110000010010011010000011 at PC_x=010001e4

--------------------------------------
010001e8:  	00f687b3    	ADD    x15, x13, x15

--------------------------------------
010001ec:  	0007a783    	LW     x15, 12(x15)
Insns: 00000000000001111010011110000011 at PC_x=010001ec

--------------------------------------
010001f0:  	00e7d863    	BGE    x15, x14, 10001f0

--------------------------------------
01000200:  	01c12783    	LW     x15, 16(x2)
Insns: 00000001110000010010011110000011 at PC_x=01000200

--------------------------------------
01000204:  	00178793    	ADDI   x15, x15, 28
Insns: 00000000000101111000011110010011 at PC_x=01000204

--------------------------------------
01000208:  	00f12e23    	SW     x15, 1(x2)

--------------------------------------
0100020c:  	01c12703    	LW     x14, 28(x2)
Insns: 00000001110000010010011100000011 at PC_x=0100020c

--------------------------------------
01000210:  	00600793    	ADDI   x15, x0, 28
Insns: 00000000011000000000011110010011 at PC_x=01000210

--------------------------------------
01000214:  	fae7d8e3    	BGE    x15, x14, 100021a

--------------------------------------
010001c4:  	01c12783    	LW     x15, 4294967216(x2)
Insns: 00000001110000010010011110000011 at PC_x=010001c4

--------------------------------------
010001c8:  	00279793    	SLLI   x15, x15, 0x2
Insns: 00000000001001111001011110010011 at PC_x=010001c8

--------------------------------------
010001cc:  	00c12703    	LW     x14, 2(x2)
Insns: 00000000110000010010011100000011 at PC_x=010001cc

--------------------------------------
010001d0:  	00f707b3    	ADD    x15, x14, x15

--------------------------------------
010001d4:  	0007a703    	LW     x14, 12(x15)
Insns: 00000000000001111010011100000011 at PC_x=010001d4

--------------------------------------
010001d8:  	01c12783    	LW     x15, 0(x2)
Insns: 00000001110000010010011110000011 at PC_x=010001d8

--------------------------------------
010001dc:  	00178793    	ADDI   x15, x15, 28
Insns: 00000000000101111000011110010011 at PC_x=010001dc

--------------------------------------
010001e0:  	00279793    	SLLI   x15, x15, 0x2
Insns: 00000000001001111001011110010011 at PC_x=010001e0

--------------------------------------
010001e4:  	00c12683    	LW     x13, 2(x2)
Insns: 00000000110000010010011010000011 at PC_x=010001e4

--------------------------------------
010001e8:  	00f687b3    	ADD    x15, x13, x15

--------------------------------------
010001ec:  	0007a783    	LW     x15, 12(x15)
Insns: 00000000000001111010011110000011 at PC_x=010001ec

--------------------------------------
010001f0:  	00e7d863    	BGE    x15, x14, 10001f0

--------------------------------------
01000200:  	01c12783    	LW     x15, 16(x2)
Insns: 00000001110000010010011110000011 at PC_x=01000200

--------------------------------------
01000204:  	00178793    	ADDI   x15, x15, 28
Insns: 00000000000101111000011110010011 at PC_x=01000204

--------------------------------------
01000208:  	00f12e23    	SW     x15, 1(x2)

--------------------------------------
0100020c:  	01c12703    	LW     x14, 28(x2)
Insns: 00000001110000010010011100000011 at PC_x=0100020c

--------------------------------------
01000210:  	00600793    	ADDI   x15, x0, 28
Insns: 00000000011000000000011110010011 at PC_x=01000210

--------------------------------------
01000214:  	fae7d8e3    	BGE    x15, x14, 100021a

--------------------------------------
010001c4:  	01c12783    	LW     x15, 4294967216(x2)
Insns: 00000001110000010010011110000011 at PC_x=010001c4

--------------------------------------
010001c8:  	00279793    	SLLI   x15, x15, 0x2
Insns: 00000000001001111001011110010011 at PC_x=010001c8

--------------------------------------
010001cc:  	00c12703    	LW     x14, 2(x2)
Insns: 00000000110000010010011100000011 at PC_x=010001cc

--------------------------------------
010001d0:  	00f707b3    	ADD    x15, x14, x15

--------------------------------------
010001d4:  	0007a703    	LW     x14, 12(x15)
Insns: 00000000000001111010011100000011 at PC_x=010001d4

--------------------------------------
010001d8:  	01c12783    	LW     x15, 0(x2)
Insns: 00000001110000010010011110000011 at PC_x=010001d8

--------------------------------------
010001dc:  	00178793    	ADDI   x15, x15, 28
Insns: 00000000000101111000011110010011 at PC_x=010001dc

--------------------------------------
010001e0:  	00279793    	SLLI   x15, x15, 0x2
Insns: 00000000001001111001011110010011 at PC_x=010001e0

--------------------------------------
010001e4:  	00c12683    	LW     x13, 2(x2)
Insns: 00000000110000010010011010000011 at PC_x=010001e4

--------------------------------------
010001e8:  	00f687b3    	ADD    x15, x13, x15

--------------------------------------
010001ec:  	0007a783    	LW     x15, 12(x15)
Insns: 00000000000001111010011110000011 at PC_x=010001ec

--------------------------------------
010001f0:  	00e7d863    	BGE    x15, x14, 10001f0

--------------------------------------
01000200:  	01c12783    	LW     x15, 16(x2)
Insns: 00000001110000010010011110000011 at PC_x=01000200

--------------------------------------
01000204:  	00178793    	ADDI   x15, x15, 28
Insns: 00000000000101111000011110010011 at PC_x=01000204

--------------------------------------
01000208:  	00f12e23    	SW     x15, 1(x2)

--------------------------------------
0100020c:  	01c12703    	LW     x14, 28(x2)
Insns: 00000001110000010010011100000011 at PC_x=0100020c

--------------------------------------
01000210:  	00600793    	ADDI   x15, x0, 28
Insns: 00000000011000000000011110010011 at PC_x=01000210

--------------------------------------
01000214:  	fae7d8e3    	BGE    x15, x14, 100021a

--------------------------------------
01000218:  	018000ef    	JAL    x1, 10001c8

--------------------------------------
01000230:  	00100793    	ADDI   x15, x0, 24
Insns: 00000000000100000000011110010011 at PC_x=01000230

--------------------------------------
01000234:  	00078513    	ADDI   x10, x15, 1
Insns: 00000000000001111000010100010011 at PC_x=01000234

--------------------------------------
01000238:  	00008067    	JALR   x0, 0(x1)
Insns: 00000000000000001000000001100111 at PC_x=01000238

--------------------------------------
0100021c:  	00050793    	ADDI   x15, x10, 0
Insns: 00000000000001010000011110010011 at PC_x=0100021c

--------------------------------------
01000220:  	00078513    	ADDI   x10, x15, 0
Insns: 00000000000001111000010100010011 at PC_x=01000220

--------------------------------------
01000224:  	02c12083    	LW     x1, 0(x2)
Insns: 00000010110000010010000010000011 at PC_x=01000224

--------------------------------------
01000228:  	03010113    	ADDI   x2, x2, 44
Insns: 00000011000000010000000100010011 at PC_x=01000228

--------------------------------------
0100022c:  	00008067    	JALR   x0, 48(x1)
Insns: 00000000000000001000000001100111 at PC_x=0100022c

--------------------------------------
01000084:  	00050793    	ADDI   x15, x10, 0
Insns: 00000000000001010000011110010011 at PC_x=01000084

--------------------------------------
01000088:  	00078513    	ADDI   x10, x15, 0
Insns: 00000000000001111000010100010011 at PC_x=01000088

--------------------------------------
0100008c:  	02c12083    	LW     x1, 0(x2)
Insns: 00000010110000010010000010000011 at PC_x=0100008c

--------------------------------------
01000090:  	03010113    	ADDI   x2, x2, 44
Insns: 00000011000000010000000100010011 at PC_x=01000090

--------------------------------------
01000094:  	00008067    	JALR   x0, 48(x1)
Insns: 00000000000000001000000001100111 at PC_x=01000094

--------------------------------------
Exiting: Instruction memory returned out of range
00000000:  	badbadff    	 error

--------------------------------------

--------------------------------------
CheckVowel.x
WARNING: components/memory.v:44: $readmemh(temp.x): Not enough words in the file for the requested range [0:262143].
WARNING: components/memory.v:44: $readmemh(temp.x): Not enough words in the file for the requested range [0:262143].
VCD info: dumpfile testbench.vcd opened for output.

--------------------------------------
01000000:  	fd010113    	ADDI   x2, x2, x
Insns: 11111101000000010000000100010011 at PC_x=01000000
Error in ALU mux
Error in ALU mux

--------------------------------------
01000004:  	02112623    	SW     x1, 4294967248(x2)

--------------------------------------
01000008:  	00012e23    	SW     x0, 44(x2)

--------------------------------------
0100000c:  	00012c23    	SW     x0, 28(x2)

--------------------------------------
01000010:  	010007b7    	LUI    x15, 0x18
LUIOP

--------------------------------------
01000014:  	1e87a603    	LW     x12, 24(x15)
Insns: 00011110100001111010011000000011 at PC_x=01000014

--------------------------------------
01000018:  	1e878713    	ADDI   x14, x15, 488
Insns: 00011110100001111000011100010011 at PC_x=01000018

--------------------------------------
0100001c:  	00472683    	LW     x13, 488(x14)
Insns: 00000000010001110010011010000011 at PC_x=0100001c

--------------------------------------
01000020:  	1e878713    	ADDI   x14, x15, 4
Insns: 00011110100001111000011100010011 at PC_x=01000020

--------------------------------------
01000024:  	00872703    	LW     x14, 488(x14)
Insns: 00000000100001110010011100000011 at PC_x=01000024

--------------------------------------
01000028:  	00c12223    	SW     x12, 8(x2)

--------------------------------------
0100002c:  	00d12423    	SW     x13, 4(x2)

--------------------------------------
01000030:  	00e12623    	SW     x14, 8(x2)

--------------------------------------
01000034:  	1e878793    	ADDI   x15, x15, 12
Insns: 00011110100001111000011110010011 at PC_x=01000034

--------------------------------------
01000038:  	00c7c783    	LBU    x15, 488(x15)
Insns: 00000000110001111100011110000011 at PC_x=01000038

--------------------------------------
0100003c:  	00f10823    	SB     x15, 12(x2)

--------------------------------------
01000040:  	000108a3    	SB     x0, 16(x2)

--------------------------------------
01000044:  	00010923    	SB     x0, 17(x2)

--------------------------------------
01000048:  	000109a3    	SB     x0, 18(x2)

--------------------------------------
0100004c:  	00010a23    	SB     x0, 19(x2)

--------------------------------------
01000050:  	00010aa3    	SB     x0, 20(x2)

--------------------------------------
01000054:  	00010b23    	SB     x0, 21(x2)

--------------------------------------
01000058:  	00010ba3    	SB     x0, 22(x2)

--------------------------------------
0100005c:  	00012e23    	SW     x0, 23(x2)

--------------------------------------
01000060:  	10c0006f    	JAL    x0, 100007c

--------------------------------------
0100016c:  	01c12703    	LW     x14, 268(x2)
Insns: 00000001110000010010011100000011 at PC_x=0100016c

--------------------------------------
01000170:  	01300793    	ADDI   x15, x0, 28
Insns: 00000001001100000000011110010011 at PC_x=01000170

--------------------------------------
01000174:  	eee7d8e3    	BGE    x15, x14, 1000187

--------------------------------------
01000064:  	01c12783    	LW     x15, 4294967024(x2)
Insns: 00000001110000010010011110000011 at PC_x=01000064

--------------------------------------
01000068:  	02010713    	ADDI   x14, x2, 28
Insns: 00000010000000010000011100010011 at PC_x=01000068

--------------------------------------
0100006c:  	00f707b3    	ADD    x15, x14, x15

--------------------------------------
01000070:  	fe47c703    	LBU    x14, 32(x15)
Insns: 11111110010001111100011100000011 at PC_x=01000070

--------------------------------------
01000074:  	06100793    	ADDI   x15, x0, 4294967268
Insns: 00000110000100000000011110010011 at PC_x=01000074

--------------------------------------
01000078:  	0cf70e63    	BEQ    x14, x15, 10000d9

--------------------------------------
0100007c:  	01c12783    	LW     x15, 220(x2)
Insns: 00000001110000010010011110000011 at PC_x=0100007c

--------------------------------------
01000080:  	02010713    	ADDI   x14, x2, 28
Insns: 00000010000000010000011100010011 at PC_x=01000080

--------------------------------------
01000084:  	00f707b3    	ADD    x15, x14, x15

--------------------------------------
01000088:  	fe47c703    	LBU    x14, 32(x15)
Insns: 11111110010001111100011100000011 at PC_x=01000088

--------------------------------------
0100008c:  	04100793    	ADDI   x15, x0, 4294967268
Insns: 00000100000100000000011110010011 at PC_x=0100008c

--------------------------------------
01000090:  	0cf70263    	BEQ    x14, x15, 10000d1

--------------------------------------
01000094:  	01c12783    	LW     x15, 196(x2)
Insns: 00000001110000010010011110000011 at PC_x=01000094

--------------------------------------
01000098:  	02010713    	ADDI   x14, x2, 28
Insns: 00000010000000010000011100010011 at PC_x=01000098

--------------------------------------
0100009c:  	00f707b3    	ADD    x15, x14, x15

--------------------------------------
010000a0:  	fe47c703    	LBU    x14, 32(x15)
Insns: 11111110010001111100011100000011 at PC_x=010000a0

--------------------------------------
010000a4:  	06500793    	ADDI   x15, x0, 4294967268
Insns: 00000110010100000000011110010011 at PC_x=010000a4

--------------------------------------
010000a8:  	0af70663    	BEQ    x14, x15, 100010d

--------------------------------------
010000ac:  	01c12783    	LW     x15, 172(x2)
Insns: 00000001110000010010011110000011 at PC_x=010000ac

--------------------------------------
010000b0:  	02010713    	ADDI   x14, x2, 28
Insns: 00000010000000010000011100010011 at PC_x=010000b0

--------------------------------------
010000b4:  	00f707b3    	ADD    x15, x14, x15

--------------------------------------
010000b8:  	fe47c703    	LBU    x14, 32(x15)
Insns: 11111110010001111100011100000011 at PC_x=010000b8

--------------------------------------
010000bc:  	04500793    	ADDI   x15, x0, 4294967268
Insns: 00000100010100000000011110010011 at PC_x=010000bc

--------------------------------------
010000c0:  	08f70a63    	BEQ    x14, x15, 1000105

--------------------------------------
010000c4:  	01c12783    	LW     x15, 148(x2)
Insns: 00000001110000010010011110000011 at PC_x=010000c4

--------------------------------------
010000c8:  	02010713    	ADDI   x14, x2, 28
Insns: 00000010000000010000011100010011 at PC_x=010000c8

--------------------------------------
010000cc:  	00f707b3    	ADD    x15, x14, x15

--------------------------------------
010000d0:  	fe47c703    	LBU    x14, 32(x15)
Insns: 11111110010001111100011100000011 at PC_x=010000d0

--------------------------------------
010000d4:  	06900793    	ADDI   x15, x0, 4294967268
Insns: 00000110100100000000011110010011 at PC_x=010000d4

--------------------------------------
010000d8:  	06f70e63    	BEQ    x14, x15, 1000141

--------------------------------------
010000dc:  	01c12783    	LW     x15, 124(x2)
Insns: 00000001110000010010011110000011 at PC_x=010000dc

--------------------------------------
010000e0:  	02010713    	ADDI   x14, x2, 28
Insns: 00000010000000010000011100010011 at PC_x=010000e0

--------------------------------------
010000e4:  	00f707b3    	ADD    x15, x14, x15

--------------------------------------
010000e8:  	fe47c703    	LBU    x14, 32(x15)
Insns: 11111110010001111100011100000011 at PC_x=010000e8

--------------------------------------
010000ec:  	04900793    	ADDI   x15, x0, 4294967268
Insns: 00000100100100000000011110010011 at PC_x=010000ec

--------------------------------------
010000f0:  	06f70263    	BEQ    x14, x15, 1000139

--------------------------------------
010000f4:  	01c12783    	LW     x15, 100(x2)
Insns: 00000001110000010010011110000011 at PC_x=010000f4

--------------------------------------
010000f8:  	02010713    	ADDI   x14, x2, 28
Insns: 00000010000000010000011100010011 at PC_x=010000f8

--------------------------------------
010000fc:  	00f707b3    	ADD    x15, x14, x15

--------------------------------------
01000100:  	fe47c703    	LBU    x14, 32(x15)
Insns: 11111110010001111100011100000011 at PC_x=01000100

--------------------------------------
01000104:  	06f00793    	ADDI   x15, x0, 4294967268
Insns: 00000110111100000000011110010011 at PC_x=01000104

--------------------------------------
01000108:  	04f70663    	BEQ    x14, x15, 1000177

--------------------------------------
0100010c:  	01c12783    	LW     x15, 76(x2)
Insns: 00000001110000010010011110000011 at PC_x=0100010c

--------------------------------------
01000110:  	02010713    	ADDI   x14, x2, 28
Insns: 00000010000000010000011100010011 at PC_x=01000110

--------------------------------------
01000114:  	00f707b3    	ADD    x15, x14, x15

--------------------------------------
01000118:  	fe47c703    	LBU    x14, 32(x15)
Insns: 11111110010001111100011100000011 at PC_x=01000118

--------------------------------------
0100011c:  	04f00793    	ADDI   x15, x0, 4294967268
Insns: 00000100111100000000011110010011 at PC_x=0100011c

--------------------------------------
01000120:  	02f70a63    	BEQ    x14, x15, 100016f

--------------------------------------
01000124:  	01c12783    	LW     x15, 52(x2)
Insns: 00000001110000010010011110000011 at PC_x=01000124

--------------------------------------
01000128:  	02010713    	ADDI   x14, x2, 28
Insns: 00000010000000010000011100010011 at PC_x=01000128

--------------------------------------
0100012c:  	00f707b3    	ADD    x15, x14, x15

--------------------------------------
01000130:  	fe47c703    	LBU    x14, 32(x15)
Insns: 11111110010001111100011100000011 at PC_x=01000130

--------------------------------------
01000134:  	07500793    	ADDI   x15, x0, 4294967268
Insns: 00000111010100000000011110010011 at PC_x=01000134

--------------------------------------
01000138:  	00f70e63    	BEQ    x14, x15, 10001ad

--------------------------------------
0100013c:  	01c12783    	LW     x15, 28(x2)
Insns: 00000001110000010010011110000011 at PC_x=0100013c

--------------------------------------
01000140:  	02010713    	ADDI   x14, x2, 28
Insns: 00000010000000010000011100010011 at PC_x=01000140

--------------------------------------
01000144:  	00f707b3    	ADD    x15, x14, x15

--------------------------------------
01000148:  	fe47c703    	LBU    x14, 32(x15)
Insns: 11111110010001111100011100000011 at PC_x=01000148

--------------------------------------
0100014c:  	05500793    	ADDI   x15, x0, 4294967268
Insns: 00000101010100000000011110010011 at PC_x=0100014c

--------------------------------------
01000150:  	00f71863    	BNE    x14, x15, 10001a5

--------------------------------------
01000160:  	01c12783    	LW     x15, 16(x2)
Insns: 00000001110000010010011110000011 at PC_x=01000160

--------------------------------------
01000164:  	00178793    	ADDI   x15, x15, 28
Insns: 00000000000101111000011110010011 at PC_x=01000164

--------------------------------------
01000168:  	00f12e23    	SW     x15, 1(x2)

--------------------------------------
0100016c:  	01c12703    	LW     x14, 28(x2)
Insns: 00000001110000010010011100000011 at PC_x=0100016c

--------------------------------------
01000170:  	01300793    	ADDI   x15, x0, 28
Insns: 00000001001100000000011110010011 at PC_x=01000170

--------------------------------------
01000174:  	eee7d8e3    	BGE    x15, x14, 1000187

--------------------------------------
01000064:  	01c12783    	LW     x15, 4294967024(x2)
Insns: 00000001110000010010011110000011 at PC_x=01000064

--------------------------------------
01000068:  	02010713    	ADDI   x14, x2, 28
Insns: 00000010000000010000011100010011 at PC_x=01000068

--------------------------------------
0100006c:  	00f707b3    	ADD    x15, x14, x15

--------------------------------------
01000070:  	fe47c703    	LBU    x14, 32(x15)
Insns: 11111110010001111100011100000011 at PC_x=01000070

--------------------------------------
01000074:  	06100793    	ADDI   x15, x0, 4294967268
Insns: 00000110000100000000011110010011 at PC_x=01000074

--------------------------------------
01000078:  	0cf70e63    	BEQ    x14, x15, 10000d9

--------------------------------------
0100007c:  	01c12783    	LW     x15, 220(x2)
Insns: 00000001110000010010011110000011 at PC_x=0100007c

--------------------------------------
01000080:  	02010713    	ADDI   x14, x2, 28
Insns: 00000010000000010000011100010011 at PC_x=01000080

--------------------------------------
01000084:  	00f707b3    	ADD    x15, x14, x15

--------------------------------------
01000088:  	fe47c703    	LBU    x14, 32(x15)
Insns: 11111110010001111100011100000011 at PC_x=01000088

--------------------------------------
0100008c:  	04100793    	ADDI   x15, x0, 4294967268
Insns: 00000100000100000000011110010011 at PC_x=0100008c

--------------------------------------
01000090:  	0cf70263    	BEQ    x14, x15, 10000d1

--------------------------------------
01000094:  	01c12783    	LW     x15, 196(x2)
Insns: 00000001110000010010011110000011 at PC_x=01000094

--------------------------------------
01000098:  	02010713    	ADDI   x14, x2, 28
Insns: 00000010000000010000011100010011 at PC_x=01000098

--------------------------------------
0100009c:  	00f707b3    	ADD    x15, x14, x15

--------------------------------------
010000a0:  	fe47c703    	LBU    x14, 32(x15)
Insns: 11111110010001111100011100000011 at PC_x=010000a0

--------------------------------------
010000a4:  	06500793    	ADDI   x15, x0, 4294967268
Insns: 00000110010100000000011110010011 at PC_x=010000a4

--------------------------------------
010000a8:  	0af70663    	BEQ    x14, x15, 100010d

--------------------------------------
010000ac:  	01c12783    	LW     x15, 172(x2)
Insns: 00000001110000010010011110000011 at PC_x=010000ac

--------------------------------------
010000b0:  	02010713    	ADDI   x14, x2, 28
Insns: 00000010000000010000011100010011 at PC_x=010000b0

--------------------------------------
010000b4:  	00f707b3    	ADD    x15, x14, x15

--------------------------------------
010000b8:  	fe47c703    	LBU    x14, 32(x15)
Insns: 11111110010001111100011100000011 at PC_x=010000b8

--------------------------------------
010000bc:  	04500793    	ADDI   x15, x0, 4294967268
Insns: 00000100010100000000011110010011 at PC_x=010000bc

--------------------------------------
010000c0:  	08f70a63    	BEQ    x14, x15, 1000105

--------------------------------------
010000c4:  	01c12783    	LW     x15, 148(x2)
Insns: 00000001110000010010011110000011 at PC_x=010000c4

--------------------------------------
010000c8:  	02010713    	ADDI   x14, x2, 28
Insns: 00000010000000010000011100010011 at PC_x=010000c8

--------------------------------------
010000cc:  	00f707b3    	ADD    x15, x14, x15

--------------------------------------
010000d0:  	fe47c703    	LBU    x14, 32(x15)
Insns: 11111110010001111100011100000011 at PC_x=010000d0

--------------------------------------
010000d4:  	06900793    	ADDI   x15, x0, 4294967268
Insns: 00000110100100000000011110010011 at PC_x=010000d4

--------------------------------------
010000d8:  	06f70e63    	BEQ    x14, x15, 1000141

--------------------------------------
010000dc:  	01c12783    	LW     x15, 124(x2)
Insns: 00000001110000010010011110000011 at PC_x=010000dc

--------------------------------------
010000e0:  	02010713    	ADDI   x14, x2, 28
Insns: 00000010000000010000011100010011 at PC_x=010000e0

--------------------------------------
010000e4:  	00f707b3    	ADD    x15, x14, x15

--------------------------------------
010000e8:  	fe47c703    	LBU    x14, 32(x15)
Insns: 11111110010001111100011100000011 at PC_x=010000e8

--------------------------------------
010000ec:  	04900793    	ADDI   x15, x0, 4294967268
Insns: 00000100100100000000011110010011 at PC_x=010000ec

--------------------------------------
010000f0:  	06f70263    	BEQ    x14, x15, 1000139

--------------------------------------
010000f4:  	01c12783    	LW     x15, 100(x2)
Insns: 00000001110000010010011110000011 at PC_x=010000f4

--------------------------------------
010000f8:  	02010713    	ADDI   x14, x2, 28
Insns: 00000010000000010000011100010011 at PC_x=010000f8

--------------------------------------
010000fc:  	00f707b3    	ADD    x15, x14, x15

--------------------------------------
01000100:  	fe47c703    	LBU    x14, 32(x15)
Insns: 11111110010001111100011100000011 at PC_x=01000100

--------------------------------------
01000104:  	06f00793    	ADDI   x15, x0, 4294967268
Insns: 00000110111100000000011110010011 at PC_x=01000104

--------------------------------------
01000108:  	04f70663    	BEQ    x14, x15, 1000177

--------------------------------------
0100010c:  	01c12783    	LW     x15, 76(x2)
Insns: 00000001110000010010011110000011 at PC_x=0100010c

--------------------------------------
01000110:  	02010713    	ADDI   x14, x2, 28
Insns: 00000010000000010000011100010011 at PC_x=01000110

--------------------------------------
01000114:  	00f707b3    	ADD    x15, x14, x15

--------------------------------------
01000118:  	fe47c703    	LBU    x14, 32(x15)
Insns: 11111110010001111100011100000011 at PC_x=01000118

--------------------------------------
0100011c:  	04f00793    	ADDI   x15, x0, 4294967268
Insns: 00000100111100000000011110010011 at PC_x=0100011c

--------------------------------------
01000120:  	02f70a63    	BEQ    x14, x15, 100016f

--------------------------------------
01000124:  	01c12783    	LW     x15, 52(x2)
Insns: 00000001110000010010011110000011 at PC_x=01000124

--------------------------------------
01000128:  	02010713    	ADDI   x14, x2, 28
Insns: 00000010000000010000011100010011 at PC_x=01000128

--------------------------------------
0100012c:  	00f707b3    	ADD    x15, x14, x15

--------------------------------------
01000130:  	fe47c703    	LBU    x14, 32(x15)
Insns: 11111110010001111100011100000011 at PC_x=01000130

--------------------------------------
01000134:  	07500793    	ADDI   x15, x0, 4294967268
Insns: 00000111010100000000011110010011 at PC_x=01000134

--------------------------------------
01000138:  	00f70e63    	BEQ    x14, x15, 10001ad

--------------------------------------
0100013c:  	01c12783    	LW     x15, 28(x2)
Insns: 00000001110000010010011110000011 at PC_x=0100013c

--------------------------------------
01000140:  	02010713    	ADDI   x14, x2, 28
Insns: 00000010000000010000011100010011 at PC_x=01000140

--------------------------------------
01000144:  	00f707b3    	ADD    x15, x14, x15

--------------------------------------
01000148:  	fe47c703    	LBU    x14, 32(x15)
Insns: 11111110010001111100011100000011 at PC_x=01000148

--------------------------------------
0100014c:  	05500793    	ADDI   x15, x0, 4294967268
Insns: 00000101010100000000011110010011 at PC_x=0100014c

--------------------------------------
01000150:  	00f71863    	BNE    x14, x15, 10001a5

--------------------------------------
01000160:  	01c12783    	LW     x15, 16(x2)
Insns: 00000001110000010010011110000011 at PC_x=01000160

--------------------------------------
01000164:  	00178793    	ADDI   x15, x15, 28
Insns: 00000000000101111000011110010011 at PC_x=01000164

--------------------------------------
01000168:  	00f12e23    	SW     x15, 1(x2)

--------------------------------------
0100016c:  	01c12703    	LW     x14, 28(x2)
Insns: 00000001110000010010011100000011 at PC_x=0100016c

--------------------------------------
01000170:  	01300793    	ADDI   x15, x0, 28
Insns: 00000001001100000000011110010011 at PC_x=01000170

--------------------------------------
01000174:  	eee7d8e3    	BGE    x15, x14, 1000187

--------------------------------------
01000064:  	01c12783    	LW     x15, 4294967024(x2)
Insns: 00000001110000010010011110000011 at PC_x=01000064

--------------------------------------
01000068:  	02010713    	ADDI   x14, x2, 28
Insns: 00000010000000010000011100010011 at PC_x=01000068

--------------------------------------
0100006c:  	00f707b3    	ADD    x15, x14, x15

--------------------------------------
01000070:  	fe47c703    	LBU    x14, 32(x15)
Insns: 11111110010001111100011100000011 at PC_x=01000070

--------------------------------------
01000074:  	06100793    	ADDI   x15, x0, 4294967268
Insns: 00000110000100000000011110010011 at PC_x=01000074

--------------------------------------
01000078:  	0cf70e63    	BEQ    x14, x15, 10000d9

--------------------------------------
0100007c:  	01c12783    	LW     x15, 220(x2)
Insns: 00000001110000010010011110000011 at PC_x=0100007c

--------------------------------------
01000080:  	02010713    	ADDI   x14, x2, 28
Insns: 00000010000000010000011100010011 at PC_x=01000080

--------------------------------------
01000084:  	00f707b3    	ADD    x15, x14, x15

--------------------------------------
01000088:  	fe47c703    	LBU    x14, 32(x15)
Insns: 11111110010001111100011100000011 at PC_x=01000088

--------------------------------------
0100008c:  	04100793    	ADDI   x15, x0, 4294967268
Insns: 00000100000100000000011110010011 at PC_x=0100008c

--------------------------------------
01000090:  	0cf70263    	BEQ    x14, x15, 10000d1

--------------------------------------
01000094:  	01c12783    	LW     x15, 196(x2)
Insns: 00000001110000010010011110000011 at PC_x=01000094

--------------------------------------
01000098:  	02010713    	ADDI   x14, x2, 28
Insns: 00000010000000010000011100010011 at PC_x=01000098

--------------------------------------
0100009c:  	00f707b3    	ADD    x15, x14, x15

--------------------------------------
010000a0:  	fe47c703    	LBU    x14, 32(x15)
Insns: 11111110010001111100011100000011 at PC_x=010000a0

--------------------------------------
010000a4:  	06500793    	ADDI   x15, x0, 4294967268
Insns: 00000110010100000000011110010011 at PC_x=010000a4

--------------------------------------
010000a8:  	0af70663    	BEQ    x14, x15, 100010d

--------------------------------------
01000154:  	01812783    	LW     x15, 172(x2)
Insns: 00000001100000010010011110000011 at PC_x=01000154

--------------------------------------
01000158:  	00178793    	ADDI   x15, x15, 24
Insns: 00000000000101111000011110010011 at PC_x=01000158

--------------------------------------
0100015c:  	00f12c23    	SW     x15, 1(x2)

--------------------------------------
01000160:  	01c12783    	LW     x15, 24(x2)
Insns: 00000001110000010010011110000011 at PC_x=01000160

--------------------------------------
01000164:  	00178793    	ADDI   x15, x15, 28
Insns: 00000000000101111000011110010011 at PC_x=01000164

--------------------------------------
01000168:  	00f12e23    	SW     x15, 1(x2)

--------------------------------------
0100016c:  	01c12703    	LW     x14, 28(x2)
Insns: 00000001110000010010011100000011 at PC_x=0100016c

--------------------------------------
01000170:  	01300793    	ADDI   x15, x0, 28
Insns: 00000001001100000000011110010011 at PC_x=01000170

--------------------------------------
01000174:  	eee7d8e3    	BGE    x15, x14, 1000187

--------------------------------------
01000064:  	01c12783    	LW     x15, 4294967024(x2)
Insns: 00000001110000010010011110000011 at PC_x=01000064

--------------------------------------
01000068:  	02010713    	ADDI   x14, x2, 28
Insns: 00000010000000010000011100010011 at PC_x=01000068

--------------------------------------
0100006c:  	00f707b3    	ADD    x15, x14, x15

--------------------------------------
01000070:  	fe47c703    	LBU    x14, 15(x15)
Insns: 11111110010001111100011100000011 at PC_x=01000070

--------------------------------------
01000074:  	06100793    	ADDI   x15, x0, 4294967268
Insns: 00000110000100000000011110010011 at PC_x=01000074

--------------------------------------
01000078:  	0cf70e63    	BEQ    x14, x15, 10000d9

--------------------------------------
0100007c:  	01c12783    	LW     x15, 220(x2)
Insns: 00000001110000010010011110000011 at PC_x=0100007c

--------------------------------------
01000080:  	02010713    	ADDI   x14, x2, 28
Insns: 00000010000000010000011100010011 at PC_x=01000080

--------------------------------------
01000084:  	00f707b3    	ADD    x15, x14, x15

--------------------------------------
01000088:  	fe47c703    	LBU    x14, 15(x15)
Insns: 11111110010001111100011100000011 at PC_x=01000088

--------------------------------------
0100008c:  	04100793    	ADDI   x15, x0, 4294967268
Insns: 00000100000100000000011110010011 at PC_x=0100008c

--------------------------------------
01000090:  	0cf70263    	BEQ    x14, x15, 10000d1

--------------------------------------
01000094:  	01c12783    	LW     x15, 196(x2)
Insns: 00000001110000010010011110000011 at PC_x=01000094

--------------------------------------
01000098:  	02010713    	ADDI   x14, x2, 28
Insns: 00000010000000010000011100010011 at PC_x=01000098

--------------------------------------
0100009c:  	00f707b3    	ADD    x15, x14, x15

--------------------------------------
010000a0:  	fe47c703    	LBU    x14, 15(x15)
Insns: 11111110010001111100011100000011 at PC_x=010000a0

--------------------------------------
010000a4:  	06500793    	ADDI   x15, x0, 4294967268
Insns: 00000110010100000000011110010011 at PC_x=010000a4

--------------------------------------
010000a8:  	0af70663    	BEQ    x14, x15, 100010d

--------------------------------------
010000ac:  	01c12783    	LW     x15, 172(x2)
Insns: 00000001110000010010011110000011 at PC_x=010000ac

--------------------------------------
010000b0:  	02010713    	ADDI   x14, x2, 28
Insns: 00000010000000010000011100010011 at PC_x=010000b0

--------------------------------------
010000b4:  	00f707b3    	ADD    x15, x14, x15

--------------------------------------
010000b8:  	fe47c703    	LBU    x14, 15(x15)
Insns: 11111110010001111100011100000011 at PC_x=010000b8

--------------------------------------
010000bc:  	04500793    	ADDI   x15, x0, 4294967268
Insns: 00000100010100000000011110010011 at PC_x=010000bc

--------------------------------------
010000c0:  	08f70a63    	BEQ    x14, x15, 1000105

--------------------------------------
010000c4:  	01c12783    	LW     x15, 148(x2)
Insns: 00000001110000010010011110000011 at PC_x=010000c4

--------------------------------------
010000c8:  	02010713    	ADDI   x14, x2, 28
Insns: 00000010000000010000011100010011 at PC_x=010000c8

--------------------------------------
010000cc:  	00f707b3    	ADD    x15, x14, x15

--------------------------------------
010000d0:  	fe47c703    	LBU    x14, 15(x15)
Insns: 11111110010001111100011100000011 at PC_x=010000d0

--------------------------------------
010000d4:  	06900793    	ADDI   x15, x0, 4294967268
Insns: 00000110100100000000011110010011 at PC_x=010000d4

--------------------------------------
010000d8:  	06f70e63    	BEQ    x14, x15, 1000141

--------------------------------------
010000dc:  	01c12783    	LW     x15, 124(x2)
Insns: 00000001110000010010011110000011 at PC_x=010000dc

--------------------------------------
010000e0:  	02010713    	ADDI   x14, x2, 28
Insns: 00000010000000010000011100010011 at PC_x=010000e0

--------------------------------------
010000e4:  	00f707b3    	ADD    x15, x14, x15

--------------------------------------
010000e8:  	fe47c703    	LBU    x14, 15(x15)
Insns: 11111110010001111100011100000011 at PC_x=010000e8

--------------------------------------
010000ec:  	04900793    	ADDI   x15, x0, 4294967268
Insns: 00000100100100000000011110010011 at PC_x=010000ec

--------------------------------------
010000f0:  	06f70263    	BEQ    x14, x15, 1000139

--------------------------------------
010000f4:  	01c12783    	LW     x15, 100(x2)
Insns: 00000001110000010010011110000011 at PC_x=010000f4

--------------------------------------
010000f8:  	02010713    	ADDI   x14, x2, 28
Insns: 00000010000000010000011100010011 at PC_x=010000f8

--------------------------------------
010000fc:  	00f707b3    	ADD    x15, x14, x15

--------------------------------------
01000100:  	fe47c703    	LBU    x14, 15(x15)
Insns: 11111110010001111100011100000011 at PC_x=01000100

--------------------------------------
01000104:  	06f00793    	ADDI   x15, x0, 4294967268
Insns: 00000110111100000000011110010011 at PC_x=01000104

--------------------------------------
01000108:  	04f70663    	BEQ    x14, x15, 1000177

--------------------------------------
0100010c:  	01c12783    	LW     x15, 76(x2)
Insns: 00000001110000010010011110000011 at PC_x=0100010c

--------------------------------------
01000110:  	02010713    	ADDI   x14, x2, 28
Insns: 00000010000000010000011100010011 at PC_x=01000110

--------------------------------------
01000114:  	00f707b3    	ADD    x15, x14, x15

--------------------------------------
01000118:  	fe47c703    	LBU    x14, 15(x15)
Insns: 11111110010001111100011100000011 at PC_x=01000118

--------------------------------------
0100011c:  	04f00793    	ADDI   x15, x0, 4294967268
Insns: 00000100111100000000011110010011 at PC_x=0100011c

--------------------------------------
01000120:  	02f70a63    	BEQ    x14, x15, 100016f

--------------------------------------
01000124:  	01c12783    	LW     x15, 52(x2)
Insns: 00000001110000010010011110000011 at PC_x=01000124

--------------------------------------
01000128:  	02010713    	ADDI   x14, x2, 28
Insns: 00000010000000010000011100010011 at PC_x=01000128

--------------------------------------
0100012c:  	00f707b3    	ADD    x15, x14, x15

--------------------------------------
01000130:  	fe47c703    	LBU    x14, 15(x15)
Insns: 11111110010001111100011100000011 at PC_x=01000130

--------------------------------------
01000134:  	07500793    	ADDI   x15, x0, 4294967268
Insns: 00000111010100000000011110010011 at PC_x=01000134

--------------------------------------
01000138:  	00f70e63    	BEQ    x14, x15, 10001ad

--------------------------------------
0100013c:  	01c12783    	LW     x15, 28(x2)
Insns: 00000001110000010010011110000011 at PC_x=0100013c

--------------------------------------
01000140:  	02010713    	ADDI   x14, x2, 28
Insns: 00000010000000010000011100010011 at PC_x=01000140

--------------------------------------
01000144:  	00f707b3    	ADD    x15, x14, x15

--------------------------------------
01000148:  	fe47c703    	LBU    x14, 15(x15)
Insns: 11111110010001111100011100000011 at PC_x=01000148

--------------------------------------
0100014c:  	05500793    	ADDI   x15, x0, 4294967268
Insns: 00000101010100000000011110010011 at PC_x=0100014c

--------------------------------------
01000150:  	00f71863    	BNE    x14, x15, 10001a5

--------------------------------------
01000160:  	01c12783    	LW     x15, 16(x2)
Insns: 00000001110000010010011110000011 at PC_x=01000160

--------------------------------------
01000164:  	00178793    	ADDI   x15, x15, 28
Insns: 00000000000101111000011110010011 at PC_x=01000164

--------------------------------------
01000168:  	00f12e23    	SW     x15, 1(x2)

--------------------------------------
0100016c:  	01c12703    	LW     x14, 28(x2)
Insns: 00000001110000010010011100000011 at PC_x=0100016c

--------------------------------------
01000170:  	01300793    	ADDI   x15, x0, 28
Insns: 00000001001100000000011110010011 at PC_x=01000170

--------------------------------------
01000174:  	eee7d8e3    	BGE    x15, x14, 1000187

--------------------------------------
01000064:  	01c12783    	LW     x15, 4294967024(x2)
Insns: 00000001110000010010011110000011 at PC_x=01000064

--------------------------------------
01000068:  	02010713    	ADDI   x14, x2, 28
Insns: 00000010000000010000011100010011 at PC_x=01000068

--------------------------------------
0100006c:  	00f707b3    	ADD    x15, x14, x15

--------------------------------------
01000070:  	fe47c703    	LBU    x14, 15(x15)
Insns: 11111110010001111100011100000011 at PC_x=01000070

--------------------------------------
01000074:  	06100793    	ADDI   x15, x0, 4294967268
Insns: 00000110000100000000011110010011 at PC_x=01000074

--------------------------------------
01000078:  	0cf70e63    	BEQ    x14, x15, 10000d9

--------------------------------------
0100007c:  	01c12783    	LW     x15, 220(x2)
Insns: 00000001110000010010011110000011 at PC_x=0100007c

--------------------------------------
01000080:  	02010713    	ADDI   x14, x2, 28
Insns: 00000010000000010000011100010011 at PC_x=01000080

--------------------------------------
01000084:  	00f707b3    	ADD    x15, x14, x15

--------------------------------------
01000088:  	fe47c703    	LBU    x14, 15(x15)
Insns: 11111110010001111100011100000011 at PC_x=01000088

--------------------------------------
0100008c:  	04100793    	ADDI   x15, x0, 4294967268
Insns: 00000100000100000000011110010011 at PC_x=0100008c

--------------------------------------
01000090:  	0cf70263    	BEQ    x14, x15, 10000d1

--------------------------------------
01000094:  	01c12783    	LW     x15, 196(x2)
Insns: 00000001110000010010011110000011 at PC_x=01000094

--------------------------------------
01000098:  	02010713    	ADDI   x14, x2, 28
Insns: 00000010000000010000011100010011 at PC_x=01000098

--------------------------------------
0100009c:  	00f707b3    	ADD    x15, x14, x15

--------------------------------------
010000a0:  	fe47c703    	LBU    x14, 15(x15)
Insns: 11111110010001111100011100000011 at PC_x=010000a0

--------------------------------------
010000a4:  	06500793    	ADDI   x15, x0, 4294967268
Insns: 00000110010100000000011110010011 at PC_x=010000a4

--------------------------------------
010000a8:  	0af70663    	BEQ    x14, x15, 100010d

--------------------------------------
010000ac:  	01c12783    	LW     x15, 172(x2)
Insns: 00000001110000010010011110000011 at PC_x=010000ac

--------------------------------------
010000b0:  	02010713    	ADDI   x14, x2, 28
Insns: 00000010000000010000011100010011 at PC_x=010000b0

--------------------------------------
010000b4:  	00f707b3    	ADD    x15, x14, x15

--------------------------------------
010000b8:  	fe47c703    	LBU    x14, 15(x15)
Insns: 11111110010001111100011100000011 at PC_x=010000b8

--------------------------------------
010000bc:  	04500793    	ADDI   x15, x0, 4294967268
Insns: 00000100010100000000011110010011 at PC_x=010000bc

--------------------------------------
010000c0:  	08f70a63    	BEQ    x14, x15, 1000105

--------------------------------------
010000c4:  	01c12783    	LW     x15, 148(x2)
Insns: 00000001110000010010011110000011 at PC_x=010000c4

--------------------------------------
010000c8:  	02010713    	ADDI   x14, x2, 28
Insns: 00000010000000010000011100010011 at PC_x=010000c8

--------------------------------------
010000cc:  	00f707b3    	ADD    x15, x14, x15

--------------------------------------
010000d0:  	fe47c703    	LBU    x14, 15(x15)
Insns: 11111110010001111100011100000011 at PC_x=010000d0

--------------------------------------
010000d4:  	06900793    	ADDI   x15, x0, 4294967268
Insns: 00000110100100000000011110010011 at PC_x=010000d4

--------------------------------------
010000d8:  	06f70e63    	BEQ    x14, x15, 1000141

--------------------------------------
010000dc:  	01c12783    	LW     x15, 124(x2)
Insns: 00000001110000010010011110000011 at PC_x=010000dc

--------------------------------------
010000e0:  	02010713    	ADDI   x14, x2, 28
Insns: 00000010000000010000011100010011 at PC_x=010000e0

--------------------------------------
010000e4:  	00f707b3    	ADD    x15, x14, x15

--------------------------------------
010000e8:  	fe47c703    	LBU    x14, 15(x15)
Insns: 11111110010001111100011100000011 at PC_x=010000e8

--------------------------------------
010000ec:  	04900793    	ADDI   x15, x0, 4294967268
Insns: 00000100100100000000011110010011 at PC_x=010000ec

--------------------------------------
010000f0:  	06f70263    	BEQ    x14, x15, 1000139

--------------------------------------
010000f4:  	01c12783    	LW     x15, 100(x2)
Insns: 00000001110000010010011110000011 at PC_x=010000f4

--------------------------------------
010000f8:  	02010713    	ADDI   x14, x2, 28
Insns: 00000010000000010000011100010011 at PC_x=010000f8

--------------------------------------
010000fc:  	00f707b3    	ADD    x15, x14, x15

--------------------------------------
01000100:  	fe47c703    	LBU    x14, 15(x15)
Insns: 11111110010001111100011100000011 at PC_x=01000100

--------------------------------------
01000104:  	06f00793    	ADDI   x15, x0, 4294967268
Insns: 00000110111100000000011110010011 at PC_x=01000104

--------------------------------------
01000108:  	04f70663    	BEQ    x14, x15, 1000177

--------------------------------------
0100010c:  	01c12783    	LW     x15, 76(x2)
Insns: 00000001110000010010011110000011 at PC_x=0100010c

--------------------------------------
01000110:  	02010713    	ADDI   x14, x2, 28
Insns: 00000010000000010000011100010011 at PC_x=01000110

--------------------------------------
01000114:  	00f707b3    	ADD    x15, x14, x15

--------------------------------------
01000118:  	fe47c703    	LBU    x14, 15(x15)
Insns: 11111110010001111100011100000011 at PC_x=01000118

--------------------------------------
0100011c:  	04f00793    	ADDI   x15, x0, 4294967268
Insns: 00000100111100000000011110010011 at PC_x=0100011c

--------------------------------------
01000120:  	02f70a63    	BEQ    x14, x15, 100016f

--------------------------------------
01000124:  	01c12783    	LW     x15, 52(x2)
Insns: 00000001110000010010011110000011 at PC_x=01000124

--------------------------------------
01000128:  	02010713    	ADDI   x14, x2, 28
Insns: 00000010000000010000011100010011 at PC_x=01000128

--------------------------------------
0100012c:  	00f707b3    	ADD    x15, x14, x15

--------------------------------------
01000130:  	fe47c703    	LBU    x14, 15(x15)
Insns: 11111110010001111100011100000011 at PC_x=01000130

--------------------------------------
01000134:  	07500793    	ADDI   x15, x0, 4294967268
Insns: 00000111010100000000011110010011 at PC_x=01000134

--------------------------------------
01000138:  	00f70e63    	BEQ    x14, x15, 10001ad

--------------------------------------
0100013c:  	01c12783    	LW     x15, 28(x2)
Insns: 00000001110000010010011110000011 at PC_x=0100013c

--------------------------------------
01000140:  	02010713    	ADDI   x14, x2, 28
Insns: 00000010000000010000011100010011 at PC_x=01000140

--------------------------------------
01000144:  	00f707b3    	ADD    x15, x14, x15

--------------------------------------
01000148:  	fe47c703    	LBU    x14, 15(x15)
Insns: 11111110010001111100011100000011 at PC_x=01000148

--------------------------------------
0100014c:  	05500793    	ADDI   x15, x0, 4294967268
Insns: 00000101010100000000011110010011 at PC_x=0100014c

--------------------------------------
01000150:  	00f71863    	BNE    x14, x15, 10001a5

--------------------------------------
01000160:  	01c12783    	LW     x15, 16(x2)
Insns: 00000001110000010010011110000011 at PC_x=01000160

--------------------------------------
01000164:  	00178793    	ADDI   x15, x15, 28
Insns: 00000000000101111000011110010011 at PC_x=01000164

--------------------------------------
01000168:  	00f12e23    	SW     x15, 1(x2)

--------------------------------------
0100016c:  	01c12703    	LW     x14, 28(x2)
Insns: 00000001110000010010011100000011 at PC_x=0100016c

--------------------------------------
01000170:  	01300793    	ADDI   x15, x0, 28
Insns: 00000001001100000000011110010011 at PC_x=01000170

--------------------------------------
01000174:  	eee7d8e3    	BGE    x15, x14, 1000187

--------------------------------------
01000064:  	01c12783    	LW     x15, 4294967024(x2)
Insns: 00000001110000010010011110000011 at PC_x=01000064

--------------------------------------
01000068:  	02010713    	ADDI   x14, x2, 28
Insns: 00000010000000010000011100010011 at PC_x=01000068

--------------------------------------
0100006c:  	00f707b3    	ADD    x15, x14, x15

--------------------------------------
01000070:  	fe47c703    	LBU    x14, 15(x15)
Insns: 11111110010001111100011100000011 at PC_x=01000070

--------------------------------------
01000074:  	06100793    	ADDI   x15, x0, 4294967268
Insns: 00000110000100000000011110010011 at PC_x=01000074

--------------------------------------
01000078:  	0cf70e63    	BEQ    x14, x15, 10000d9

--------------------------------------
0100007c:  	01c12783    	LW     x15, 220(x2)
Insns: 00000001110000010010011110000011 at PC_x=0100007c

--------------------------------------
01000080:  	02010713    	ADDI   x14, x2, 28
Insns: 00000010000000010000011100010011 at PC_x=01000080

--------------------------------------
01000084:  	00f707b3    	ADD    x15, x14, x15

--------------------------------------
01000088:  	fe47c703    	LBU    x14, 15(x15)
Insns: 11111110010001111100011100000011 at PC_x=01000088

--------------------------------------
0100008c:  	04100793    	ADDI   x15, x0, 4294967268
Insns: 00000100000100000000011110010011 at PC_x=0100008c

--------------------------------------
01000090:  	0cf70263    	BEQ    x14, x15, 10000d1

--------------------------------------
01000094:  	01c12783    	LW     x15, 196(x2)
Insns: 00000001110000010010011110000011 at PC_x=01000094

--------------------------------------
01000098:  	02010713    	ADDI   x14, x2, 28
Insns: 00000010000000010000011100010011 at PC_x=01000098

--------------------------------------
0100009c:  	00f707b3    	ADD    x15, x14, x15

--------------------------------------
010000a0:  	fe47c703    	LBU    x14, 15(x15)
Insns: 11111110010001111100011100000011 at PC_x=010000a0

--------------------------------------
010000a4:  	06500793    	ADDI   x15, x0, 4294967268
Insns: 00000110010100000000011110010011 at PC_x=010000a4

--------------------------------------
010000a8:  	0af70663    	BEQ    x14, x15, 100010d

--------------------------------------
010000ac:  	01c12783    	LW     x15, 172(x2)
Insns: 00000001110000010010011110000011 at PC_x=010000ac

--------------------------------------
010000b0:  	02010713    	ADDI   x14, x2, 28
Insns: 00000010000000010000011100010011 at PC_x=010000b0

--------------------------------------
010000b4:  	00f707b3    	ADD    x15, x14, x15

--------------------------------------
010000b8:  	fe47c703    	LBU    x14, 15(x15)
Insns: 11111110010001111100011100000011 at PC_x=010000b8

--------------------------------------
010000bc:  	04500793    	ADDI   x15, x0, 4294967268
Insns: 00000100010100000000011110010011 at PC_x=010000bc

--------------------------------------
010000c0:  	08f70a63    	BEQ    x14, x15, 1000105

--------------------------------------
010000c4:  	01c12783    	LW     x15, 148(x2)
Insns: 00000001110000010010011110000011 at PC_x=010000c4

--------------------------------------
010000c8:  	02010713    	ADDI   x14, x2, 28
Insns: 00000010000000010000011100010011 at PC_x=010000c8

--------------------------------------
010000cc:  	00f707b3    	ADD    x15, x14, x15

--------------------------------------
010000d0:  	fe47c703    	LBU    x14, 15(x15)
Insns: 11111110010001111100011100000011 at PC_x=010000d0

--------------------------------------
010000d4:  	06900793    	ADDI   x15, x0, 4294967268
Insns: 00000110100100000000011110010011 at PC_x=010000d4

--------------------------------------
010000d8:  	06f70e63    	BEQ    x14, x15, 1000141

--------------------------------------
010000dc:  	01c12783    	LW     x15, 124(x2)
Insns: 00000001110000010010011110000011 at PC_x=010000dc

--------------------------------------
010000e0:  	02010713    	ADDI   x14, x2, 28
Insns: 00000010000000010000011100010011 at PC_x=010000e0

--------------------------------------
010000e4:  	00f707b3    	ADD    x15, x14, x15

--------------------------------------
010000e8:  	fe47c703    	LBU    x14, 15(x15)
Insns: 11111110010001111100011100000011 at PC_x=010000e8

--------------------------------------
010000ec:  	04900793    	ADDI   x15, x0, 4294967268
Insns: 00000100100100000000011110010011 at PC_x=010000ec

--------------------------------------
010000f0:  	06f70263    	BEQ    x14, x15, 1000139

--------------------------------------
010000f4:  	01c12783    	LW     x15, 100(x2)
Insns: 00000001110000010010011110000011 at PC_x=010000f4

--------------------------------------
010000f8:  	02010713    	ADDI   x14, x2, 28
Insns: 00000010000000010000011100010011 at PC_x=010000f8

--------------------------------------
010000fc:  	00f707b3    	ADD    x15, x14, x15

--------------------------------------
01000100:  	fe47c703    	LBU    x14, 15(x15)
Insns: 11111110010001111100011100000011 at PC_x=01000100

--------------------------------------
01000104:  	06f00793    	ADDI   x15, x0, 4294967268
Insns: 00000110111100000000011110010011 at PC_x=01000104

--------------------------------------
01000108:  	04f70663    	BEQ    x14, x15, 1000177

--------------------------------------
0100010c:  	01c12783    	LW     x15, 76(x2)
Insns: 00000001110000010010011110000011 at PC_x=0100010c

--------------------------------------
01000110:  	02010713    	ADDI   x14, x2, 28
Insns: 00000010000000010000011100010011 at PC_x=01000110

--------------------------------------
01000114:  	00f707b3    	ADD    x15, x14, x15

--------------------------------------
01000118:  	fe47c703    	LBU    x14, 15(x15)
Insns: 11111110010001111100011100000011 at PC_x=01000118

--------------------------------------
0100011c:  	04f00793    	ADDI   x15, x0, 4294967268
Insns: 00000100111100000000011110010011 at PC_x=0100011c

--------------------------------------
01000120:  	02f70a63    	BEQ    x14, x15, 100016f

--------------------------------------
01000124:  	01c12783    	LW     x15, 52(x2)
Insns: 00000001110000010010011110000011 at PC_x=01000124

--------------------------------------
01000128:  	02010713    	ADDI   x14, x2, 28
Insns: 00000010000000010000011100010011 at PC_x=01000128

--------------------------------------
0100012c:  	00f707b3    	ADD    x15, x14, x15

--------------------------------------
01000130:  	fe47c703    	LBU    x14, 15(x15)
Insns: 11111110010001111100011100000011 at PC_x=01000130

--------------------------------------
01000134:  	07500793    	ADDI   x15, x0, 4294967268
Insns: 00000111010100000000011110010011 at PC_x=01000134

--------------------------------------
01000138:  	00f70e63    	BEQ    x14, x15, 10001ad

--------------------------------------
0100013c:  	01c12783    	LW     x15, 28(x2)
Insns: 00000001110000010010011110000011 at PC_x=0100013c

--------------------------------------
01000140:  	02010713    	ADDI   x14, x2, 28
Insns: 00000010000000010000011100010011 at PC_x=01000140

--------------------------------------
01000144:  	00f707b3    	ADD    x15, x14, x15

--------------------------------------
01000148:  	fe47c703    	LBU    x14, 15(x15)
Insns: 11111110010001111100011100000011 at PC_x=01000148

--------------------------------------
0100014c:  	05500793    	ADDI   x15, x0, 4294967268
Insns: 00000101010100000000011110010011 at PC_x=0100014c

--------------------------------------
01000150:  	00f71863    	BNE    x14, x15, 10001a5

--------------------------------------
01000160:  	01c12783    	LW     x15, 16(x2)
Insns: 00000001110000010010011110000011 at PC_x=01000160

--------------------------------------
01000164:  	00178793    	ADDI   x15, x15, 28
Insns: 00000000000101111000011110010011 at PC_x=01000164

--------------------------------------
01000168:  	00f12e23    	SW     x15, 1(x2)

--------------------------------------
0100016c:  	01c12703    	LW     x14, 28(x2)
Insns: 00000001110000010010011100000011 at PC_x=0100016c

--------------------------------------
01000170:  	01300793    	ADDI   x15, x0, 28
Insns: 00000001001100000000011110010011 at PC_x=01000170

--------------------------------------
01000174:  	eee7d8e3    	BGE    x15, x14, 1000187

--------------------------------------
01000064:  	01c12783    	LW     x15, 4294967024(x2)
Insns: 00000001110000010010011110000011 at PC_x=01000064

--------------------------------------
01000068:  	02010713    	ADDI   x14, x2, 28
Insns: 00000010000000010000011100010011 at PC_x=01000068

--------------------------------------
0100006c:  	00f707b3    	ADD    x15, x14, x15

--------------------------------------
01000070:  	fe47c703    	LBU    x14, 15(x15)
Insns: 11111110010001111100011100000011 at PC_x=01000070

--------------------------------------
01000074:  	06100793    	ADDI   x15, x0, 4294967268
Insns: 00000110000100000000011110010011 at PC_x=01000074

--------------------------------------
01000078:  	0cf70e63    	BEQ    x14, x15, 10000d9

--------------------------------------
0100007c:  	01c12783    	LW     x15, 220(x2)
Insns: 00000001110000010010011110000011 at PC_x=0100007c

--------------------------------------
01000080:  	02010713    	ADDI   x14, x2, 28
Insns: 00000010000000010000011100010011 at PC_x=01000080

--------------------------------------
01000084:  	00f707b3    	ADD    x15, x14, x15

--------------------------------------
01000088:  	fe47c703    	LBU    x14, 15(x15)
Insns: 11111110010001111100011100000011 at PC_x=01000088

--------------------------------------
0100008c:  	04100793    	ADDI   x15, x0, 4294967268
Insns: 00000100000100000000011110010011 at PC_x=0100008c

--------------------------------------
01000090:  	0cf70263    	BEQ    x14, x15, 10000d1

--------------------------------------
01000094:  	01c12783    	LW     x15, 196(x2)
Insns: 00000001110000010010011110000011 at PC_x=01000094

--------------------------------------
01000098:  	02010713    	ADDI   x14, x2, 28
Insns: 00000010000000010000011100010011 at PC_x=01000098

--------------------------------------
0100009c:  	00f707b3    	ADD    x15, x14, x15

--------------------------------------
010000a0:  	fe47c703    	LBU    x14, 15(x15)
Insns: 11111110010001111100011100000011 at PC_x=010000a0

--------------------------------------
010000a4:  	06500793    	ADDI   x15, x0, 4294967268
Insns: 00000110010100000000011110010011 at PC_x=010000a4

--------------------------------------
010000a8:  	0af70663    	BEQ    x14, x15, 100010d

--------------------------------------
010000ac:  	01c12783    	LW     x15, 172(x2)
Insns: 00000001110000010010011110000011 at PC_x=010000ac

--------------------------------------
010000b0:  	02010713    	ADDI   x14, x2, 28
Insns: 00000010000000010000011100010011 at PC_x=010000b0

--------------------------------------
010000b4:  	00f707b3    	ADD    x15, x14, x15

--------------------------------------
010000b8:  	fe47c703    	LBU    x14, 15(x15)
Insns: 11111110010001111100011100000011 at PC_x=010000b8

--------------------------------------
010000bc:  	04500793    	ADDI   x15, x0, 4294967268
Insns: 00000100010100000000011110010011 at PC_x=010000bc

--------------------------------------
010000c0:  	08f70a63    	BEQ    x14, x15, 1000105

--------------------------------------
010000c4:  	01c12783    	LW     x15, 148(x2)
Insns: 00000001110000010010011110000011 at PC_x=010000c4

--------------------------------------
010000c8:  	02010713    	ADDI   x14, x2, 28
Insns: 00000010000000010000011100010011 at PC_x=010000c8

--------------------------------------
010000cc:  	00f707b3    	ADD    x15, x14, x15

--------------------------------------
010000d0:  	fe47c703    	LBU    x14, 15(x15)
Insns: 11111110010001111100011100000011 at PC_x=010000d0

--------------------------------------
010000d4:  	06900793    	ADDI   x15, x0, 4294967268
Insns: 00000110100100000000011110010011 at PC_x=010000d4

--------------------------------------
010000d8:  	06f70e63    	BEQ    x14, x15, 1000141

--------------------------------------
010000dc:  	01c12783    	LW     x15, 124(x2)
Insns: 00000001110000010010011110000011 at PC_x=010000dc

--------------------------------------
010000e0:  	02010713    	ADDI   x14, x2, 28
Insns: 00000010000000010000011100010011 at PC_x=010000e0

--------------------------------------
010000e4:  	00f707b3    	ADD    x15, x14, x15

--------------------------------------
010000e8:  	fe47c703    	LBU    x14, 15(x15)
Insns: 11111110010001111100011100000011 at PC_x=010000e8

--------------------------------------
010000ec:  	04900793    	ADDI   x15, x0, 4294967268
Insns: 00000100100100000000011110010011 at PC_x=010000ec

--------------------------------------
010000f0:  	06f70263    	BEQ    x14, x15, 1000139

--------------------------------------
010000f4:  	01c12783    	LW     x15, 100(x2)
Insns: 00000001110000010010011110000011 at PC_x=010000f4

--------------------------------------
010000f8:  	02010713    	ADDI   x14, x2, 28
Insns: 00000010000000010000011100010011 at PC_x=010000f8

--------------------------------------
010000fc:  	00f707b3    	ADD    x15, x14, x15

--------------------------------------
01000100:  	fe47c703    	LBU    x14, 15(x15)
Insns: 11111110010001111100011100000011 at PC_x=01000100

--------------------------------------
01000104:  	06f00793    	ADDI   x15, x0, 4294967268
Insns: 00000110111100000000011110010011 at PC_x=01000104

--------------------------------------
01000108:  	04f70663    	BEQ    x14, x15, 1000177

--------------------------------------
01000154:  	01812783    	LW     x15, 76(x2)
Insns: 00000001100000010010011110000011 at PC_x=01000154

--------------------------------------
01000158:  	00178793    	ADDI   x15, x15, 24
Insns: 00000000000101111000011110010011 at PC_x=01000158

--------------------------------------
0100015c:  	00f12c23    	SW     x15, 1(x2)

--------------------------------------
01000160:  	01c12783    	LW     x15, 24(x2)
Insns: 00000001110000010010011110000011 at PC_x=01000160

--------------------------------------
01000164:  	00178793    	ADDI   x15, x15, 28
Insns: 00000000000101111000011110010011 at PC_x=01000164

--------------------------------------
01000168:  	00f12e23    	SW     x15, 1(x2)

--------------------------------------
0100016c:  	01c12703    	LW     x14, 28(x2)
Insns: 00000001110000010010011100000011 at PC_x=0100016c

--------------------------------------
01000170:  	01300793    	ADDI   x15, x0, 28
Insns: 00000001001100000000011110010011 at PC_x=01000170

--------------------------------------
01000174:  	eee7d8e3    	BGE    x15, x14, 1000187

--------------------------------------
01000064:  	01c12783    	LW     x15, 4294967024(x2)
Insns: 00000001110000010010011110000011 at PC_x=01000064

--------------------------------------
01000068:  	02010713    	ADDI   x14, x2, 28
Insns: 00000010000000010000011100010011 at PC_x=01000068

--------------------------------------
0100006c:  	00f707b3    	ADD    x15, x14, x15

--------------------------------------
01000070:  	fe47c703    	LBU    x14, 32(x15)
Insns: 11111110010001111100011100000011 at PC_x=01000070

--------------------------------------
01000074:  	06100793    	ADDI   x15, x0, 4294967268
Insns: 00000110000100000000011110010011 at PC_x=01000074

--------------------------------------
01000078:  	0cf70e63    	BEQ    x14, x15, 10000d9

--------------------------------------
0100007c:  	01c12783    	LW     x15, 220(x2)
Insns: 00000001110000010010011110000011 at PC_x=0100007c

--------------------------------------
01000080:  	02010713    	ADDI   x14, x2, 28
Insns: 00000010000000010000011100010011 at PC_x=01000080

--------------------------------------
01000084:  	00f707b3    	ADD    x15, x14, x15

--------------------------------------
01000088:  	fe47c703    	LBU    x14, 32(x15)
Insns: 11111110010001111100011100000011 at PC_x=01000088

--------------------------------------
0100008c:  	04100793    	ADDI   x15, x0, 4294967268
Insns: 00000100000100000000011110010011 at PC_x=0100008c

--------------------------------------
01000090:  	0cf70263    	BEQ    x14, x15, 10000d1

--------------------------------------
01000094:  	01c12783    	LW     x15, 196(x2)
Insns: 00000001110000010010011110000011 at PC_x=01000094

--------------------------------------
01000098:  	02010713    	ADDI   x14, x2, 28
Insns: 00000010000000010000011100010011 at PC_x=01000098

--------------------------------------
0100009c:  	00f707b3    	ADD    x15, x14, x15

--------------------------------------
010000a0:  	fe47c703    	LBU    x14, 32(x15)
Insns: 11111110010001111100011100000011 at PC_x=010000a0

--------------------------------------
010000a4:  	06500793    	ADDI   x15, x0, 4294967268
Insns: 00000110010100000000011110010011 at PC_x=010000a4

--------------------------------------
010000a8:  	0af70663    	BEQ    x14, x15, 100010d

--------------------------------------
010000ac:  	01c12783    	LW     x15, 172(x2)
Insns: 00000001110000010010011110000011 at PC_x=010000ac

--------------------------------------
010000b0:  	02010713    	ADDI   x14, x2, 28
Insns: 00000010000000010000011100010011 at PC_x=010000b0

--------------------------------------
010000b4:  	00f707b3    	ADD    x15, x14, x15

--------------------------------------
010000b8:  	fe47c703    	LBU    x14, 32(x15)
Insns: 11111110010001111100011100000011 at PC_x=010000b8

--------------------------------------
010000bc:  	04500793    	ADDI   x15, x0, 4294967268
Insns: 00000100010100000000011110010011 at PC_x=010000bc

--------------------------------------
010000c0:  	08f70a63    	BEQ    x14, x15, 1000105

--------------------------------------
010000c4:  	01c12783    	LW     x15, 148(x2)
Insns: 00000001110000010010011110000011 at PC_x=010000c4

--------------------------------------
010000c8:  	02010713    	ADDI   x14, x2, 28
Insns: 00000010000000010000011100010011 at PC_x=010000c8

--------------------------------------
010000cc:  	00f707b3    	ADD    x15, x14, x15

--------------------------------------
010000d0:  	fe47c703    	LBU    x14, 32(x15)
Insns: 11111110010001111100011100000011 at PC_x=010000d0

--------------------------------------
010000d4:  	06900793    	ADDI   x15, x0, 4294967268
Insns: 00000110100100000000011110010011 at PC_x=010000d4

--------------------------------------
010000d8:  	06f70e63    	BEQ    x14, x15, 1000141

--------------------------------------
010000dc:  	01c12783    	LW     x15, 124(x2)
Insns: 00000001110000010010011110000011 at PC_x=010000dc

--------------------------------------
010000e0:  	02010713    	ADDI   x14, x2, 28
Insns: 00000010000000010000011100010011 at PC_x=010000e0

--------------------------------------
010000e4:  	00f707b3    	ADD    x15, x14, x15

--------------------------------------
010000e8:  	fe47c703    	LBU    x14, 32(x15)
Insns: 11111110010001111100011100000011 at PC_x=010000e8

--------------------------------------
010000ec:  	04900793    	ADDI   x15, x0, 4294967268
Insns: 00000100100100000000011110010011 at PC_x=010000ec

--------------------------------------
010000f0:  	06f70263    	BEQ    x14, x15, 1000139

--------------------------------------
010000f4:  	01c12783    	LW     x15, 100(x2)
Insns: 00000001110000010010011110000011 at PC_x=010000f4

--------------------------------------
010000f8:  	02010713    	ADDI   x14, x2, 28
Insns: 00000010000000010000011100010011 at PC_x=010000f8

--------------------------------------
010000fc:  	00f707b3    	ADD    x15, x14, x15

--------------------------------------
01000100:  	fe47c703    	LBU    x14, 32(x15)
Insns: 11111110010001111100011100000011 at PC_x=01000100

--------------------------------------
01000104:  	06f00793    	ADDI   x15, x0, 4294967268
Insns: 00000110111100000000011110010011 at PC_x=01000104

--------------------------------------
01000108:  	04f70663    	BEQ    x14, x15, 1000177

--------------------------------------
0100010c:  	01c12783    	LW     x15, 76(x2)
Insns: 00000001110000010010011110000011 at PC_x=0100010c

--------------------------------------
01000110:  	02010713    	ADDI   x14, x2, 28
Insns: 00000010000000010000011100010011 at PC_x=01000110

--------------------------------------
01000114:  	00f707b3    	ADD    x15, x14, x15

--------------------------------------
01000118:  	fe47c703    	LBU    x14, 32(x15)
Insns: 11111110010001111100011100000011 at PC_x=01000118

--------------------------------------
0100011c:  	04f00793    	ADDI   x15, x0, 4294967268
Insns: 00000100111100000000011110010011 at PC_x=0100011c

--------------------------------------
01000120:  	02f70a63    	BEQ    x14, x15, 100016f

--------------------------------------
01000124:  	01c12783    	LW     x15, 52(x2)
Insns: 00000001110000010010011110000011 at PC_x=01000124

--------------------------------------
01000128:  	02010713    	ADDI   x14, x2, 28
Insns: 00000010000000010000011100010011 at PC_x=01000128

--------------------------------------
0100012c:  	00f707b3    	ADD    x15, x14, x15

--------------------------------------
01000130:  	fe47c703    	LBU    x14, 32(x15)
Insns: 11111110010001111100011100000011 at PC_x=01000130

--------------------------------------
01000134:  	07500793    	ADDI   x15, x0, 4294967268
Insns: 00000111010100000000011110010011 at PC_x=01000134

--------------------------------------
01000138:  	00f70e63    	BEQ    x14, x15, 10001ad

--------------------------------------
0100013c:  	01c12783    	LW     x15, 28(x2)
Insns: 00000001110000010010011110000011 at PC_x=0100013c

--------------------------------------
01000140:  	02010713    	ADDI   x14, x2, 28
Insns: 00000010000000010000011100010011 at PC_x=01000140

--------------------------------------
01000144:  	00f707b3    	ADD    x15, x14, x15

--------------------------------------
01000148:  	fe47c703    	LBU    x14, 32(x15)
Insns: 11111110010001111100011100000011 at PC_x=01000148

--------------------------------------
0100014c:  	05500793    	ADDI   x15, x0, 4294967268
Insns: 00000101010100000000011110010011 at PC_x=0100014c

--------------------------------------
01000150:  	00f71863    	BNE    x14, x15, 10001a5

--------------------------------------
01000160:  	01c12783    	LW     x15, 16(x2)
Insns: 00000001110000010010011110000011 at PC_x=01000160

--------------------------------------
01000164:  	00178793    	ADDI   x15, x15, 28
Insns: 00000000000101111000011110010011 at PC_x=01000164

--------------------------------------
01000168:  	00f12e23    	SW     x15, 1(x2)

--------------------------------------
0100016c:  	01c12703    	LW     x14, 28(x2)
Insns: 00000001110000010010011100000011 at PC_x=0100016c

--------------------------------------
01000170:  	01300793    	ADDI   x15, x0, 28
Insns: 00000001001100000000011110010011 at PC_x=01000170

--------------------------------------
01000174:  	eee7d8e3    	BGE    x15, x14, 1000187

--------------------------------------
01000064:  	01c12783    	LW     x15, 4294967024(x2)
Insns: 00000001110000010010011110000011 at PC_x=01000064

--------------------------------------
01000068:  	02010713    	ADDI   x14, x2, 28
Insns: 00000010000000010000011100010011 at PC_x=01000068

--------------------------------------
0100006c:  	00f707b3    	ADD    x15, x14, x15

--------------------------------------
01000070:  	fe47c703    	LBU    x14, 32(x15)
Insns: 11111110010001111100011100000011 at PC_x=01000070

--------------------------------------
01000074:  	06100793    	ADDI   x15, x0, 4294967268
Insns: 00000110000100000000011110010011 at PC_x=01000074

--------------------------------------
01000078:  	0cf70e63    	BEQ    x14, x15, 10000d9

--------------------------------------
0100007c:  	01c12783    	LW     x15, 220(x2)
Insns: 00000001110000010010011110000011 at PC_x=0100007c

--------------------------------------
01000080:  	02010713    	ADDI   x14, x2, 28
Insns: 00000010000000010000011100010011 at PC_x=01000080

--------------------------------------
01000084:  	00f707b3    	ADD    x15, x14, x15

--------------------------------------
01000088:  	fe47c703    	LBU    x14, 32(x15)
Insns: 11111110010001111100011100000011 at PC_x=01000088

--------------------------------------
0100008c:  	04100793    	ADDI   x15, x0, 4294967268
Insns: 00000100000100000000011110010011 at PC_x=0100008c

--------------------------------------
01000090:  	0cf70263    	BEQ    x14, x15, 10000d1

--------------------------------------
01000094:  	01c12783    	LW     x15, 196(x2)
Insns: 00000001110000010010011110000011 at PC_x=01000094

--------------------------------------
01000098:  	02010713    	ADDI   x14, x2, 28
Insns: 00000010000000010000011100010011 at PC_x=01000098

--------------------------------------
0100009c:  	00f707b3    	ADD    x15, x14, x15

--------------------------------------
010000a0:  	fe47c703    	LBU    x14, 32(x15)
Insns: 11111110010001111100011100000011 at PC_x=010000a0

--------------------------------------
010000a4:  	06500793    	ADDI   x15, x0, 4294967268
Insns: 00000110010100000000011110010011 at PC_x=010000a4

--------------------------------------
010000a8:  	0af70663    	BEQ    x14, x15, 100010d

--------------------------------------
01000154:  	01812783    	LW     x15, 172(x2)
Insns: 00000001100000010010011110000011 at PC_x=01000154

--------------------------------------
01000158:  	00178793    	ADDI   x15, x15, 24
Insns: 00000000000101111000011110010011 at PC_x=01000158

--------------------------------------
0100015c:  	00f12c23    	SW     x15, 1(x2)

--------------------------------------
01000160:  	01c12783    	LW     x15, 24(x2)
Insns: 00000001110000010010011110000011 at PC_x=01000160

--------------------------------------
01000164:  	00178793    	ADDI   x15, x15, 28
Insns: 00000000000101111000011110010011 at PC_x=01000164

--------------------------------------
01000168:  	00f12e23    	SW     x15, 1(x2)

--------------------------------------
0100016c:  	01c12703    	LW     x14, 28(x2)
Insns: 00000001110000010010011100000011 at PC_x=0100016c

--------------------------------------
01000170:  	01300793    	ADDI   x15, x0, 28
Insns: 00000001001100000000011110010011 at PC_x=01000170

--------------------------------------
01000174:  	eee7d8e3    	BGE    x15, x14, 1000187

--------------------------------------
01000064:  	01c12783    	LW     x15, 4294967024(x2)
Insns: 00000001110000010010011110000011 at PC_x=01000064

--------------------------------------
01000068:  	02010713    	ADDI   x14, x2, 28
Insns: 00000010000000010000011100010011 at PC_x=01000068

--------------------------------------
0100006c:  	00f707b3    	ADD    x15, x14, x15

--------------------------------------
01000070:  	fe47c703    	LBU    x14, 15(x15)
Insns: 11111110010001111100011100000011 at PC_x=01000070

--------------------------------------
01000074:  	06100793    	ADDI   x15, x0, 4294967268
Insns: 00000110000100000000011110010011 at PC_x=01000074

--------------------------------------
01000078:  	0cf70e63    	BEQ    x14, x15, 10000d9

--------------------------------------
0100007c:  	01c12783    	LW     x15, 220(x2)
Insns: 00000001110000010010011110000011 at PC_x=0100007c

--------------------------------------
01000080:  	02010713    	ADDI   x14, x2, 28
Insns: 00000010000000010000011100010011 at PC_x=01000080

--------------------------------------
01000084:  	00f707b3    	ADD    x15, x14, x15

--------------------------------------
01000088:  	fe47c703    	LBU    x14, 15(x15)
Insns: 11111110010001111100011100000011 at PC_x=01000088

--------------------------------------
0100008c:  	04100793    	ADDI   x15, x0, 4294967268
Insns: 00000100000100000000011110010011 at PC_x=0100008c

--------------------------------------
01000090:  	0cf70263    	BEQ    x14, x15, 10000d1

--------------------------------------
01000094:  	01c12783    	LW     x15, 196(x2)
Insns: 00000001110000010010011110000011 at PC_x=01000094

--------------------------------------
01000098:  	02010713    	ADDI   x14, x2, 28
Insns: 00000010000000010000011100010011 at PC_x=01000098

--------------------------------------
0100009c:  	00f707b3    	ADD    x15, x14, x15

--------------------------------------
010000a0:  	fe47c703    	LBU    x14, 15(x15)
Insns: 11111110010001111100011100000011 at PC_x=010000a0

--------------------------------------
010000a4:  	06500793    	ADDI   x15, x0, 4294967268
Insns: 00000110010100000000011110010011 at PC_x=010000a4

--------------------------------------
010000a8:  	0af70663    	BEQ    x14, x15, 100010d

--------------------------------------
010000ac:  	01c12783    	LW     x15, 172(x2)
Insns: 00000001110000010010011110000011 at PC_x=010000ac

--------------------------------------
010000b0:  	02010713    	ADDI   x14, x2, 28
Insns: 00000010000000010000011100010011 at PC_x=010000b0

--------------------------------------
010000b4:  	00f707b3    	ADD    x15, x14, x15

--------------------------------------
010000b8:  	fe47c703    	LBU    x14, 15(x15)
Insns: 11111110010001111100011100000011 at PC_x=010000b8

--------------------------------------
010000bc:  	04500793    	ADDI   x15, x0, 4294967268
Insns: 00000100010100000000011110010011 at PC_x=010000bc

--------------------------------------
010000c0:  	08f70a63    	BEQ    x14, x15, 1000105

--------------------------------------
010000c4:  	01c12783    	LW     x15, 148(x2)
Insns: 00000001110000010010011110000011 at PC_x=010000c4

--------------------------------------
010000c8:  	02010713    	ADDI   x14, x2, 28
Insns: 00000010000000010000011100010011 at PC_x=010000c8

--------------------------------------
010000cc:  	00f707b3    	ADD    x15, x14, x15

--------------------------------------
010000d0:  	fe47c703    	LBU    x14, 15(x15)
Insns: 11111110010001111100011100000011 at PC_x=010000d0

--------------------------------------
010000d4:  	06900793    	ADDI   x15, x0, 4294967268
Insns: 00000110100100000000011110010011 at PC_x=010000d4

--------------------------------------
010000d8:  	06f70e63    	BEQ    x14, x15, 1000141

--------------------------------------
010000dc:  	01c12783    	LW     x15, 124(x2)
Insns: 00000001110000010010011110000011 at PC_x=010000dc

--------------------------------------
010000e0:  	02010713    	ADDI   x14, x2, 28
Insns: 00000010000000010000011100010011 at PC_x=010000e0

--------------------------------------
010000e4:  	00f707b3    	ADD    x15, x14, x15

--------------------------------------
010000e8:  	fe47c703    	LBU    x14, 15(x15)
Insns: 11111110010001111100011100000011 at PC_x=010000e8

--------------------------------------
010000ec:  	04900793    	ADDI   x15, x0, 4294967268
Insns: 00000100100100000000011110010011 at PC_x=010000ec

--------------------------------------
010000f0:  	06f70263    	BEQ    x14, x15, 1000139

--------------------------------------
010000f4:  	01c12783    	LW     x15, 100(x2)
Insns: 00000001110000010010011110000011 at PC_x=010000f4

--------------------------------------
010000f8:  	02010713    	ADDI   x14, x2, 28
Insns: 00000010000000010000011100010011 at PC_x=010000f8

--------------------------------------
010000fc:  	00f707b3    	ADD    x15, x14, x15

--------------------------------------
01000100:  	fe47c703    	LBU    x14, 15(x15)
Insns: 11111110010001111100011100000011 at PC_x=01000100

--------------------------------------
01000104:  	06f00793    	ADDI   x15, x0, 4294967268
Insns: 00000110111100000000011110010011 at PC_x=01000104

--------------------------------------
01000108:  	04f70663    	BEQ    x14, x15, 1000177

--------------------------------------
0100010c:  	01c12783    	LW     x15, 76(x2)
Insns: 00000001110000010010011110000011 at PC_x=0100010c

--------------------------------------
01000110:  	02010713    	ADDI   x14, x2, 28
Insns: 00000010000000010000011100010011 at PC_x=01000110

--------------------------------------
01000114:  	00f707b3    	ADD    x15, x14, x15

--------------------------------------
01000118:  	fe47c703    	LBU    x14, 15(x15)
Insns: 11111110010001111100011100000011 at PC_x=01000118

--------------------------------------
0100011c:  	04f00793    	ADDI   x15, x0, 4294967268
Insns: 00000100111100000000011110010011 at PC_x=0100011c

--------------------------------------
01000120:  	02f70a63    	BEQ    x14, x15, 100016f

--------------------------------------
01000124:  	01c12783    	LW     x15, 52(x2)
Insns: 00000001110000010010011110000011 at PC_x=01000124

--------------------------------------
01000128:  	02010713    	ADDI   x14, x2, 28
Insns: 00000010000000010000011100010011 at PC_x=01000128

--------------------------------------
0100012c:  	00f707b3    	ADD    x15, x14, x15

--------------------------------------
01000130:  	fe47c703    	LBU    x14, 15(x15)
Insns: 11111110010001111100011100000011 at PC_x=01000130

--------------------------------------
01000134:  	07500793    	ADDI   x15, x0, 4294967268
Insns: 00000111010100000000011110010011 at PC_x=01000134

--------------------------------------
01000138:  	00f70e63    	BEQ    x14, x15, 10001ad

--------------------------------------
0100013c:  	01c12783    	LW     x15, 28(x2)
Insns: 00000001110000010010011110000011 at PC_x=0100013c

--------------------------------------
01000140:  	02010713    	ADDI   x14, x2, 28
Insns: 00000010000000010000011100010011 at PC_x=01000140

--------------------------------------
01000144:  	00f707b3    	ADD    x15, x14, x15

--------------------------------------
01000148:  	fe47c703    	LBU    x14, 15(x15)
Insns: 11111110010001111100011100000011 at PC_x=01000148

--------------------------------------
0100014c:  	05500793    	ADDI   x15, x0, 4294967268
Insns: 00000101010100000000011110010011 at PC_x=0100014c

--------------------------------------
01000150:  	00f71863    	BNE    x14, x15, 10001a5

--------------------------------------
01000160:  	01c12783    	LW     x15, 16(x2)
Insns: 00000001110000010010011110000011 at PC_x=01000160

--------------------------------------
01000164:  	00178793    	ADDI   x15, x15, 28
Insns: 00000000000101111000011110010011 at PC_x=01000164

--------------------------------------
01000168:  	00f12e23    	SW     x15, 1(x2)

--------------------------------------
0100016c:  	01c12703    	LW     x14, 28(x2)
Insns: 00000001110000010010011100000011 at PC_x=0100016c

--------------------------------------
01000170:  	01300793    	ADDI   x15, x0, 28
Insns: 00000001001100000000011110010011 at PC_x=01000170

--------------------------------------
01000174:  	eee7d8e3    	BGE    x15, x14, 1000187

--------------------------------------
01000064:  	01c12783    	LW     x15, 4294967024(x2)
Insns: 00000001110000010010011110000011 at PC_x=01000064

--------------------------------------
01000068:  	02010713    	ADDI   x14, x2, 28
Insns: 00000010000000010000011100010011 at PC_x=01000068

--------------------------------------
0100006c:  	00f707b3    	ADD    x15, x14, x15

--------------------------------------
01000070:  	fe47c703    	LBU    x14, 15(x15)
Insns: 11111110010001111100011100000011 at PC_x=01000070

--------------------------------------
01000074:  	06100793    	ADDI   x15, x0, 4294967268
Insns: 00000110000100000000011110010011 at PC_x=01000074

--------------------------------------
01000078:  	0cf70e63    	BEQ    x14, x15, 10000d9

--------------------------------------
0100007c:  	01c12783    	LW     x15, 220(x2)
Insns: 00000001110000010010011110000011 at PC_x=0100007c

--------------------------------------
01000080:  	02010713    	ADDI   x14, x2, 28
Insns: 00000010000000010000011100010011 at PC_x=01000080

--------------------------------------
01000084:  	00f707b3    	ADD    x15, x14, x15

--------------------------------------
01000088:  	fe47c703    	LBU    x14, 15(x15)
Insns: 11111110010001111100011100000011 at PC_x=01000088

--------------------------------------
0100008c:  	04100793    	ADDI   x15, x0, 4294967268
Insns: 00000100000100000000011110010011 at PC_x=0100008c

--------------------------------------
01000090:  	0cf70263    	BEQ    x14, x15, 10000d1

--------------------------------------
01000094:  	01c12783    	LW     x15, 196(x2)
Insns: 00000001110000010010011110000011 at PC_x=01000094

--------------------------------------
01000098:  	02010713    	ADDI   x14, x2, 28
Insns: 00000010000000010000011100010011 at PC_x=01000098

--------------------------------------
0100009c:  	00f707b3    	ADD    x15, x14, x15

--------------------------------------
010000a0:  	fe47c703    	LBU    x14, 15(x15)
Insns: 11111110010001111100011100000011 at PC_x=010000a0

--------------------------------------
010000a4:  	06500793    	ADDI   x15, x0, 4294967268
Insns: 00000110010100000000011110010011 at PC_x=010000a4

--------------------------------------
010000a8:  	0af70663    	BEQ    x14, x15, 100010d

--------------------------------------
010000ac:  	01c12783    	LW     x15, 172(x2)
Insns: 00000001110000010010011110000011 at PC_x=010000ac

--------------------------------------
010000b0:  	02010713    	ADDI   x14, x2, 28
Insns: 00000010000000010000011100010011 at PC_x=010000b0

--------------------------------------
010000b4:  	00f707b3    	ADD    x15, x14, x15

--------------------------------------
010000b8:  	fe47c703    	LBU    x14, 15(x15)
Insns: 11111110010001111100011100000011 at PC_x=010000b8

--------------------------------------
010000bc:  	04500793    	ADDI   x15, x0, 4294967268
Insns: 00000100010100000000011110010011 at PC_x=010000bc

--------------------------------------
010000c0:  	08f70a63    	BEQ    x14, x15, 1000105

--------------------------------------
010000c4:  	01c12783    	LW     x15, 148(x2)
Insns: 00000001110000010010011110000011 at PC_x=010000c4

--------------------------------------
010000c8:  	02010713    	ADDI   x14, x2, 28
Insns: 00000010000000010000011100010011 at PC_x=010000c8

--------------------------------------
010000cc:  	00f707b3    	ADD    x15, x14, x15

--------------------------------------
010000d0:  	fe47c703    	LBU    x14, 15(x15)
Insns: 11111110010001111100011100000011 at PC_x=010000d0

--------------------------------------
010000d4:  	06900793    	ADDI   x15, x0, 4294967268
Insns: 00000110100100000000011110010011 at PC_x=010000d4

--------------------------------------
010000d8:  	06f70e63    	BEQ    x14, x15, 1000141

--------------------------------------
010000dc:  	01c12783    	LW     x15, 124(x2)
Insns: 00000001110000010010011110000011 at PC_x=010000dc

--------------------------------------
010000e0:  	02010713    	ADDI   x14, x2, 28
Insns: 00000010000000010000011100010011 at PC_x=010000e0

--------------------------------------
010000e4:  	00f707b3    	ADD    x15, x14, x15

--------------------------------------
010000e8:  	fe47c703    	LBU    x14, 15(x15)
Insns: 11111110010001111100011100000011 at PC_x=010000e8

--------------------------------------
010000ec:  	04900793    	ADDI   x15, x0, 4294967268
Insns: 00000100100100000000011110010011 at PC_x=010000ec

--------------------------------------
010000f0:  	06f70263    	BEQ    x14, x15, 1000139

--------------------------------------
010000f4:  	01c12783    	LW     x15, 100(x2)
Insns: 00000001110000010010011110000011 at PC_x=010000f4

--------------------------------------
010000f8:  	02010713    	ADDI   x14, x2, 28
Insns: 00000010000000010000011100010011 at PC_x=010000f8

--------------------------------------
010000fc:  	00f707b3    	ADD    x15, x14, x15

--------------------------------------
01000100:  	fe47c703    	LBU    x14, 15(x15)
Insns: 11111110010001111100011100000011 at PC_x=01000100

--------------------------------------
01000104:  	06f00793    	ADDI   x15, x0, 4294967268
Insns: 00000110111100000000011110010011 at PC_x=01000104

--------------------------------------
01000108:  	04f70663    	BEQ    x14, x15, 1000177

--------------------------------------
0100010c:  	01c12783    	LW     x15, 76(x2)
Insns: 00000001110000010010011110000011 at PC_x=0100010c

--------------------------------------
01000110:  	02010713    	ADDI   x14, x2, 28
Insns: 00000010000000010000011100010011 at PC_x=01000110

--------------------------------------
01000114:  	00f707b3    	ADD    x15, x14, x15

--------------------------------------
01000118:  	fe47c703    	LBU    x14, 15(x15)
Insns: 11111110010001111100011100000011 at PC_x=01000118

--------------------------------------
0100011c:  	04f00793    	ADDI   x15, x0, 4294967268
Insns: 00000100111100000000011110010011 at PC_x=0100011c

--------------------------------------
01000120:  	02f70a63    	BEQ    x14, x15, 100016f

--------------------------------------
01000124:  	01c12783    	LW     x15, 52(x2)
Insns: 00000001110000010010011110000011 at PC_x=01000124

--------------------------------------
01000128:  	02010713    	ADDI   x14, x2, 28
Insns: 00000010000000010000011100010011 at PC_x=01000128

--------------------------------------
0100012c:  	00f707b3    	ADD    x15, x14, x15

--------------------------------------
01000130:  	fe47c703    	LBU    x14, 15(x15)
Insns: 11111110010001111100011100000011 at PC_x=01000130

--------------------------------------
01000134:  	07500793    	ADDI   x15, x0, 4294967268
Insns: 00000111010100000000011110010011 at PC_x=01000134

--------------------------------------
01000138:  	00f70e63    	BEQ    x14, x15, 10001ad

--------------------------------------
0100013c:  	01c12783    	LW     x15, 28(x2)
Insns: 00000001110000010010011110000011 at PC_x=0100013c

--------------------------------------
01000140:  	02010713    	ADDI   x14, x2, 28
Insns: 00000010000000010000011100010011 at PC_x=01000140

--------------------------------------
01000144:  	00f707b3    	ADD    x15, x14, x15

--------------------------------------
01000148:  	fe47c703    	LBU    x14, 15(x15)
Insns: 11111110010001111100011100000011 at PC_x=01000148

--------------------------------------
0100014c:  	05500793    	ADDI   x15, x0, 4294967268
Insns: 00000101010100000000011110010011 at PC_x=0100014c

--------------------------------------
01000150:  	00f71863    	BNE    x14, x15, 10001a5

--------------------------------------
01000160:  	01c12783    	LW     x15, 16(x2)
Insns: 00000001110000010010011110000011 at PC_x=01000160

--------------------------------------
01000164:  	00178793    	ADDI   x15, x15, 28
Insns: 00000000000101111000011110010011 at PC_x=01000164

--------------------------------------
01000168:  	00f12e23    	SW     x15, 1(x2)

--------------------------------------
0100016c:  	01c12703    	LW     x14, 28(x2)
Insns: 00000001110000010010011100000011 at PC_x=0100016c

--------------------------------------
01000170:  	01300793    	ADDI   x15, x0, 28
Insns: 00000001001100000000011110010011 at PC_x=01000170

--------------------------------------
01000174:  	eee7d8e3    	BGE    x15, x14, 1000187

--------------------------------------
01000064:  	01c12783    	LW     x15, 4294967024(x2)
Insns: 00000001110000010010011110000011 at PC_x=01000064

--------------------------------------
01000068:  	02010713    	ADDI   x14, x2, 28
Insns: 00000010000000010000011100010011 at PC_x=01000068

--------------------------------------
0100006c:  	00f707b3    	ADD    x15, x14, x15

--------------------------------------
01000070:  	fe47c703    	LBU    x14, 15(x15)
Insns: 11111110010001111100011100000011 at PC_x=01000070

--------------------------------------
01000074:  	06100793    	ADDI   x15, x0, 4294967268
Insns: 00000110000100000000011110010011 at PC_x=01000074

--------------------------------------
01000078:  	0cf70e63    	BEQ    x14, x15, 10000d9

--------------------------------------
0100007c:  	01c12783    	LW     x15, 220(x2)
Insns: 00000001110000010010011110000011 at PC_x=0100007c

--------------------------------------
01000080:  	02010713    	ADDI   x14, x2, 28
Insns: 00000010000000010000011100010011 at PC_x=01000080

--------------------------------------
01000084:  	00f707b3    	ADD    x15, x14, x15

--------------------------------------
01000088:  	fe47c703    	LBU    x14, 15(x15)
Insns: 11111110010001111100011100000011 at PC_x=01000088

--------------------------------------
0100008c:  	04100793    	ADDI   x15, x0, 4294967268
Insns: 00000100000100000000011110010011 at PC_x=0100008c

--------------------------------------
01000090:  	0cf70263    	BEQ    x14, x15, 10000d1

--------------------------------------
01000094:  	01c12783    	LW     x15, 196(x2)
Insns: 00000001110000010010011110000011 at PC_x=01000094

--------------------------------------
01000098:  	02010713    	ADDI   x14, x2, 28
Insns: 00000010000000010000011100010011 at PC_x=01000098

--------------------------------------
0100009c:  	00f707b3    	ADD    x15, x14, x15

--------------------------------------
010000a0:  	fe47c703    	LBU    x14, 15(x15)
Insns: 11111110010001111100011100000011 at PC_x=010000a0

--------------------------------------
010000a4:  	06500793    	ADDI   x15, x0, 4294967268
Insns: 00000110010100000000011110010011 at PC_x=010000a4

--------------------------------------
010000a8:  	0af70663    	BEQ    x14, x15, 100010d

--------------------------------------
010000ac:  	01c12783    	LW     x15, 172(x2)
Insns: 00000001110000010010011110000011 at PC_x=010000ac

--------------------------------------
010000b0:  	02010713    	ADDI   x14, x2, 28
Insns: 00000010000000010000011100010011 at PC_x=010000b0

--------------------------------------
010000b4:  	00f707b3    	ADD    x15, x14, x15

--------------------------------------
010000b8:  	fe47c703    	LBU    x14, 15(x15)
Insns: 11111110010001111100011100000011 at PC_x=010000b8

--------------------------------------
010000bc:  	04500793    	ADDI   x15, x0, 4294967268
Insns: 00000100010100000000011110010011 at PC_x=010000bc

--------------------------------------
010000c0:  	08f70a63    	BEQ    x14, x15, 1000105

--------------------------------------
010000c4:  	01c12783    	LW     x15, 148(x2)
Insns: 00000001110000010010011110000011 at PC_x=010000c4

--------------------------------------
010000c8:  	02010713    	ADDI   x14, x2, 28
Insns: 00000010000000010000011100010011 at PC_x=010000c8

--------------------------------------
010000cc:  	00f707b3    	ADD    x15, x14, x15

--------------------------------------
010000d0:  	fe47c703    	LBU    x14, 15(x15)
Insns: 11111110010001111100011100000011 at PC_x=010000d0

--------------------------------------
010000d4:  	06900793    	ADDI   x15, x0, 4294967268
Insns: 00000110100100000000011110010011 at PC_x=010000d4

--------------------------------------
010000d8:  	06f70e63    	BEQ    x14, x15, 1000141

--------------------------------------
010000dc:  	01c12783    	LW     x15, 124(x2)
Insns: 00000001110000010010011110000011 at PC_x=010000dc

--------------------------------------
010000e0:  	02010713    	ADDI   x14, x2, 28
Insns: 00000010000000010000011100010011 at PC_x=010000e0

--------------------------------------
010000e4:  	00f707b3    	ADD    x15, x14, x15

--------------------------------------
010000e8:  	fe47c703    	LBU    x14, 15(x15)
Insns: 11111110010001111100011100000011 at PC_x=010000e8

--------------------------------------
010000ec:  	04900793    	ADDI   x15, x0, 4294967268
Insns: 00000100100100000000011110010011 at PC_x=010000ec

--------------------------------------
010000f0:  	06f70263    	BEQ    x14, x15, 1000139

--------------------------------------
010000f4:  	01c12783    	LW     x15, 100(x2)
Insns: 00000001110000010010011110000011 at PC_x=010000f4

--------------------------------------
010000f8:  	02010713    	ADDI   x14, x2, 28
Insns: 00000010000000010000011100010011 at PC_x=010000f8

--------------------------------------
010000fc:  	00f707b3    	ADD    x15, x14, x15

--------------------------------------
01000100:  	fe47c703    	LBU    x14, 15(x15)
Insns: 11111110010001111100011100000011 at PC_x=01000100

--------------------------------------
01000104:  	06f00793    	ADDI   x15, x0, 4294967268
Insns: 00000110111100000000011110010011 at PC_x=01000104

--------------------------------------
01000108:  	04f70663    	BEQ    x14, x15, 1000177

--------------------------------------
0100010c:  	01c12783    	LW     x15, 76(x2)
Insns: 00000001110000010010011110000011 at PC_x=0100010c

--------------------------------------
01000110:  	02010713    	ADDI   x14, x2, 28
Insns: 00000010000000010000011100010011 at PC_x=01000110

--------------------------------------
01000114:  	00f707b3    	ADD    x15, x14, x15

--------------------------------------
01000118:  	fe47c703    	LBU    x14, 15(x15)
Insns: 11111110010001111100011100000011 at PC_x=01000118

--------------------------------------
0100011c:  	04f00793    	ADDI   x15, x0, 4294967268
Insns: 00000100111100000000011110010011 at PC_x=0100011c

--------------------------------------
01000120:  	02f70a63    	BEQ    x14, x15, 100016f

--------------------------------------
01000124:  	01c12783    	LW     x15, 52(x2)
Insns: 00000001110000010010011110000011 at PC_x=01000124

--------------------------------------
01000128:  	02010713    	ADDI   x14, x2, 28
Insns: 00000010000000010000011100010011 at PC_x=01000128

--------------------------------------
0100012c:  	00f707b3    	ADD    x15, x14, x15

--------------------------------------
01000130:  	fe47c703    	LBU    x14, 15(x15)
Insns: 11111110010001111100011100000011 at PC_x=01000130

--------------------------------------
01000134:  	07500793    	ADDI   x15, x0, 4294967268
Insns: 00000111010100000000011110010011 at PC_x=01000134

--------------------------------------
01000138:  	00f70e63    	BEQ    x14, x15, 10001ad

--------------------------------------
0100013c:  	01c12783    	LW     x15, 28(x2)
Insns: 00000001110000010010011110000011 at PC_x=0100013c

--------------------------------------
01000140:  	02010713    	ADDI   x14, x2, 28
Insns: 00000010000000010000011100010011 at PC_x=01000140

--------------------------------------
01000144:  	00f707b3    	ADD    x15, x14, x15

--------------------------------------
01000148:  	fe47c703    	LBU    x14, 15(x15)
Insns: 11111110010001111100011100000011 at PC_x=01000148

--------------------------------------
0100014c:  	05500793    	ADDI   x15, x0, 4294967268
Insns: 00000101010100000000011110010011 at PC_x=0100014c

--------------------------------------
01000150:  	00f71863    	BNE    x14, x15, 10001a5

--------------------------------------
01000160:  	01c12783    	LW     x15, 16(x2)
Insns: 00000001110000010010011110000011 at PC_x=01000160

--------------------------------------
01000164:  	00178793    	ADDI   x15, x15, 28
Insns: 00000000000101111000011110010011 at PC_x=01000164

--------------------------------------
01000168:  	00f12e23    	SW     x15, 1(x2)

--------------------------------------
0100016c:  	01c12703    	LW     x14, 28(x2)
Insns: 00000001110000010010011100000011 at PC_x=0100016c

--------------------------------------
01000170:  	01300793    	ADDI   x15, x0, 28
Insns: 00000001001100000000011110010011 at PC_x=01000170

--------------------------------------
01000174:  	eee7d8e3    	BGE    x15, x14, 1000187

--------------------------------------
01000064:  	01c12783    	LW     x15, 4294967024(x2)
Insns: 00000001110000010010011110000011 at PC_x=01000064

--------------------------------------
01000068:  	02010713    	ADDI   x14, x2, 28
Insns: 00000010000000010000011100010011 at PC_x=01000068

--------------------------------------
0100006c:  	00f707b3    	ADD    x15, x14, x15

--------------------------------------
01000070:  	fe47c703    	LBU    x14, 15(x15)
Insns: 11111110010001111100011100000011 at PC_x=01000070

--------------------------------------
01000074:  	06100793    	ADDI   x15, x0, 4294967268
Insns: 00000110000100000000011110010011 at PC_x=01000074

--------------------------------------
01000078:  	0cf70e63    	BEQ    x14, x15, 10000d9

--------------------------------------
0100007c:  	01c12783    	LW     x15, 220(x2)
Insns: 00000001110000010010011110000011 at PC_x=0100007c

--------------------------------------
01000080:  	02010713    	ADDI   x14, x2, 28
Insns: 00000010000000010000011100010011 at PC_x=01000080

--------------------------------------
01000084:  	00f707b3    	ADD    x15, x14, x15

--------------------------------------
01000088:  	fe47c703    	LBU    x14, 15(x15)
Insns: 11111110010001111100011100000011 at PC_x=01000088

--------------------------------------
0100008c:  	04100793    	ADDI   x15, x0, 4294967268
Insns: 00000100000100000000011110010011 at PC_x=0100008c

--------------------------------------
01000090:  	0cf70263    	BEQ    x14, x15, 10000d1

--------------------------------------
01000094:  	01c12783    	LW     x15, 196(x2)
Insns: 00000001110000010010011110000011 at PC_x=01000094

--------------------------------------
01000098:  	02010713    	ADDI   x14, x2, 28
Insns: 00000010000000010000011100010011 at PC_x=01000098

--------------------------------------
0100009c:  	00f707b3    	ADD    x15, x14, x15

--------------------------------------
010000a0:  	fe47c703    	LBU    x14, 15(x15)
Insns: 11111110010001111100011100000011 at PC_x=010000a0

--------------------------------------
010000a4:  	06500793    	ADDI   x15, x0, 4294967268
Insns: 00000110010100000000011110010011 at PC_x=010000a4

--------------------------------------
010000a8:  	0af70663    	BEQ    x14, x15, 100010d

--------------------------------------
010000ac:  	01c12783    	LW     x15, 172(x2)
Insns: 00000001110000010010011110000011 at PC_x=010000ac

--------------------------------------
010000b0:  	02010713    	ADDI   x14, x2, 28
Insns: 00000010000000010000011100010011 at PC_x=010000b0

--------------------------------------
010000b4:  	00f707b3    	ADD    x15, x14, x15

--------------------------------------
010000b8:  	fe47c703    	LBU    x14, 15(x15)
Insns: 11111110010001111100011100000011 at PC_x=010000b8

--------------------------------------
010000bc:  	04500793    	ADDI   x15, x0, 4294967268
Insns: 00000100010100000000011110010011 at PC_x=010000bc

--------------------------------------
010000c0:  	08f70a63    	BEQ    x14, x15, 1000105

--------------------------------------
010000c4:  	01c12783    	LW     x15, 148(x2)
Insns: 00000001110000010010011110000011 at PC_x=010000c4

--------------------------------------
010000c8:  	02010713    	ADDI   x14, x2, 28
Insns: 00000010000000010000011100010011 at PC_x=010000c8

--------------------------------------
010000cc:  	00f707b3    	ADD    x15, x14, x15

--------------------------------------
010000d0:  	fe47c703    	LBU    x14, 15(x15)
Insns: 11111110010001111100011100000011 at PC_x=010000d0

--------------------------------------
010000d4:  	06900793    	ADDI   x15, x0, 4294967268
Insns: 00000110100100000000011110010011 at PC_x=010000d4

--------------------------------------
010000d8:  	06f70e63    	BEQ    x14, x15, 1000141

--------------------------------------
010000dc:  	01c12783    	LW     x15, 124(x2)
Insns: 00000001110000010010011110000011 at PC_x=010000dc

--------------------------------------
010000e0:  	02010713    	ADDI   x14, x2, 28
Insns: 00000010000000010000011100010011 at PC_x=010000e0

--------------------------------------
010000e4:  	00f707b3    	ADD    x15, x14, x15

--------------------------------------
010000e8:  	fe47c703    	LBU    x14, 15(x15)
Insns: 11111110010001111100011100000011 at PC_x=010000e8

--------------------------------------
010000ec:  	04900793    	ADDI   x15, x0, 4294967268
Insns: 00000100100100000000011110010011 at PC_x=010000ec

--------------------------------------
010000f0:  	06f70263    	BEQ    x14, x15, 1000139

--------------------------------------
010000f4:  	01c12783    	LW     x15, 100(x2)
Insns: 00000001110000010010011110000011 at PC_x=010000f4

--------------------------------------
010000f8:  	02010713    	ADDI   x14, x2, 28
Insns: 00000010000000010000011100010011 at PC_x=010000f8

--------------------------------------
010000fc:  	00f707b3    	ADD    x15, x14, x15

--------------------------------------
01000100:  	fe47c703    	LBU    x14, 15(x15)
Insns: 11111110010001111100011100000011 at PC_x=01000100

--------------------------------------
01000104:  	06f00793    	ADDI   x15, x0, 4294967268
Insns: 00000110111100000000011110010011 at PC_x=01000104

--------------------------------------
01000108:  	04f70663    	BEQ    x14, x15, 1000177

--------------------------------------
0100010c:  	01c12783    	LW     x15, 76(x2)
Insns: 00000001110000010010011110000011 at PC_x=0100010c

--------------------------------------
01000110:  	02010713    	ADDI   x14, x2, 28
Insns: 00000010000000010000011100010011 at PC_x=01000110

--------------------------------------
01000114:  	00f707b3    	ADD    x15, x14, x15

--------------------------------------
01000118:  	fe47c703    	LBU    x14, 15(x15)
Insns: 11111110010001111100011100000011 at PC_x=01000118

--------------------------------------
0100011c:  	04f00793    	ADDI   x15, x0, 4294967268
Insns: 00000100111100000000011110010011 at PC_x=0100011c

--------------------------------------
01000120:  	02f70a63    	BEQ    x14, x15, 100016f

--------------------------------------
01000124:  	01c12783    	LW     x15, 52(x2)
Insns: 00000001110000010010011110000011 at PC_x=01000124

--------------------------------------
01000128:  	02010713    	ADDI   x14, x2, 28
Insns: 00000010000000010000011100010011 at PC_x=01000128

--------------------------------------
0100012c:  	00f707b3    	ADD    x15, x14, x15

--------------------------------------
01000130:  	fe47c703    	LBU    x14, 15(x15)
Insns: 11111110010001111100011100000011 at PC_x=01000130

--------------------------------------
01000134:  	07500793    	ADDI   x15, x0, 4294967268
Insns: 00000111010100000000011110010011 at PC_x=01000134

--------------------------------------
01000138:  	00f70e63    	BEQ    x14, x15, 10001ad

--------------------------------------
0100013c:  	01c12783    	LW     x15, 28(x2)
Insns: 00000001110000010010011110000011 at PC_x=0100013c

--------------------------------------
01000140:  	02010713    	ADDI   x14, x2, 28
Insns: 00000010000000010000011100010011 at PC_x=01000140

--------------------------------------
01000144:  	00f707b3    	ADD    x15, x14, x15

--------------------------------------
01000148:  	fe47c703    	LBU    x14, 15(x15)
Insns: 11111110010001111100011100000011 at PC_x=01000148

--------------------------------------
0100014c:  	05500793    	ADDI   x15, x0, 4294967268
Insns: 00000101010100000000011110010011 at PC_x=0100014c

--------------------------------------
01000150:  	00f71863    	BNE    x14, x15, 10001a5

--------------------------------------
01000160:  	01c12783    	LW     x15, 16(x2)
Insns: 00000001110000010010011110000011 at PC_x=01000160

--------------------------------------
01000164:  	00178793    	ADDI   x15, x15, 28
Insns: 00000000000101111000011110010011 at PC_x=01000164

--------------------------------------
01000168:  	00f12e23    	SW     x15, 1(x2)

--------------------------------------
0100016c:  	01c12703    	LW     x14, 28(x2)
Insns: 00000001110000010010011100000011 at PC_x=0100016c

--------------------------------------
01000170:  	01300793    	ADDI   x15, x0, 28
Insns: 00000001001100000000011110010011 at PC_x=01000170

--------------------------------------
01000174:  	eee7d8e3    	BGE    x15, x14, 1000187

--------------------------------------
01000064:  	01c12783    	LW     x15, 4294967024(x2)
Insns: 00000001110000010010011110000011 at PC_x=01000064

--------------------------------------
01000068:  	02010713    	ADDI   x14, x2, 28
Insns: 00000010000000010000011100010011 at PC_x=01000068

--------------------------------------
0100006c:  	00f707b3    	ADD    x15, x14, x15

--------------------------------------
01000070:  	fe47c703    	LBU    x14, 15(x15)
Insns: 11111110010001111100011100000011 at PC_x=01000070

--------------------------------------
01000074:  	06100793    	ADDI   x15, x0, 4294967268
Insns: 00000110000100000000011110010011 at PC_x=01000074

--------------------------------------
01000078:  	0cf70e63    	BEQ    x14, x15, 10000d9

--------------------------------------
0100007c:  	01c12783    	LW     x15, 220(x2)
Insns: 00000001110000010010011110000011 at PC_x=0100007c

--------------------------------------
01000080:  	02010713    	ADDI   x14, x2, 28
Insns: 00000010000000010000011100010011 at PC_x=01000080

--------------------------------------
01000084:  	00f707b3    	ADD    x15, x14, x15

--------------------------------------
01000088:  	fe47c703    	LBU    x14, 15(x15)
Insns: 11111110010001111100011100000011 at PC_x=01000088

--------------------------------------
0100008c:  	04100793    	ADDI   x15, x0, 4294967268
Insns: 00000100000100000000011110010011 at PC_x=0100008c

--------------------------------------
01000090:  	0cf70263    	BEQ    x14, x15, 10000d1

--------------------------------------
01000094:  	01c12783    	LW     x15, 196(x2)
Insns: 00000001110000010010011110000011 at PC_x=01000094

--------------------------------------
01000098:  	02010713    	ADDI   x14, x2, 28
Insns: 00000010000000010000011100010011 at PC_x=01000098

--------------------------------------
0100009c:  	00f707b3    	ADD    x15, x14, x15

--------------------------------------
010000a0:  	fe47c703    	LBU    x14, 15(x15)
Insns: 11111110010001111100011100000011 at PC_x=010000a0

--------------------------------------
010000a4:  	06500793    	ADDI   x15, x0, 4294967268
Insns: 00000110010100000000011110010011 at PC_x=010000a4

--------------------------------------
010000a8:  	0af70663    	BEQ    x14, x15, 100010d

--------------------------------------
010000ac:  	01c12783    	LW     x15, 172(x2)
Insns: 00000001110000010010011110000011 at PC_x=010000ac

--------------------------------------
010000b0:  	02010713    	ADDI   x14, x2, 28
Insns: 00000010000000010000011100010011 at PC_x=010000b0

--------------------------------------
010000b4:  	00f707b3    	ADD    x15, x14, x15

--------------------------------------
010000b8:  	fe47c703    	LBU    x14, 15(x15)
Insns: 11111110010001111100011100000011 at PC_x=010000b8

--------------------------------------
010000bc:  	04500793    	ADDI   x15, x0, 4294967268
Insns: 00000100010100000000011110010011 at PC_x=010000bc

--------------------------------------
010000c0:  	08f70a63    	BEQ    x14, x15, 1000105

--------------------------------------
010000c4:  	01c12783    	LW     x15, 148(x2)
Insns: 00000001110000010010011110000011 at PC_x=010000c4

--------------------------------------
010000c8:  	02010713    	ADDI   x14, x2, 28
Insns: 00000010000000010000011100010011 at PC_x=010000c8

--------------------------------------
010000cc:  	00f707b3    	ADD    x15, x14, x15

--------------------------------------
010000d0:  	fe47c703    	LBU    x14, 15(x15)
Insns: 11111110010001111100011100000011 at PC_x=010000d0

--------------------------------------
010000d4:  	06900793    	ADDI   x15, x0, 4294967268
Insns: 00000110100100000000011110010011 at PC_x=010000d4

--------------------------------------
010000d8:  	06f70e63    	BEQ    x14, x15, 1000141

--------------------------------------
010000dc:  	01c12783    	LW     x15, 124(x2)
Insns: 00000001110000010010011110000011 at PC_x=010000dc

--------------------------------------
010000e0:  	02010713    	ADDI   x14, x2, 28
Insns: 00000010000000010000011100010011 at PC_x=010000e0

--------------------------------------
010000e4:  	00f707b3    	ADD    x15, x14, x15

--------------------------------------
010000e8:  	fe47c703    	LBU    x14, 15(x15)
Insns: 11111110010001111100011100000011 at PC_x=010000e8

--------------------------------------
010000ec:  	04900793    	ADDI   x15, x0, 4294967268
Insns: 00000100100100000000011110010011 at PC_x=010000ec

--------------------------------------
010000f0:  	06f70263    	BEQ    x14, x15, 1000139

--------------------------------------
010000f4:  	01c12783    	LW     x15, 100(x2)
Insns: 00000001110000010010011110000011 at PC_x=010000f4

--------------------------------------
010000f8:  	02010713    	ADDI   x14, x2, 28
Insns: 00000010000000010000011100010011 at PC_x=010000f8

--------------------------------------
010000fc:  	00f707b3    	ADD    x15, x14, x15

--------------------------------------
01000100:  	fe47c703    	LBU    x14, 15(x15)
Insns: 11111110010001111100011100000011 at PC_x=01000100

--------------------------------------
01000104:  	06f00793    	ADDI   x15, x0, 4294967268
Insns: 00000110111100000000011110010011 at PC_x=01000104

--------------------------------------
01000108:  	04f70663    	BEQ    x14, x15, 1000177

--------------------------------------
0100010c:  	01c12783    	LW     x15, 76(x2)
Insns: 00000001110000010010011110000011 at PC_x=0100010c

--------------------------------------
01000110:  	02010713    	ADDI   x14, x2, 28
Insns: 00000010000000010000011100010011 at PC_x=01000110

--------------------------------------
01000114:  	00f707b3    	ADD    x15, x14, x15

--------------------------------------
01000118:  	fe47c703    	LBU    x14, 15(x15)
Insns: 11111110010001111100011100000011 at PC_x=01000118

--------------------------------------
0100011c:  	04f00793    	ADDI   x15, x0, 4294967268
Insns: 00000100111100000000011110010011 at PC_x=0100011c

--------------------------------------
01000120:  	02f70a63    	BEQ    x14, x15, 100016f

--------------------------------------
01000124:  	01c12783    	LW     x15, 52(x2)
Insns: 00000001110000010010011110000011 at PC_x=01000124

--------------------------------------
01000128:  	02010713    	ADDI   x14, x2, 28
Insns: 00000010000000010000011100010011 at PC_x=01000128

--------------------------------------
0100012c:  	00f707b3    	ADD    x15, x14, x15

--------------------------------------
01000130:  	fe47c703    	LBU    x14, 15(x15)
Insns: 11111110010001111100011100000011 at PC_x=01000130

--------------------------------------
01000134:  	07500793    	ADDI   x15, x0, 4294967268
Insns: 00000111010100000000011110010011 at PC_x=01000134

--------------------------------------
01000138:  	00f70e63    	BEQ    x14, x15, 10001ad

--------------------------------------
0100013c:  	01c12783    	LW     x15, 28(x2)
Insns: 00000001110000010010011110000011 at PC_x=0100013c

--------------------------------------
01000140:  	02010713    	ADDI   x14, x2, 28
Insns: 00000010000000010000011100010011 at PC_x=01000140

--------------------------------------
01000144:  	00f707b3    	ADD    x15, x14, x15

--------------------------------------
01000148:  	fe47c703    	LBU    x14, 15(x15)
Insns: 11111110010001111100011100000011 at PC_x=01000148

--------------------------------------
0100014c:  	05500793    	ADDI   x15, x0, 4294967268
Insns: 00000101010100000000011110010011 at PC_x=0100014c

--------------------------------------
01000150:  	00f71863    	BNE    x14, x15, 10001a5

--------------------------------------
01000160:  	01c12783    	LW     x15, 16(x2)
Insns: 00000001110000010010011110000011 at PC_x=01000160

--------------------------------------
01000164:  	00178793    	ADDI   x15, x15, 28
Insns: 00000000000101111000011110010011 at PC_x=01000164

--------------------------------------
01000168:  	00f12e23    	SW     x15, 1(x2)

--------------------------------------
0100016c:  	01c12703    	LW     x14, 28(x2)
Insns: 00000001110000010010011100000011 at PC_x=0100016c

--------------------------------------
01000170:  	01300793    	ADDI   x15, x0, 28
Insns: 00000001001100000000011110010011 at PC_x=01000170

--------------------------------------
01000174:  	eee7d8e3    	BGE    x15, x14, 1000187

--------------------------------------
01000064:  	01c12783    	LW     x15, 4294967024(x2)
Insns: 00000001110000010010011110000011 at PC_x=01000064

--------------------------------------
01000068:  	02010713    	ADDI   x14, x2, 28
Insns: 00000010000000010000011100010011 at PC_x=01000068

--------------------------------------
0100006c:  	00f707b3    	ADD    x15, x14, x15

--------------------------------------
01000070:  	fe47c703    	LBU    x14, 15(x15)
Insns: 11111110010001111100011100000011 at PC_x=01000070

--------------------------------------
01000074:  	06100793    	ADDI   x15, x0, 4294967268
Insns: 00000110000100000000011110010011 at PC_x=01000074

--------------------------------------
01000078:  	0cf70e63    	BEQ    x14, x15, 10000d9

--------------------------------------
0100007c:  	01c12783    	LW     x15, 220(x2)
Insns: 00000001110000010010011110000011 at PC_x=0100007c

--------------------------------------
01000080:  	02010713    	ADDI   x14, x2, 28
Insns: 00000010000000010000011100010011 at PC_x=01000080

--------------------------------------
01000084:  	00f707b3    	ADD    x15, x14, x15

--------------------------------------
01000088:  	fe47c703    	LBU    x14, 15(x15)
Insns: 11111110010001111100011100000011 at PC_x=01000088

--------------------------------------
0100008c:  	04100793    	ADDI   x15, x0, 4294967268
Insns: 00000100000100000000011110010011 at PC_x=0100008c

--------------------------------------
01000090:  	0cf70263    	BEQ    x14, x15, 10000d1

--------------------------------------
01000094:  	01c12783    	LW     x15, 196(x2)
Insns: 00000001110000010010011110000011 at PC_x=01000094

--------------------------------------
01000098:  	02010713    	ADDI   x14, x2, 28
Insns: 00000010000000010000011100010011 at PC_x=01000098

--------------------------------------
0100009c:  	00f707b3    	ADD    x15, x14, x15

--------------------------------------
010000a0:  	fe47c703    	LBU    x14, 15(x15)
Insns: 11111110010001111100011100000011 at PC_x=010000a0

--------------------------------------
010000a4:  	06500793    	ADDI   x15, x0, 4294967268
Insns: 00000110010100000000011110010011 at PC_x=010000a4

--------------------------------------
010000a8:  	0af70663    	BEQ    x14, x15, 100010d

--------------------------------------
010000ac:  	01c12783    	LW     x15, 172(x2)
Insns: 00000001110000010010011110000011 at PC_x=010000ac

--------------------------------------
010000b0:  	02010713    	ADDI   x14, x2, 28
Insns: 00000010000000010000011100010011 at PC_x=010000b0

--------------------------------------
010000b4:  	00f707b3    	ADD    x15, x14, x15

--------------------------------------
010000b8:  	fe47c703    	LBU    x14, 15(x15)
Insns: 11111110010001111100011100000011 at PC_x=010000b8

--------------------------------------
010000bc:  	04500793    	ADDI   x15, x0, 4294967268
Insns: 00000100010100000000011110010011 at PC_x=010000bc

--------------------------------------
010000c0:  	08f70a63    	BEQ    x14, x15, 1000105

--------------------------------------
010000c4:  	01c12783    	LW     x15, 148(x2)
Insns: 00000001110000010010011110000011 at PC_x=010000c4

--------------------------------------
010000c8:  	02010713    	ADDI   x14, x2, 28
Insns: 00000010000000010000011100010011 at PC_x=010000c8

--------------------------------------
010000cc:  	00f707b3    	ADD    x15, x14, x15

--------------------------------------
010000d0:  	fe47c703    	LBU    x14, 15(x15)
Insns: 11111110010001111100011100000011 at PC_x=010000d0

--------------------------------------
010000d4:  	06900793    	ADDI   x15, x0, 4294967268
Insns: 00000110100100000000011110010011 at PC_x=010000d4

--------------------------------------
010000d8:  	06f70e63    	BEQ    x14, x15, 1000141

--------------------------------------
010000dc:  	01c12783    	LW     x15, 124(x2)
Insns: 00000001110000010010011110000011 at PC_x=010000dc

--------------------------------------
010000e0:  	02010713    	ADDI   x14, x2, 28
Insns: 00000010000000010000011100010011 at PC_x=010000e0

--------------------------------------
010000e4:  	00f707b3    	ADD    x15, x14, x15

--------------------------------------
010000e8:  	fe47c703    	LBU    x14, 15(x15)
Insns: 11111110010001111100011100000011 at PC_x=010000e8

--------------------------------------
010000ec:  	04900793    	ADDI   x15, x0, 4294967268
Insns: 00000100100100000000011110010011 at PC_x=010000ec

--------------------------------------
010000f0:  	06f70263    	BEQ    x14, x15, 1000139

--------------------------------------
010000f4:  	01c12783    	LW     x15, 100(x2)
Insns: 00000001110000010010011110000011 at PC_x=010000f4

--------------------------------------
010000f8:  	02010713    	ADDI   x14, x2, 28
Insns: 00000010000000010000011100010011 at PC_x=010000f8

--------------------------------------
010000fc:  	00f707b3    	ADD    x15, x14, x15

--------------------------------------
01000100:  	fe47c703    	LBU    x14, 15(x15)
Insns: 11111110010001111100011100000011 at PC_x=01000100

--------------------------------------
01000104:  	06f00793    	ADDI   x15, x0, 4294967268
Insns: 00000110111100000000011110010011 at PC_x=01000104

--------------------------------------
01000108:  	04f70663    	BEQ    x14, x15, 1000177

--------------------------------------
0100010c:  	01c12783    	LW     x15, 76(x2)
Insns: 00000001110000010010011110000011 at PC_x=0100010c

--------------------------------------
01000110:  	02010713    	ADDI   x14, x2, 28
Insns: 00000010000000010000011100010011 at PC_x=01000110

--------------------------------------
01000114:  	00f707b3    	ADD    x15, x14, x15

--------------------------------------
01000118:  	fe47c703    	LBU    x14, 15(x15)
Insns: 11111110010001111100011100000011 at PC_x=01000118

--------------------------------------
0100011c:  	04f00793    	ADDI   x15, x0, 4294967268
Insns: 00000100111100000000011110010011 at PC_x=0100011c

--------------------------------------
01000120:  	02f70a63    	BEQ    x14, x15, 100016f

--------------------------------------
01000124:  	01c12783    	LW     x15, 52(x2)
Insns: 00000001110000010010011110000011 at PC_x=01000124

--------------------------------------
01000128:  	02010713    	ADDI   x14, x2, 28
Insns: 00000010000000010000011100010011 at PC_x=01000128

--------------------------------------
0100012c:  	00f707b3    	ADD    x15, x14, x15

--------------------------------------
01000130:  	fe47c703    	LBU    x14, 15(x15)
Insns: 11111110010001111100011100000011 at PC_x=01000130

--------------------------------------
01000134:  	07500793    	ADDI   x15, x0, 4294967268
Insns: 00000111010100000000011110010011 at PC_x=01000134

--------------------------------------
01000138:  	00f70e63    	BEQ    x14, x15, 10001ad

--------------------------------------
0100013c:  	01c12783    	LW     x15, 28(x2)
Insns: 00000001110000010010011110000011 at PC_x=0100013c

--------------------------------------
01000140:  	02010713    	ADDI   x14, x2, 28
Insns: 00000010000000010000011100010011 at PC_x=01000140

--------------------------------------
01000144:  	00f707b3    	ADD    x15, x14, x15

--------------------------------------
01000148:  	fe47c703    	LBU    x14, 15(x15)
Insns: 11111110010001111100011100000011 at PC_x=01000148

--------------------------------------
0100014c:  	05500793    	ADDI   x15, x0, 4294967268
Insns: 00000101010100000000011110010011 at PC_x=0100014c

--------------------------------------
01000150:  	00f71863    	BNE    x14, x15, 10001a5

--------------------------------------
01000160:  	01c12783    	LW     x15, 16(x2)
Insns: 00000001110000010010011110000011 at PC_x=01000160

--------------------------------------
01000164:  	00178793    	ADDI   x15, x15, 28
Insns: 00000000000101111000011110010011 at PC_x=01000164

--------------------------------------
01000168:  	00f12e23    	SW     x15, 1(x2)

--------------------------------------
0100016c:  	01c12703    	LW     x14, 28(x2)
Insns: 00000001110000010010011100000011 at PC_x=0100016c

--------------------------------------
01000170:  	01300793    	ADDI   x15, x0, 28
Insns: 00000001001100000000011110010011 at PC_x=01000170

--------------------------------------
01000174:  	eee7d8e3    	BGE    x15, x14, 1000187

--------------------------------------
01000064:  	01c12783    	LW     x15, 4294967024(x2)
Insns: 00000001110000010010011110000011 at PC_x=01000064

--------------------------------------
01000068:  	02010713    	ADDI   x14, x2, 28
Insns: 00000010000000010000011100010011 at PC_x=01000068

--------------------------------------
0100006c:  	00f707b3    	ADD    x15, x14, x15

--------------------------------------
01000070:  	fe47c703    	LBU    x14, 15(x15)
Insns: 11111110010001111100011100000011 at PC_x=01000070

--------------------------------------
01000074:  	06100793    	ADDI   x15, x0, 4294967268
Insns: 00000110000100000000011110010011 at PC_x=01000074

--------------------------------------
01000078:  	0cf70e63    	BEQ    x14, x15, 10000d9

--------------------------------------
0100007c:  	01c12783    	LW     x15, 220(x2)
Insns: 00000001110000010010011110000011 at PC_x=0100007c

--------------------------------------
01000080:  	02010713    	ADDI   x14, x2, 28
Insns: 00000010000000010000011100010011 at PC_x=01000080

--------------------------------------
01000084:  	00f707b3    	ADD    x15, x14, x15

--------------------------------------
01000088:  	fe47c703    	LBU    x14, 15(x15)
Insns: 11111110010001111100011100000011 at PC_x=01000088

--------------------------------------
0100008c:  	04100793    	ADDI   x15, x0, 4294967268
Insns: 00000100000100000000011110010011 at PC_x=0100008c

--------------------------------------
01000090:  	0cf70263    	BEQ    x14, x15, 10000d1

--------------------------------------
01000094:  	01c12783    	LW     x15, 196(x2)
Insns: 00000001110000010010011110000011 at PC_x=01000094

--------------------------------------
01000098:  	02010713    	ADDI   x14, x2, 28
Insns: 00000010000000010000011100010011 at PC_x=01000098

--------------------------------------
0100009c:  	00f707b3    	ADD    x15, x14, x15

--------------------------------------
010000a0:  	fe47c703    	LBU    x14, 15(x15)
Insns: 11111110010001111100011100000011 at PC_x=010000a0

--------------------------------------
010000a4:  	06500793    	ADDI   x15, x0, 4294967268
Insns: 00000110010100000000011110010011 at PC_x=010000a4

--------------------------------------
010000a8:  	0af70663    	BEQ    x14, x15, 100010d

--------------------------------------
010000ac:  	01c12783    	LW     x15, 172(x2)
Insns: 00000001110000010010011110000011 at PC_x=010000ac

--------------------------------------
010000b0:  	02010713    	ADDI   x14, x2, 28
Insns: 00000010000000010000011100010011 at PC_x=010000b0

--------------------------------------
010000b4:  	00f707b3    	ADD    x15, x14, x15

--------------------------------------
010000b8:  	fe47c703    	LBU    x14, 15(x15)
Insns: 11111110010001111100011100000011 at PC_x=010000b8

--------------------------------------
010000bc:  	04500793    	ADDI   x15, x0, 4294967268
Insns: 00000100010100000000011110010011 at PC_x=010000bc

--------------------------------------
010000c0:  	08f70a63    	BEQ    x14, x15, 1000105

--------------------------------------
010000c4:  	01c12783    	LW     x15, 148(x2)
Insns: 00000001110000010010011110000011 at PC_x=010000c4

--------------------------------------
010000c8:  	02010713    	ADDI   x14, x2, 28
Insns: 00000010000000010000011100010011 at PC_x=010000c8

--------------------------------------
010000cc:  	00f707b3    	ADD    x15, x14, x15

--------------------------------------
010000d0:  	fe47c703    	LBU    x14, 15(x15)
Insns: 11111110010001111100011100000011 at PC_x=010000d0

--------------------------------------
010000d4:  	06900793    	ADDI   x15, x0, 4294967268
Insns: 00000110100100000000011110010011 at PC_x=010000d4

--------------------------------------
010000d8:  	06f70e63    	BEQ    x14, x15, 1000141

--------------------------------------
010000dc:  	01c12783    	LW     x15, 124(x2)
Insns: 00000001110000010010011110000011 at PC_x=010000dc

--------------------------------------
010000e0:  	02010713    	ADDI   x14, x2, 28
Insns: 00000010000000010000011100010011 at PC_x=010000e0

--------------------------------------
010000e4:  	00f707b3    	ADD    x15, x14, x15

--------------------------------------
010000e8:  	fe47c703    	LBU    x14, 15(x15)
Insns: 11111110010001111100011100000011 at PC_x=010000e8

--------------------------------------
010000ec:  	04900793    	ADDI   x15, x0, 4294967268
Insns: 00000100100100000000011110010011 at PC_x=010000ec

--------------------------------------
010000f0:  	06f70263    	BEQ    x14, x15, 1000139

--------------------------------------
010000f4:  	01c12783    	LW     x15, 100(x2)
Insns: 00000001110000010010011110000011 at PC_x=010000f4

--------------------------------------
010000f8:  	02010713    	ADDI   x14, x2, 28
Insns: 00000010000000010000011100010011 at PC_x=010000f8

--------------------------------------
010000fc:  	00f707b3    	ADD    x15, x14, x15

--------------------------------------
01000100:  	fe47c703    	LBU    x14, 15(x15)
Insns: 11111110010001111100011100000011 at PC_x=01000100

--------------------------------------
01000104:  	06f00793    	ADDI   x15, x0, 4294967268
Insns: 00000110111100000000011110010011 at PC_x=01000104

--------------------------------------
01000108:  	04f70663    	BEQ    x14, x15, 1000177

--------------------------------------
0100010c:  	01c12783    	LW     x15, 76(x2)
Insns: 00000001110000010010011110000011 at PC_x=0100010c

--------------------------------------
01000110:  	02010713    	ADDI   x14, x2, 28
Insns: 00000010000000010000011100010011 at PC_x=01000110

--------------------------------------
01000114:  	00f707b3    	ADD    x15, x14, x15

--------------------------------------
01000118:  	fe47c703    	LBU    x14, 15(x15)
Insns: 11111110010001111100011100000011 at PC_x=01000118

--------------------------------------
0100011c:  	04f00793    	ADDI   x15, x0, 4294967268
Insns: 00000100111100000000011110010011 at PC_x=0100011c

--------------------------------------
01000120:  	02f70a63    	BEQ    x14, x15, 100016f

--------------------------------------
01000124:  	01c12783    	LW     x15, 52(x2)
Insns: 00000001110000010010011110000011 at PC_x=01000124

--------------------------------------
01000128:  	02010713    	ADDI   x14, x2, 28
Insns: 00000010000000010000011100010011 at PC_x=01000128

--------------------------------------
0100012c:  	00f707b3    	ADD    x15, x14, x15

--------------------------------------
01000130:  	fe47c703    	LBU    x14, 15(x15)
Insns: 11111110010001111100011100000011 at PC_x=01000130

--------------------------------------
01000134:  	07500793    	ADDI   x15, x0, 4294967268
Insns: 00000111010100000000011110010011 at PC_x=01000134

--------------------------------------
01000138:  	00f70e63    	BEQ    x14, x15, 10001ad

--------------------------------------
0100013c:  	01c12783    	LW     x15, 28(x2)
Insns: 00000001110000010010011110000011 at PC_x=0100013c

--------------------------------------
01000140:  	02010713    	ADDI   x14, x2, 28
Insns: 00000010000000010000011100010011 at PC_x=01000140

--------------------------------------
01000144:  	00f707b3    	ADD    x15, x14, x15

--------------------------------------
01000148:  	fe47c703    	LBU    x14, 15(x15)
Insns: 11111110010001111100011100000011 at PC_x=01000148

--------------------------------------
0100014c:  	05500793    	ADDI   x15, x0, 4294967268
Insns: 00000101010100000000011110010011 at PC_x=0100014c

--------------------------------------
01000150:  	00f71863    	BNE    x14, x15, 10001a5

--------------------------------------
01000160:  	01c12783    	LW     x15, 16(x2)
Insns: 00000001110000010010011110000011 at PC_x=01000160

--------------------------------------
01000164:  	00178793    	ADDI   x15, x15, 28
Insns: 00000000000101111000011110010011 at PC_x=01000164

--------------------------------------
01000168:  	00f12e23    	SW     x15, 1(x2)

--------------------------------------
0100016c:  	01c12703    	LW     x14, 28(x2)
Insns: 00000001110000010010011100000011 at PC_x=0100016c

--------------------------------------
01000170:  	01300793    	ADDI   x15, x0, 28
Insns: 00000001001100000000011110010011 at PC_x=01000170

--------------------------------------
01000174:  	eee7d8e3    	BGE    x15, x14, 1000187

--------------------------------------
01000064:  	01c12783    	LW     x15, 4294967024(x2)
Insns: 00000001110000010010011110000011 at PC_x=01000064

--------------------------------------
01000068:  	02010713    	ADDI   x14, x2, 28
Insns: 00000010000000010000011100010011 at PC_x=01000068

--------------------------------------
0100006c:  	00f707b3    	ADD    x15, x14, x15

--------------------------------------
01000070:  	fe47c703    	LBU    x14, 15(x15)
Insns: 11111110010001111100011100000011 at PC_x=01000070

--------------------------------------
01000074:  	06100793    	ADDI   x15, x0, 4294967268
Insns: 00000110000100000000011110010011 at PC_x=01000074

--------------------------------------
01000078:  	0cf70e63    	BEQ    x14, x15, 10000d9

--------------------------------------
0100007c:  	01c12783    	LW     x15, 220(x2)
Insns: 00000001110000010010011110000011 at PC_x=0100007c

--------------------------------------
01000080:  	02010713    	ADDI   x14, x2, 28
Insns: 00000010000000010000011100010011 at PC_x=01000080

--------------------------------------
01000084:  	00f707b3    	ADD    x15, x14, x15

--------------------------------------
01000088:  	fe47c703    	LBU    x14, 15(x15)
Insns: 11111110010001111100011100000011 at PC_x=01000088

--------------------------------------
0100008c:  	04100793    	ADDI   x15, x0, 4294967268
Insns: 00000100000100000000011110010011 at PC_x=0100008c

--------------------------------------
01000090:  	0cf70263    	BEQ    x14, x15, 10000d1

--------------------------------------
01000094:  	01c12783    	LW     x15, 196(x2)
Insns: 00000001110000010010011110000011 at PC_x=01000094

--------------------------------------
01000098:  	02010713    	ADDI   x14, x2, 28
Insns: 00000010000000010000011100010011 at PC_x=01000098

--------------------------------------
0100009c:  	00f707b3    	ADD    x15, x14, x15

--------------------------------------
010000a0:  	fe47c703    	LBU    x14, 15(x15)
Insns: 11111110010001111100011100000011 at PC_x=010000a0

--------------------------------------
010000a4:  	06500793    	ADDI   x15, x0, 4294967268
Insns: 00000110010100000000011110010011 at PC_x=010000a4

--------------------------------------
010000a8:  	0af70663    	BEQ    x14, x15, 100010d

--------------------------------------
010000ac:  	01c12783    	LW     x15, 172(x2)
Insns: 00000001110000010010011110000011 at PC_x=010000ac

--------------------------------------
010000b0:  	02010713    	ADDI   x14, x2, 28
Insns: 00000010000000010000011100010011 at PC_x=010000b0

--------------------------------------
010000b4:  	00f707b3    	ADD    x15, x14, x15

--------------------------------------
010000b8:  	fe47c703    	LBU    x14, 15(x15)
Insns: 11111110010001111100011100000011 at PC_x=010000b8

--------------------------------------
010000bc:  	04500793    	ADDI   x15, x0, 4294967268
Insns: 00000100010100000000011110010011 at PC_x=010000bc

--------------------------------------
010000c0:  	08f70a63    	BEQ    x14, x15, 1000105

--------------------------------------
010000c4:  	01c12783    	LW     x15, 148(x2)
Insns: 00000001110000010010011110000011 at PC_x=010000c4

--------------------------------------
010000c8:  	02010713    	ADDI   x14, x2, 28
Insns: 00000010000000010000011100010011 at PC_x=010000c8

--------------------------------------
010000cc:  	00f707b3    	ADD    x15, x14, x15

--------------------------------------
010000d0:  	fe47c703    	LBU    x14, 15(x15)
Insns: 11111110010001111100011100000011 at PC_x=010000d0

--------------------------------------
010000d4:  	06900793    	ADDI   x15, x0, 4294967268
Insns: 00000110100100000000011110010011 at PC_x=010000d4

--------------------------------------
010000d8:  	06f70e63    	BEQ    x14, x15, 1000141

--------------------------------------
010000dc:  	01c12783    	LW     x15, 124(x2)
Insns: 00000001110000010010011110000011 at PC_x=010000dc

--------------------------------------
010000e0:  	02010713    	ADDI   x14, x2, 28
Insns: 00000010000000010000011100010011 at PC_x=010000e0

--------------------------------------
010000e4:  	00f707b3    	ADD    x15, x14, x15

--------------------------------------
010000e8:  	fe47c703    	LBU    x14, 15(x15)
Insns: 11111110010001111100011100000011 at PC_x=010000e8

--------------------------------------
010000ec:  	04900793    	ADDI   x15, x0, 4294967268
Insns: 00000100100100000000011110010011 at PC_x=010000ec

--------------------------------------
010000f0:  	06f70263    	BEQ    x14, x15, 1000139

--------------------------------------
010000f4:  	01c12783    	LW     x15, 100(x2)
Insns: 00000001110000010010011110000011 at PC_x=010000f4

--------------------------------------
010000f8:  	02010713    	ADDI   x14, x2, 28
Insns: 00000010000000010000011100010011 at PC_x=010000f8

--------------------------------------
010000fc:  	00f707b3    	ADD    x15, x14, x15

--------------------------------------
01000100:  	fe47c703    	LBU    x14, 15(x15)
Insns: 11111110010001111100011100000011 at PC_x=01000100

--------------------------------------
01000104:  	06f00793    	ADDI   x15, x0, 4294967268
Insns: 00000110111100000000011110010011 at PC_x=01000104

--------------------------------------
01000108:  	04f70663    	BEQ    x14, x15, 1000177

--------------------------------------
0100010c:  	01c12783    	LW     x15, 76(x2)
Insns: 00000001110000010010011110000011 at PC_x=0100010c

--------------------------------------
01000110:  	02010713    	ADDI   x14, x2, 28
Insns: 00000010000000010000011100010011 at PC_x=01000110

--------------------------------------
01000114:  	00f707b3    	ADD    x15, x14, x15

--------------------------------------
01000118:  	fe47c703    	LBU    x14, 15(x15)
Insns: 11111110010001111100011100000011 at PC_x=01000118

--------------------------------------
0100011c:  	04f00793    	ADDI   x15, x0, 4294967268
Insns: 00000100111100000000011110010011 at PC_x=0100011c

--------------------------------------
01000120:  	02f70a63    	BEQ    x14, x15, 100016f

--------------------------------------
01000124:  	01c12783    	LW     x15, 52(x2)
Insns: 00000001110000010010011110000011 at PC_x=01000124

--------------------------------------
01000128:  	02010713    	ADDI   x14, x2, 28
Insns: 00000010000000010000011100010011 at PC_x=01000128

--------------------------------------
0100012c:  	00f707b3    	ADD    x15, x14, x15

--------------------------------------
01000130:  	fe47c703    	LBU    x14, 15(x15)
Insns: 11111110010001111100011100000011 at PC_x=01000130

--------------------------------------
01000134:  	07500793    	ADDI   x15, x0, 4294967268
Insns: 00000111010100000000011110010011 at PC_x=01000134

--------------------------------------
01000138:  	00f70e63    	BEQ    x14, x15, 10001ad

--------------------------------------
0100013c:  	01c12783    	LW     x15, 28(x2)
Insns: 00000001110000010010011110000011 at PC_x=0100013c

--------------------------------------
01000140:  	02010713    	ADDI   x14, x2, 28
Insns: 00000010000000010000011100010011 at PC_x=01000140

--------------------------------------
01000144:  	00f707b3    	ADD    x15, x14, x15

--------------------------------------
01000148:  	fe47c703    	LBU    x14, 15(x15)
Insns: 11111110010001111100011100000011 at PC_x=01000148

--------------------------------------
0100014c:  	05500793    	ADDI   x15, x0, 4294967268
Insns: 00000101010100000000011110010011 at PC_x=0100014c

--------------------------------------
01000150:  	00f71863    	BNE    x14, x15, 10001a5

--------------------------------------
01000160:  	01c12783    	LW     x15, 16(x2)
Insns: 00000001110000010010011110000011 at PC_x=01000160

--------------------------------------
01000164:  	00178793    	ADDI   x15, x15, 28
Insns: 00000000000101111000011110010011 at PC_x=01000164

--------------------------------------
01000168:  	00f12e23    	SW     x15, 1(x2)

--------------------------------------
0100016c:  	01c12703    	LW     x14, 28(x2)
Insns: 00000001110000010010011100000011 at PC_x=0100016c

--------------------------------------
01000170:  	01300793    	ADDI   x15, x0, 28
Insns: 00000001001100000000011110010011 at PC_x=01000170

--------------------------------------
01000174:  	eee7d8e3    	BGE    x15, x14, 1000187

--------------------------------------
01000064:  	01c12783    	LW     x15, 4294967024(x2)
Insns: 00000001110000010010011110000011 at PC_x=01000064

--------------------------------------
01000068:  	02010713    	ADDI   x14, x2, 28
Insns: 00000010000000010000011100010011 at PC_x=01000068

--------------------------------------
0100006c:  	00f707b3    	ADD    x15, x14, x15

--------------------------------------
01000070:  	fe47c703    	LBU    x14, 15(x15)
Insns: 11111110010001111100011100000011 at PC_x=01000070

--------------------------------------
01000074:  	06100793    	ADDI   x15, x0, 4294967268
Insns: 00000110000100000000011110010011 at PC_x=01000074

--------------------------------------
01000078:  	0cf70e63    	BEQ    x14, x15, 10000d9

--------------------------------------
0100007c:  	01c12783    	LW     x15, 220(x2)
Insns: 00000001110000010010011110000011 at PC_x=0100007c

--------------------------------------
01000080:  	02010713    	ADDI   x14, x2, 28
Insns: 00000010000000010000011100010011 at PC_x=01000080

--------------------------------------
01000084:  	00f707b3    	ADD    x15, x14, x15

--------------------------------------
01000088:  	fe47c703    	LBU    x14, 15(x15)
Insns: 11111110010001111100011100000011 at PC_x=01000088

--------------------------------------
0100008c:  	04100793    	ADDI   x15, x0, 4294967268
Insns: 00000100000100000000011110010011 at PC_x=0100008c

--------------------------------------
01000090:  	0cf70263    	BEQ    x14, x15, 10000d1

--------------------------------------
01000094:  	01c12783    	LW     x15, 196(x2)
Insns: 00000001110000010010011110000011 at PC_x=01000094

--------------------------------------
01000098:  	02010713    	ADDI   x14, x2, 28
Insns: 00000010000000010000011100010011 at PC_x=01000098

--------------------------------------
0100009c:  	00f707b3    	ADD    x15, x14, x15

--------------------------------------
010000a0:  	fe47c703    	LBU    x14, 15(x15)
Insns: 11111110010001111100011100000011 at PC_x=010000a0

--------------------------------------
010000a4:  	06500793    	ADDI   x15, x0, 4294967268
Insns: 00000110010100000000011110010011 at PC_x=010000a4

--------------------------------------
010000a8:  	0af70663    	BEQ    x14, x15, 100010d

--------------------------------------
010000ac:  	01c12783    	LW     x15, 172(x2)
Insns: 00000001110000010010011110000011 at PC_x=010000ac

--------------------------------------
010000b0:  	02010713    	ADDI   x14, x2, 28
Insns: 00000010000000010000011100010011 at PC_x=010000b0

--------------------------------------
010000b4:  	00f707b3    	ADD    x15, x14, x15

--------------------------------------
010000b8:  	fe47c703    	LBU    x14, 15(x15)
Insns: 11111110010001111100011100000011 at PC_x=010000b8

--------------------------------------
010000bc:  	04500793    	ADDI   x15, x0, 4294967268
Insns: 00000100010100000000011110010011 at PC_x=010000bc

--------------------------------------
010000c0:  	08f70a63    	BEQ    x14, x15, 1000105

--------------------------------------
010000c4:  	01c12783    	LW     x15, 148(x2)
Insns: 00000001110000010010011110000011 at PC_x=010000c4

--------------------------------------
010000c8:  	02010713    	ADDI   x14, x2, 28
Insns: 00000010000000010000011100010011 at PC_x=010000c8

--------------------------------------
010000cc:  	00f707b3    	ADD    x15, x14, x15

--------------------------------------
010000d0:  	fe47c703    	LBU    x14, 15(x15)
Insns: 11111110010001111100011100000011 at PC_x=010000d0

--------------------------------------
010000d4:  	06900793    	ADDI   x15, x0, 4294967268
Insns: 00000110100100000000011110010011 at PC_x=010000d4

--------------------------------------
010000d8:  	06f70e63    	BEQ    x14, x15, 1000141

--------------------------------------
010000dc:  	01c12783    	LW     x15, 124(x2)
Insns: 00000001110000010010011110000011 at PC_x=010000dc

--------------------------------------
010000e0:  	02010713    	ADDI   x14, x2, 28
Insns: 00000010000000010000011100010011 at PC_x=010000e0

--------------------------------------
010000e4:  	00f707b3    	ADD    x15, x14, x15

--------------------------------------
010000e8:  	fe47c703    	LBU    x14, 15(x15)
Insns: 11111110010001111100011100000011 at PC_x=010000e8

--------------------------------------
010000ec:  	04900793    	ADDI   x15, x0, 4294967268
Insns: 00000100100100000000011110010011 at PC_x=010000ec

--------------------------------------
010000f0:  	06f70263    	BEQ    x14, x15, 1000139

--------------------------------------
010000f4:  	01c12783    	LW     x15, 100(x2)
Insns: 00000001110000010010011110000011 at PC_x=010000f4

--------------------------------------
010000f8:  	02010713    	ADDI   x14, x2, 28
Insns: 00000010000000010000011100010011 at PC_x=010000f8

--------------------------------------
010000fc:  	00f707b3    	ADD    x15, x14, x15

--------------------------------------
01000100:  	fe47c703    	LBU    x14, 15(x15)
Insns: 11111110010001111100011100000011 at PC_x=01000100

--------------------------------------
01000104:  	06f00793    	ADDI   x15, x0, 4294967268
Insns: 00000110111100000000011110010011 at PC_x=01000104

--------------------------------------
01000108:  	04f70663    	BEQ    x14, x15, 1000177

--------------------------------------
0100010c:  	01c12783    	LW     x15, 76(x2)
Insns: 00000001110000010010011110000011 at PC_x=0100010c

--------------------------------------
01000110:  	02010713    	ADDI   x14, x2, 28
Insns: 00000010000000010000011100010011 at PC_x=01000110

--------------------------------------
01000114:  	00f707b3    	ADD    x15, x14, x15

--------------------------------------
01000118:  	fe47c703    	LBU    x14, 15(x15)
Insns: 11111110010001111100011100000011 at PC_x=01000118

--------------------------------------
0100011c:  	04f00793    	ADDI   x15, x0, 4294967268
Insns: 00000100111100000000011110010011 at PC_x=0100011c

--------------------------------------
01000120:  	02f70a63    	BEQ    x14, x15, 100016f

--------------------------------------
01000124:  	01c12783    	LW     x15, 52(x2)
Insns: 00000001110000010010011110000011 at PC_x=01000124

--------------------------------------
01000128:  	02010713    	ADDI   x14, x2, 28
Insns: 00000010000000010000011100010011 at PC_x=01000128

--------------------------------------
0100012c:  	00f707b3    	ADD    x15, x14, x15

--------------------------------------
01000130:  	fe47c703    	LBU    x14, 15(x15)
Insns: 11111110010001111100011100000011 at PC_x=01000130

--------------------------------------
01000134:  	07500793    	ADDI   x15, x0, 4294967268
Insns: 00000111010100000000011110010011 at PC_x=01000134

--------------------------------------
01000138:  	00f70e63    	BEQ    x14, x15, 10001ad

--------------------------------------
0100013c:  	01c12783    	LW     x15, 28(x2)
Insns: 00000001110000010010011110000011 at PC_x=0100013c

--------------------------------------
01000140:  	02010713    	ADDI   x14, x2, 28
Insns: 00000010000000010000011100010011 at PC_x=01000140

--------------------------------------
01000144:  	00f707b3    	ADD    x15, x14, x15

--------------------------------------
01000148:  	fe47c703    	LBU    x14, 15(x15)
Insns: 11111110010001111100011100000011 at PC_x=01000148

--------------------------------------
0100014c:  	05500793    	ADDI   x15, x0, 4294967268
Insns: 00000101010100000000011110010011 at PC_x=0100014c

--------------------------------------
01000150:  	00f71863    	BNE    x14, x15, 10001a5

--------------------------------------
01000160:  	01c12783    	LW     x15, 16(x2)
Insns: 00000001110000010010011110000011 at PC_x=01000160

--------------------------------------
01000164:  	00178793    	ADDI   x15, x15, 28
Insns: 00000000000101111000011110010011 at PC_x=01000164

--------------------------------------
01000168:  	00f12e23    	SW     x15, 1(x2)

--------------------------------------
0100016c:  	01c12703    	LW     x14, 28(x2)
Insns: 00000001110000010010011100000011 at PC_x=0100016c

--------------------------------------
01000170:  	01300793    	ADDI   x15, x0, 28
Insns: 00000001001100000000011110010011 at PC_x=01000170

--------------------------------------
01000174:  	eee7d8e3    	BGE    x15, x14, 1000187

--------------------------------------
01000064:  	01c12783    	LW     x15, 4294967024(x2)
Insns: 00000001110000010010011110000011 at PC_x=01000064

--------------------------------------
01000068:  	02010713    	ADDI   x14, x2, 28
Insns: 00000010000000010000011100010011 at PC_x=01000068

--------------------------------------
0100006c:  	00f707b3    	ADD    x15, x14, x15

--------------------------------------
01000070:  	fe47c703    	LBU    x14, 15(x15)
Insns: 11111110010001111100011100000011 at PC_x=01000070

--------------------------------------
01000074:  	06100793    	ADDI   x15, x0, 4294967268
Insns: 00000110000100000000011110010011 at PC_x=01000074

--------------------------------------
01000078:  	0cf70e63    	BEQ    x14, x15, 10000d9

--------------------------------------
0100007c:  	01c12783    	LW     x15, 220(x2)
Insns: 00000001110000010010011110000011 at PC_x=0100007c

--------------------------------------
01000080:  	02010713    	ADDI   x14, x2, 28
Insns: 00000010000000010000011100010011 at PC_x=01000080

--------------------------------------
01000084:  	00f707b3    	ADD    x15, x14, x15

--------------------------------------
01000088:  	fe47c703    	LBU    x14, 15(x15)
Insns: 11111110010001111100011100000011 at PC_x=01000088

--------------------------------------
0100008c:  	04100793    	ADDI   x15, x0, 4294967268
Insns: 00000100000100000000011110010011 at PC_x=0100008c

--------------------------------------
01000090:  	0cf70263    	BEQ    x14, x15, 10000d1

--------------------------------------
01000094:  	01c12783    	LW     x15, 196(x2)
Insns: 00000001110000010010011110000011 at PC_x=01000094

--------------------------------------
01000098:  	02010713    	ADDI   x14, x2, 28
Insns: 00000010000000010000011100010011 at PC_x=01000098

--------------------------------------
0100009c:  	00f707b3    	ADD    x15, x14, x15

--------------------------------------
010000a0:  	fe47c703    	LBU    x14, 15(x15)
Insns: 11111110010001111100011100000011 at PC_x=010000a0

--------------------------------------
010000a4:  	06500793    	ADDI   x15, x0, 4294967268
Insns: 00000110010100000000011110010011 at PC_x=010000a4

--------------------------------------
010000a8:  	0af70663    	BEQ    x14, x15, 100010d

--------------------------------------
010000ac:  	01c12783    	LW     x15, 172(x2)
Insns: 00000001110000010010011110000011 at PC_x=010000ac

--------------------------------------
010000b0:  	02010713    	ADDI   x14, x2, 28
Insns: 00000010000000010000011100010011 at PC_x=010000b0

--------------------------------------
010000b4:  	00f707b3    	ADD    x15, x14, x15

--------------------------------------
010000b8:  	fe47c703    	LBU    x14, 15(x15)
Insns: 11111110010001111100011100000011 at PC_x=010000b8

--------------------------------------
010000bc:  	04500793    	ADDI   x15, x0, 4294967268
Insns: 00000100010100000000011110010011 at PC_x=010000bc

--------------------------------------
010000c0:  	08f70a63    	BEQ    x14, x15, 1000105

--------------------------------------
010000c4:  	01c12783    	LW     x15, 148(x2)
Insns: 00000001110000010010011110000011 at PC_x=010000c4

--------------------------------------
010000c8:  	02010713    	ADDI   x14, x2, 28
Insns: 00000010000000010000011100010011 at PC_x=010000c8

--------------------------------------
010000cc:  	00f707b3    	ADD    x15, x14, x15

--------------------------------------
010000d0:  	fe47c703    	LBU    x14, 15(x15)
Insns: 11111110010001111100011100000011 at PC_x=010000d0

--------------------------------------
010000d4:  	06900793    	ADDI   x15, x0, 4294967268
Insns: 00000110100100000000011110010011 at PC_x=010000d4

--------------------------------------
010000d8:  	06f70e63    	BEQ    x14, x15, 1000141

--------------------------------------
010000dc:  	01c12783    	LW     x15, 124(x2)
Insns: 00000001110000010010011110000011 at PC_x=010000dc

--------------------------------------
010000e0:  	02010713    	ADDI   x14, x2, 28
Insns: 00000010000000010000011100010011 at PC_x=010000e0

--------------------------------------
010000e4:  	00f707b3    	ADD    x15, x14, x15

--------------------------------------
010000e8:  	fe47c703    	LBU    x14, 15(x15)
Insns: 11111110010001111100011100000011 at PC_x=010000e8

--------------------------------------
010000ec:  	04900793    	ADDI   x15, x0, 4294967268
Insns: 00000100100100000000011110010011 at PC_x=010000ec

--------------------------------------
010000f0:  	06f70263    	BEQ    x14, x15, 1000139

--------------------------------------
010000f4:  	01c12783    	LW     x15, 100(x2)
Insns: 00000001110000010010011110000011 at PC_x=010000f4

--------------------------------------
010000f8:  	02010713    	ADDI   x14, x2, 28
Insns: 00000010000000010000011100010011 at PC_x=010000f8

--------------------------------------
010000fc:  	00f707b3    	ADD    x15, x14, x15

--------------------------------------
01000100:  	fe47c703    	LBU    x14, 15(x15)
Insns: 11111110010001111100011100000011 at PC_x=01000100

--------------------------------------
01000104:  	06f00793    	ADDI   x15, x0, 4294967268
Insns: 00000110111100000000011110010011 at PC_x=01000104

--------------------------------------
01000108:  	04f70663    	BEQ    x14, x15, 1000177

--------------------------------------
0100010c:  	01c12783    	LW     x15, 76(x2)
Insns: 00000001110000010010011110000011 at PC_x=0100010c

--------------------------------------
01000110:  	02010713    	ADDI   x14, x2, 28
Insns: 00000010000000010000011100010011 at PC_x=01000110

--------------------------------------
01000114:  	00f707b3    	ADD    x15, x14, x15

--------------------------------------
01000118:  	fe47c703    	LBU    x14, 15(x15)
Insns: 11111110010001111100011100000011 at PC_x=01000118

--------------------------------------
0100011c:  	04f00793    	ADDI   x15, x0, 4294967268
Insns: 00000100111100000000011110010011 at PC_x=0100011c

--------------------------------------
01000120:  	02f70a63    	BEQ    x14, x15, 100016f

--------------------------------------
01000124:  	01c12783    	LW     x15, 52(x2)
Insns: 00000001110000010010011110000011 at PC_x=01000124

--------------------------------------
01000128:  	02010713    	ADDI   x14, x2, 28
Insns: 00000010000000010000011100010011 at PC_x=01000128

--------------------------------------
0100012c:  	00f707b3    	ADD    x15, x14, x15

--------------------------------------
01000130:  	fe47c703    	LBU    x14, 15(x15)
Insns: 11111110010001111100011100000011 at PC_x=01000130

--------------------------------------
01000134:  	07500793    	ADDI   x15, x0, 4294967268
Insns: 00000111010100000000011110010011 at PC_x=01000134

--------------------------------------
01000138:  	00f70e63    	BEQ    x14, x15, 10001ad

--------------------------------------
0100013c:  	01c12783    	LW     x15, 28(x2)
Insns: 00000001110000010010011110000011 at PC_x=0100013c

--------------------------------------
01000140:  	02010713    	ADDI   x14, x2, 28
Insns: 00000010000000010000011100010011 at PC_x=01000140

--------------------------------------
01000144:  	00f707b3    	ADD    x15, x14, x15

--------------------------------------
01000148:  	fe47c703    	LBU    x14, 15(x15)
Insns: 11111110010001111100011100000011 at PC_x=01000148

--------------------------------------
0100014c:  	05500793    	ADDI   x15, x0, 4294967268
Insns: 00000101010100000000011110010011 at PC_x=0100014c

--------------------------------------
01000150:  	00f71863    	BNE    x14, x15, 10001a5

--------------------------------------
01000160:  	01c12783    	LW     x15, 16(x2)
Insns: 00000001110000010010011110000011 at PC_x=01000160

--------------------------------------
01000164:  	00178793    	ADDI   x15, x15, 28
Insns: 00000000000101111000011110010011 at PC_x=01000164

--------------------------------------
01000168:  	00f12e23    	SW     x15, 1(x2)

--------------------------------------
0100016c:  	01c12703    	LW     x14, 28(x2)
Insns: 00000001110000010010011100000011 at PC_x=0100016c

--------------------------------------
01000170:  	01300793    	ADDI   x15, x0, 28
Insns: 00000001001100000000011110010011 at PC_x=01000170

--------------------------------------
01000174:  	eee7d8e3    	BGE    x15, x14, 1000187

--------------------------------------
01000064:  	01c12783    	LW     x15, 4294967024(x2)
Insns: 00000001110000010010011110000011 at PC_x=01000064

--------------------------------------
01000068:  	02010713    	ADDI   x14, x2, 28
Insns: 00000010000000010000011100010011 at PC_x=01000068

--------------------------------------
0100006c:  	00f707b3    	ADD    x15, x14, x15

--------------------------------------
01000070:  	fe47c703    	LBU    x14, 15(x15)
Insns: 11111110010001111100011100000011 at PC_x=01000070

--------------------------------------
01000074:  	06100793    	ADDI   x15, x0, 4294967268
Insns: 00000110000100000000011110010011 at PC_x=01000074

--------------------------------------
01000078:  	0cf70e63    	BEQ    x14, x15, 10000d9

--------------------------------------
0100007c:  	01c12783    	LW     x15, 220(x2)
Insns: 00000001110000010010011110000011 at PC_x=0100007c

--------------------------------------
01000080:  	02010713    	ADDI   x14, x2, 28
Insns: 00000010000000010000011100010011 at PC_x=01000080

--------------------------------------
01000084:  	00f707b3    	ADD    x15, x14, x15

--------------------------------------
01000088:  	fe47c703    	LBU    x14, 15(x15)
Insns: 11111110010001111100011100000011 at PC_x=01000088

--------------------------------------
0100008c:  	04100793    	ADDI   x15, x0, 4294967268
Insns: 00000100000100000000011110010011 at PC_x=0100008c

--------------------------------------
01000090:  	0cf70263    	BEQ    x14, x15, 10000d1

--------------------------------------
01000094:  	01c12783    	LW     x15, 196(x2)
Insns: 00000001110000010010011110000011 at PC_x=01000094

--------------------------------------
01000098:  	02010713    	ADDI   x14, x2, 28
Insns: 00000010000000010000011100010011 at PC_x=01000098

--------------------------------------
0100009c:  	00f707b3    	ADD    x15, x14, x15

--------------------------------------
010000a0:  	fe47c703    	LBU    x14, 15(x15)
Insns: 11111110010001111100011100000011 at PC_x=010000a0

--------------------------------------
010000a4:  	06500793    	ADDI   x15, x0, 4294967268
Insns: 00000110010100000000011110010011 at PC_x=010000a4

--------------------------------------
010000a8:  	0af70663    	BEQ    x14, x15, 100010d

--------------------------------------
010000ac:  	01c12783    	LW     x15, 172(x2)
Insns: 00000001110000010010011110000011 at PC_x=010000ac

--------------------------------------
010000b0:  	02010713    	ADDI   x14, x2, 28
Insns: 00000010000000010000011100010011 at PC_x=010000b0

--------------------------------------
010000b4:  	00f707b3    	ADD    x15, x14, x15

--------------------------------------
010000b8:  	fe47c703    	LBU    x14, 15(x15)
Insns: 11111110010001111100011100000011 at PC_x=010000b8

--------------------------------------
010000bc:  	04500793    	ADDI   x15, x0, 4294967268
Insns: 00000100010100000000011110010011 at PC_x=010000bc

--------------------------------------
010000c0:  	08f70a63    	BEQ    x14, x15, 1000105

--------------------------------------
010000c4:  	01c12783    	LW     x15, 148(x2)
Insns: 00000001110000010010011110000011 at PC_x=010000c4

--------------------------------------
010000c8:  	02010713    	ADDI   x14, x2, 28
Insns: 00000010000000010000011100010011 at PC_x=010000c8

--------------------------------------
010000cc:  	00f707b3    	ADD    x15, x14, x15

--------------------------------------
010000d0:  	fe47c703    	LBU    x14, 15(x15)
Insns: 11111110010001111100011100000011 at PC_x=010000d0

--------------------------------------
010000d4:  	06900793    	ADDI   x15, x0, 4294967268
Insns: 00000110100100000000011110010011 at PC_x=010000d4

--------------------------------------
010000d8:  	06f70e63    	BEQ    x14, x15, 1000141

--------------------------------------
010000dc:  	01c12783    	LW     x15, 124(x2)
Insns: 00000001110000010010011110000011 at PC_x=010000dc

--------------------------------------
010000e0:  	02010713    	ADDI   x14, x2, 28
Insns: 00000010000000010000011100010011 at PC_x=010000e0

--------------------------------------
010000e4:  	00f707b3    	ADD    x15, x14, x15

--------------------------------------
010000e8:  	fe47c703    	LBU    x14, 15(x15)
Insns: 11111110010001111100011100000011 at PC_x=010000e8

--------------------------------------
010000ec:  	04900793    	ADDI   x15, x0, 4294967268
Insns: 00000100100100000000011110010011 at PC_x=010000ec

--------------------------------------
010000f0:  	06f70263    	BEQ    x14, x15, 1000139

--------------------------------------
010000f4:  	01c12783    	LW     x15, 100(x2)
Insns: 00000001110000010010011110000011 at PC_x=010000f4

--------------------------------------
010000f8:  	02010713    	ADDI   x14, x2, 28
Insns: 00000010000000010000011100010011 at PC_x=010000f8

--------------------------------------
010000fc:  	00f707b3    	ADD    x15, x14, x15

--------------------------------------
01000100:  	fe47c703    	LBU    x14, 15(x15)
Insns: 11111110010001111100011100000011 at PC_x=01000100

--------------------------------------
01000104:  	06f00793    	ADDI   x15, x0, 4294967268
Insns: 00000110111100000000011110010011 at PC_x=01000104

--------------------------------------
01000108:  	04f70663    	BEQ    x14, x15, 1000177

--------------------------------------
0100010c:  	01c12783    	LW     x15, 76(x2)
Insns: 00000001110000010010011110000011 at PC_x=0100010c

--------------------------------------
01000110:  	02010713    	ADDI   x14, x2, 28
Insns: 00000010000000010000011100010011 at PC_x=01000110

--------------------------------------
01000114:  	00f707b3    	ADD    x15, x14, x15

--------------------------------------
01000118:  	fe47c703    	LBU    x14, 15(x15)
Insns: 11111110010001111100011100000011 at PC_x=01000118

--------------------------------------
0100011c:  	04f00793    	ADDI   x15, x0, 4294967268
Insns: 00000100111100000000011110010011 at PC_x=0100011c

--------------------------------------
01000120:  	02f70a63    	BEQ    x14, x15, 100016f

--------------------------------------
01000124:  	01c12783    	LW     x15, 52(x2)
Insns: 00000001110000010010011110000011 at PC_x=01000124

--------------------------------------
01000128:  	02010713    	ADDI   x14, x2, 28
Insns: 00000010000000010000011100010011 at PC_x=01000128

--------------------------------------
0100012c:  	00f707b3    	ADD    x15, x14, x15

--------------------------------------
01000130:  	fe47c703    	LBU    x14, 15(x15)
Insns: 11111110010001111100011100000011 at PC_x=01000130

--------------------------------------
01000134:  	07500793    	ADDI   x15, x0, 4294967268
Insns: 00000111010100000000011110010011 at PC_x=01000134

--------------------------------------
01000138:  	00f70e63    	BEQ    x14, x15, 10001ad

--------------------------------------
0100013c:  	01c12783    	LW     x15, 28(x2)
Insns: 00000001110000010010011110000011 at PC_x=0100013c

--------------------------------------
01000140:  	02010713    	ADDI   x14, x2, 28
Insns: 00000010000000010000011100010011 at PC_x=01000140

--------------------------------------
01000144:  	00f707b3    	ADD    x15, x14, x15

--------------------------------------
01000148:  	fe47c703    	LBU    x14, 15(x15)
Insns: 11111110010001111100011100000011 at PC_x=01000148

--------------------------------------
0100014c:  	05500793    	ADDI   x15, x0, 4294967268
Insns: 00000101010100000000011110010011 at PC_x=0100014c

--------------------------------------
01000150:  	00f71863    	BNE    x14, x15, 10001a5

--------------------------------------
01000160:  	01c12783    	LW     x15, 16(x2)
Insns: 00000001110000010010011110000011 at PC_x=01000160

--------------------------------------
01000164:  	00178793    	ADDI   x15, x15, 28
Insns: 00000000000101111000011110010011 at PC_x=01000164

--------------------------------------
01000168:  	00f12e23    	SW     x15, 1(x2)

--------------------------------------
0100016c:  	01c12703    	LW     x14, 28(x2)
Insns: 00000001110000010010011100000011 at PC_x=0100016c

--------------------------------------
01000170:  	01300793    	ADDI   x15, x0, 28
Insns: 00000001001100000000011110010011 at PC_x=01000170

--------------------------------------
01000174:  	eee7d8e3    	BGE    x15, x14, 1000187

--------------------------------------
01000178:  	01812503    	LW     x10, 4294967024(x2)
Insns: 00000001100000010010010100000011 at PC_x=01000178

--------------------------------------
0100017c:  	018000ef    	JAL    x1, 1000194

--------------------------------------
01000194:  	fe010113    	ADDI   x2, x2, 24
Insns: 11111110000000010000000100010011 at PC_x=01000194

--------------------------------------
01000198:  	00112e23    	SW     x1, 4294967264(x2)

--------------------------------------
0100019c:  	00a12623    	SW     x10, 28(x2)

--------------------------------------
010001a0:  	00c12703    	LW     x14, 12(x2)
Insns: 00000000110000010010011100000011 at PC_x=010001a0

--------------------------------------
010001a4:  	00300793    	ADDI   x15, x0, 12
Insns: 00000000001100000000011110010011 at PC_x=010001a4

--------------------------------------
010001a8:  	00f71863    	BNE    x14, x15, 10001ab

--------------------------------------
010001ac:  	024000ef    	JAL    x1, 10001bc

--------------------------------------
010001d0:  	00100793    	ADDI   x15, x0, 36
Insns: 00000000000100000000011110010011 at PC_x=010001d0

--------------------------------------
010001d4:  	00078513    	ADDI   x10, x15, 1
Insns: 00000000000001111000010100010011 at PC_x=010001d4

--------------------------------------
010001d8:  	00008067    	JALR   x0, 0(x1)
Insns: 00000000000000001000000001100111 at PC_x=010001d8

--------------------------------------
010001b0:  	00050793    	ADDI   x15, x10, 0
Insns: 00000000000001010000011110010011 at PC_x=010001b0

--------------------------------------
010001b4:  	00c0006f    	JAL    x0, 10001b4

--------------------------------------
010001c0:  	00078513    	ADDI   x10, x15, 12
Insns: 00000000000001111000010100010011 at PC_x=010001c0

--------------------------------------
010001c4:  	01c12083    	LW     x1, 0(x2)
Insns: 00000001110000010010000010000011 at PC_x=010001c4

--------------------------------------
010001c8:  	02010113    	ADDI   x2, x2, 28
Insns: 00000010000000010000000100010011 at PC_x=010001c8

--------------------------------------
010001cc:  	00008067    	JALR   x0, 32(x1)
Insns: 00000000000000001000000001100111 at PC_x=010001cc

--------------------------------------
01000180:  	00050793    	ADDI   x15, x10, 0
Insns: 00000000000001010000011110010011 at PC_x=01000180

--------------------------------------
01000184:  	00078513    	ADDI   x10, x15, 0
Insns: 00000000000001111000010100010011 at PC_x=01000184

--------------------------------------
01000188:  	02c12083    	LW     x1, 0(x2)
Insns: 00000010110000010010000010000011 at PC_x=01000188

--------------------------------------
0100018c:  	03010113    	ADDI   x2, x2, 44
Insns: 00000011000000010000000100010011 at PC_x=0100018c

--------------------------------------
01000190:  	00008067    	JALR   x0, 48(x1)
Insns: 00000000000000001000000001100111 at PC_x=01000190

--------------------------------------
Exiting: Instruction memory returned out of range
00000000:  	badbadff    	 error

--------------------------------------

--------------------------------------
Fibonacci.x
WARNING: components/memory.v:44: $readmemh(temp.x): Not enough words in the file for the requested range [0:262143].
WARNING: components/memory.v:44: $readmemh(temp.x): Not enough words in the file for the requested range [0:262143].
VCD info: dumpfile testbench.vcd opened for output.

--------------------------------------
01000000:  	fe010113    	ADDI   x2, x2, x
Insns: 11111110000000010000000100010011 at PC_x=01000000
Error in ALU mux
Error in ALU mux

--------------------------------------
01000004:  	00112e23    	SW     x1, 4294967264(x2)

--------------------------------------
01000008:  	00a00513    	ADDI   x10, x0, 28
Insns: 00000000101000000000010100010011 at PC_x=01000008

--------------------------------------
0100000c:  	024000ef    	JAL    x1, 1000016

--------------------------------------
01000030:  	fe010113    	ADDI   x2, x2, 36
Insns: 11111110000000010000000100010011 at PC_x=01000030

--------------------------------------
01000034:  	00112e23    	SW     x1, 4294967264(x2)

--------------------------------------
01000038:  	00812c23    	SW     x8, 28(x2)

--------------------------------------
0100003c:  	00a12623    	SW     x10, 24(x2)

--------------------------------------
01000040:  	00c12703    	LW     x14, 12(x2)
Insns: 00000000110000010010011100000011 at PC_x=01000040

--------------------------------------
01000044:  	00100793    	ADDI   x15, x0, 12
Insns: 00000000000100000000011110010011 at PC_x=01000044

--------------------------------------
01000048:  	00e7c663    	BLT    x15, x14, 1000049

--------------------------------------
01000054:  	00c12783    	LW     x15, 12(x2)
Insns: 00000000110000010010011110000011 at PC_x=01000054

--------------------------------------
01000058:  	fff78793    	ADDI   x15, x15, 12
Insns: 11111111111101111000011110010011 at PC_x=01000058

--------------------------------------
0100005c:  	00078513    	ADDI   x10, x15, 4294967295
Insns: 00000000000001111000010100010011 at PC_x=0100005c

--------------------------------------
01000060:  	fd1ff0ef    	JAL    x1, 1000060

--------------------------------------
01000030:  	fe010113    	ADDI   x2, x2, 4294967248
Insns: 11111110000000010000000100010011 at PC_x=01000030

--------------------------------------
01000034:  	00112e23    	SW     x1, 4294967264(x2)

--------------------------------------
01000038:  	00812c23    	SW     x8, 28(x2)

--------------------------------------
0100003c:  	00a12623    	SW     x10, 24(x2)

--------------------------------------
01000040:  	00c12703    	LW     x14, 12(x2)
Insns: 00000000110000010010011100000011 at PC_x=01000040

--------------------------------------
01000044:  	00100793    	ADDI   x15, x0, 12
Insns: 00000000000100000000011110010011 at PC_x=01000044

--------------------------------------
01000048:  	00e7c663    	BLT    x15, x14, 1000049

--------------------------------------
01000054:  	00c12783    	LW     x15, 12(x2)
Insns: 00000000110000010010011110000011 at PC_x=01000054

--------------------------------------
01000058:  	fff78793    	ADDI   x15, x15, 12
Insns: 11111111111101111000011110010011 at PC_x=01000058

--------------------------------------
0100005c:  	00078513    	ADDI   x10, x15, 4294967295
Insns: 00000000000001111000010100010011 at PC_x=0100005c

--------------------------------------
01000060:  	fd1ff0ef    	JAL    x1, 1000060

--------------------------------------
01000030:  	fe010113    	ADDI   x2, x2, 4294967249
Insns: 11111110000000010000000100010011 at PC_x=01000030

--------------------------------------
01000034:  	00112e23    	SW     x1, 4294967264(x2)

--------------------------------------
01000038:  	00812c23    	SW     x8, 28(x2)

--------------------------------------
0100003c:  	00a12623    	SW     x10, 24(x2)

--------------------------------------
01000040:  	00c12703    	LW     x14, 12(x2)
Insns: 00000000110000010010011100000011 at PC_x=01000040

--------------------------------------
01000044:  	00100793    	ADDI   x15, x0, 12
Insns: 00000000000100000000011110010011 at PC_x=01000044

--------------------------------------
01000048:  	00e7c663    	BLT    x15, x14, 1000049

--------------------------------------
01000054:  	00c12783    	LW     x15, 12(x2)
Insns: 00000000110000010010011110000011 at PC_x=01000054

--------------------------------------
01000058:  	fff78793    	ADDI   x15, x15, 12
Insns: 11111111111101111000011110010011 at PC_x=01000058

--------------------------------------
0100005c:  	00078513    	ADDI   x10, x15, 4294967295
Insns: 00000000000001111000010100010011 at PC_x=0100005c

--------------------------------------
01000060:  	fd1ff0ef    	JAL    x1, 1000060

--------------------------------------
01000030:  	fe010113    	ADDI   x2, x2, 4294967248
Insns: 11111110000000010000000100010011 at PC_x=01000030

--------------------------------------
01000034:  	00112e23    	SW     x1, 4294967264(x2)

--------------------------------------
01000038:  	00812c23    	SW     x8, 28(x2)

--------------------------------------
0100003c:  	00a12623    	SW     x10, 24(x2)

--------------------------------------
01000040:  	00c12703    	LW     x14, 12(x2)
Insns: 00000000110000010010011100000011 at PC_x=01000040

--------------------------------------
01000044:  	00100793    	ADDI   x15, x0, 12
Insns: 00000000000100000000011110010011 at PC_x=01000044

--------------------------------------
01000048:  	00e7c663    	BLT    x15, x14, 1000049

--------------------------------------
01000054:  	00c12783    	LW     x15, 12(x2)
Insns: 00000000110000010010011110000011 at PC_x=01000054

--------------------------------------
01000058:  	fff78793    	ADDI   x15, x15, 12
Insns: 11111111111101111000011110010011 at PC_x=01000058

--------------------------------------
0100005c:  	00078513    	ADDI   x10, x15, 4294967295
Insns: 00000000000001111000010100010011 at PC_x=0100005c

--------------------------------------
01000060:  	fd1ff0ef    	JAL    x1, 1000060

--------------------------------------
01000030:  	fe010113    	ADDI   x2, x2, 4294967249
Insns: 11111110000000010000000100010011 at PC_x=01000030

--------------------------------------
01000034:  	00112e23    	SW     x1, 4294967264(x2)

--------------------------------------
01000038:  	00812c23    	SW     x8, 28(x2)

--------------------------------------
0100003c:  	00a12623    	SW     x10, 24(x2)

--------------------------------------
01000040:  	00c12703    	LW     x14, 12(x2)
Insns: 00000000110000010010011100000011 at PC_x=01000040

--------------------------------------
01000044:  	00100793    	ADDI   x15, x0, 12
Insns: 00000000000100000000011110010011 at PC_x=01000044

--------------------------------------
01000048:  	00e7c663    	BLT    x15, x14, 1000049

--------------------------------------
01000054:  	00c12783    	LW     x15, 12(x2)
Insns: 00000000110000010010011110000011 at PC_x=01000054

--------------------------------------
01000058:  	fff78793    	ADDI   x15, x15, 12
Insns: 11111111111101111000011110010011 at PC_x=01000058

--------------------------------------
0100005c:  	00078513    	ADDI   x10, x15, 4294967295
Insns: 00000000000001111000010100010011 at PC_x=0100005c

--------------------------------------
01000060:  	fd1ff0ef    	JAL    x1, 1000060

--------------------------------------
01000030:  	fe010113    	ADDI   x2, x2, 4294967248
Insns: 11111110000000010000000100010011 at PC_x=01000030

--------------------------------------
01000034:  	00112e23    	SW     x1, 4294967264(x2)

--------------------------------------
01000038:  	00812c23    	SW     x8, 28(x2)

--------------------------------------
0100003c:  	00a12623    	SW     x10, 24(x2)

--------------------------------------
01000040:  	00c12703    	LW     x14, 12(x2)
Insns: 00000000110000010010011100000011 at PC_x=01000040

--------------------------------------
01000044:  	00100793    	ADDI   x15, x0, 12
Insns: 00000000000100000000011110010011 at PC_x=01000044

--------------------------------------
01000048:  	00e7c663    	BLT    x15, x14, 1000049

--------------------------------------
01000054:  	00c12783    	LW     x15, 12(x2)
Insns: 00000000110000010010011110000011 at PC_x=01000054

--------------------------------------
01000058:  	fff78793    	ADDI   x15, x15, 12
Insns: 11111111111101111000011110010011 at PC_x=01000058

--------------------------------------
0100005c:  	00078513    	ADDI   x10, x15, 4294967295
Insns: 00000000000001111000010100010011 at PC_x=0100005c

--------------------------------------
01000060:  	fd1ff0ef    	JAL    x1, 1000060

--------------------------------------
01000030:  	fe010113    	ADDI   x2, x2, 4294967249
Insns: 11111110000000010000000100010011 at PC_x=01000030

--------------------------------------
01000034:  	00112e23    	SW     x1, 4294967264(x2)

--------------------------------------
01000038:  	00812c23    	SW     x8, 28(x2)

--------------------------------------
0100003c:  	00a12623    	SW     x10, 24(x2)

--------------------------------------
01000040:  	00c12703    	LW     x14, 12(x2)
Insns: 00000000110000010010011100000011 at PC_x=01000040

--------------------------------------
01000044:  	00100793    	ADDI   x15, x0, 12
Insns: 00000000000100000000011110010011 at PC_x=01000044

--------------------------------------
01000048:  	00e7c663    	BLT    x15, x14, 1000049

--------------------------------------
01000054:  	00c12783    	LW     x15, 12(x2)
Insns: 00000000110000010010011110000011 at PC_x=01000054

--------------------------------------
01000058:  	fff78793    	ADDI   x15, x15, 12
Insns: 11111111111101111000011110010011 at PC_x=01000058

--------------------------------------
0100005c:  	00078513    	ADDI   x10, x15, 4294967295
Insns: 00000000000001111000010100010011 at PC_x=0100005c

--------------------------------------
01000060:  	fd1ff0ef    	JAL    x1, 1000060

--------------------------------------
01000030:  	fe010113    	ADDI   x2, x2, 4294967248
Insns: 11111110000000010000000100010011 at PC_x=01000030

--------------------------------------
01000034:  	00112e23    	SW     x1, 4294967264(x2)

--------------------------------------
01000038:  	00812c23    	SW     x8, 28(x2)

--------------------------------------
0100003c:  	00a12623    	SW     x10, 24(x2)

--------------------------------------
01000040:  	00c12703    	LW     x14, 12(x2)
Insns: 00000000110000010010011100000011 at PC_x=01000040

--------------------------------------
01000044:  	00100793    	ADDI   x15, x0, 12
Insns: 00000000000100000000011110010011 at PC_x=01000044

--------------------------------------
01000048:  	00e7c663    	BLT    x15, x14, 1000049

--------------------------------------
01000054:  	00c12783    	LW     x15, 12(x2)
Insns: 00000000110000010010011110000011 at PC_x=01000054

--------------------------------------
01000058:  	fff78793    	ADDI   x15, x15, 12
Insns: 11111111111101111000011110010011 at PC_x=01000058

--------------------------------------
0100005c:  	00078513    	ADDI   x10, x15, 4294967295
Insns: 00000000000001111000010100010011 at PC_x=0100005c

--------------------------------------
01000060:  	fd1ff0ef    	JAL    x1, 1000060

--------------------------------------
01000030:  	fe010113    	ADDI   x2, x2, 4294967249
Insns: 11111110000000010000000100010011 at PC_x=01000030

--------------------------------------
01000034:  	00112e23    	SW     x1, 4294967264(x2)

--------------------------------------
01000038:  	00812c23    	SW     x8, 28(x2)

--------------------------------------
0100003c:  	00a12623    	SW     x10, 24(x2)

--------------------------------------
01000040:  	00c12703    	LW     x14, 12(x2)
Insns: 00000000110000010010011100000011 at PC_x=01000040

--------------------------------------
01000044:  	00100793    	ADDI   x15, x0, 12
Insns: 00000000000100000000011110010011 at PC_x=01000044

--------------------------------------
01000048:  	00e7c663    	BLT    x15, x14, 1000049

--------------------------------------
01000054:  	00c12783    	LW     x15, 12(x2)
Insns: 00000000110000010010011110000011 at PC_x=01000054

--------------------------------------
01000058:  	fff78793    	ADDI   x15, x15, 12
Insns: 11111111111101111000011110010011 at PC_x=01000058

--------------------------------------
0100005c:  	00078513    	ADDI   x10, x15, 4294967295
Insns: 00000000000001111000010100010011 at PC_x=0100005c

--------------------------------------
01000060:  	fd1ff0ef    	JAL    x1, 1000060

--------------------------------------
01000030:  	fe010113    	ADDI   x2, x2, 4294967248
Insns: 11111110000000010000000100010011 at PC_x=01000030

--------------------------------------
01000034:  	00112e23    	SW     x1, 4294967264(x2)

--------------------------------------
01000038:  	00812c23    	SW     x8, 28(x2)

--------------------------------------
0100003c:  	00a12623    	SW     x10, 24(x2)

--------------------------------------
01000040:  	00c12703    	LW     x14, 12(x2)
Insns: 00000000110000010010011100000011 at PC_x=01000040

--------------------------------------
01000044:  	00100793    	ADDI   x15, x0, 12
Insns: 00000000000100000000011110010011 at PC_x=01000044

--------------------------------------
01000048:  	00e7c663    	BLT    x15, x14, 1000049

--------------------------------------
0100004c:  	00c12783    	LW     x15, 12(x2)
Insns: 00000000110000010010011110000011 at PC_x=0100004c

--------------------------------------
01000050:  	0300006f    	JAL    x0, 100005c

--------------------------------------
01000080:  	00078513    	ADDI   x10, x15, 48
Insns: 00000000000001111000010100010011 at PC_x=01000080

--------------------------------------
01000084:  	01c12083    	LW     x1, 0(x2)
Insns: 00000001110000010010000010000011 at PC_x=01000084

--------------------------------------
01000088:  	01812403    	LW     x8, 28(x2)
Insns: 00000001100000010010010000000011 at PC_x=01000088

--------------------------------------
0100008c:  	02010113    	ADDI   x2, x2, 24
Insns: 00000010000000010000000100010011 at PC_x=0100008c

--------------------------------------
01000090:  	00008067    	JALR   x0, 32(x1)
Insns: 00000000000000001000000001100111 at PC_x=01000090

--------------------------------------
01000064:  	00050413    	ADDI   x8, x10, 0
Insns: 00000000000001010000010000010011 at PC_x=01000064

--------------------------------------
01000068:  	00c12783    	LW     x15, 0(x2)
Insns: 00000000110000010010011110000011 at PC_x=01000068

--------------------------------------
0100006c:  	ffe78793    	ADDI   x15, x15, 12
Insns: 11111111111001111000011110010011 at PC_x=0100006c

--------------------------------------
01000070:  	00078513    	ADDI   x10, x15, 4294967294
Insns: 00000000000001111000010100010011 at PC_x=01000070

--------------------------------------
01000074:  	fbdff0ef    	JAL    x1, 1000074

--------------------------------------
01000030:  	fe010113    	ADDI   x2, x2, 4294967229
Insns: 11111110000000010000000100010011 at PC_x=01000030

--------------------------------------
01000034:  	00112e23    	SW     x1, 4294967264(x2)

--------------------------------------
01000038:  	00812c23    	SW     x8, 28(x2)

--------------------------------------
0100003c:  	00a12623    	SW     x10, 24(x2)

--------------------------------------
01000040:  	00c12703    	LW     x14, 12(x2)
Insns: 00000000110000010010011100000011 at PC_x=01000040

--------------------------------------
01000044:  	00100793    	ADDI   x15, x0, 12
Insns: 00000000000100000000011110010011 at PC_x=01000044

--------------------------------------
01000048:  	00e7c663    	BLT    x15, x14, 1000049

--------------------------------------
0100004c:  	00c12783    	LW     x15, 12(x2)
Insns: 00000000110000010010011110000011 at PC_x=0100004c

--------------------------------------
01000050:  	0300006f    	JAL    x0, 100005c

--------------------------------------
01000080:  	00078513    	ADDI   x10, x15, 48
Insns: 00000000000001111000010100010011 at PC_x=01000080

--------------------------------------
01000084:  	01c12083    	LW     x1, 0(x2)
Insns: 00000001110000010010000010000011 at PC_x=01000084

--------------------------------------
01000088:  	01812403    	LW     x8, 28(x2)
Insns: 00000001100000010010010000000011 at PC_x=01000088

--------------------------------------
0100008c:  	02010113    	ADDI   x2, x2, 24
Insns: 00000010000000010000000100010011 at PC_x=0100008c

--------------------------------------
01000090:  	00008067    	JALR   x0, 32(x1)
Insns: 00000000000000001000000001100111 at PC_x=01000090

--------------------------------------
01000078:  	00050793    	ADDI   x15, x10, 0
Insns: 00000000000001010000011110010011 at PC_x=01000078

--------------------------------------
0100007c:  	00f407b3    	ADD    x15, x8, x15

--------------------------------------
01000080:  	00078513    	ADDI   x10, x15, 15
Insns: 00000000000001111000010100010011 at PC_x=01000080

--------------------------------------
01000084:  	01c12083    	LW     x1, 0(x2)
Insns: 00000001110000010010000010000011 at PC_x=01000084

--------------------------------------
01000088:  	01812403    	LW     x8, 28(x2)
Insns: 00000001100000010010010000000011 at PC_x=01000088

--------------------------------------
0100008c:  	02010113    	ADDI   x2, x2, 24
Insns: 00000010000000010000000100010011 at PC_x=0100008c

--------------------------------------
01000090:  	00008067    	JALR   x0, 32(x1)
Insns: 00000000000000001000000001100111 at PC_x=01000090

--------------------------------------
01000064:  	00050413    	ADDI   x8, x10, 0
Insns: 00000000000001010000010000010011 at PC_x=01000064

--------------------------------------
01000068:  	00c12783    	LW     x15, 0(x2)
Insns: 00000000110000010010011110000011 at PC_x=01000068

--------------------------------------
0100006c:  	ffe78793    	ADDI   x15, x15, 12
Insns: 11111111111001111000011110010011 at PC_x=0100006c

--------------------------------------
01000070:  	00078513    	ADDI   x10, x15, 4294967294
Insns: 00000000000001111000010100010011 at PC_x=01000070

--------------------------------------
01000074:  	fbdff0ef    	JAL    x1, 1000074

--------------------------------------
01000030:  	fe010113    	ADDI   x2, x2, 4294967229
Insns: 11111110000000010000000100010011 at PC_x=01000030

--------------------------------------
01000034:  	00112e23    	SW     x1, 4294967264(x2)

--------------------------------------
01000038:  	00812c23    	SW     x8, 28(x2)

--------------------------------------
0100003c:  	00a12623    	SW     x10, 24(x2)

--------------------------------------
01000040:  	00c12703    	LW     x14, 12(x2)
Insns: 00000000110000010010011100000011 at PC_x=01000040

--------------------------------------
01000044:  	00100793    	ADDI   x15, x0, 12
Insns: 00000000000100000000011110010011 at PC_x=01000044

--------------------------------------
01000048:  	00e7c663    	BLT    x15, x14, 1000049

--------------------------------------
0100004c:  	00c12783    	LW     x15, 12(x2)
Insns: 00000000110000010010011110000011 at PC_x=0100004c

--------------------------------------
01000050:  	0300006f    	JAL    x0, 100005c

--------------------------------------
01000080:  	00078513    	ADDI   x10, x15, 48
Insns: 00000000000001111000010100010011 at PC_x=01000080

--------------------------------------
01000084:  	01c12083    	LW     x1, 0(x2)
Insns: 00000001110000010010000010000011 at PC_x=01000084

--------------------------------------
01000088:  	01812403    	LW     x8, 28(x2)
Insns: 00000001100000010010010000000011 at PC_x=01000088

--------------------------------------
0100008c:  	02010113    	ADDI   x2, x2, 24
Insns: 00000010000000010000000100010011 at PC_x=0100008c

--------------------------------------
01000090:  	00008067    	JALR   x0, 32(x1)
Insns: 00000000000000001000000001100111 at PC_x=01000090

--------------------------------------
01000078:  	00050793    	ADDI   x15, x10, 0
Insns: 00000000000001010000011110010011 at PC_x=01000078

--------------------------------------
0100007c:  	00f407b3    	ADD    x15, x8, x15

--------------------------------------
01000080:  	00078513    	ADDI   x10, x15, 15
Insns: 00000000000001111000010100010011 at PC_x=01000080

--------------------------------------
01000084:  	01c12083    	LW     x1, 0(x2)
Insns: 00000001110000010010000010000011 at PC_x=01000084

--------------------------------------
01000088:  	01812403    	LW     x8, 28(x2)
Insns: 00000001100000010010010000000011 at PC_x=01000088

--------------------------------------
0100008c:  	02010113    	ADDI   x2, x2, 24
Insns: 00000010000000010000000100010011 at PC_x=0100008c

--------------------------------------
01000090:  	00008067    	JALR   x0, 32(x1)
Insns: 00000000000000001000000001100111 at PC_x=01000090

--------------------------------------
01000064:  	00050413    	ADDI   x8, x10, 0
Insns: 00000000000001010000010000010011 at PC_x=01000064

--------------------------------------
01000068:  	00c12783    	LW     x15, 0(x2)
Insns: 00000000110000010010011110000011 at PC_x=01000068

--------------------------------------
0100006c:  	ffe78793    	ADDI   x15, x15, 12
Insns: 11111111111001111000011110010011 at PC_x=0100006c

--------------------------------------
01000070:  	00078513    	ADDI   x10, x15, 4294967294
Insns: 00000000000001111000010100010011 at PC_x=01000070

--------------------------------------
01000074:  	fbdff0ef    	JAL    x1, 1000074

--------------------------------------
01000030:  	fe010113    	ADDI   x2, x2, 4294967229
Insns: 11111110000000010000000100010011 at PC_x=01000030

--------------------------------------
01000034:  	00112e23    	SW     x1, 4294967264(x2)

--------------------------------------
01000038:  	00812c23    	SW     x8, 28(x2)

--------------------------------------
0100003c:  	00a12623    	SW     x10, 24(x2)

--------------------------------------
01000040:  	00c12703    	LW     x14, 12(x2)
Insns: 00000000110000010010011100000011 at PC_x=01000040

--------------------------------------
01000044:  	00100793    	ADDI   x15, x0, 12
Insns: 00000000000100000000011110010011 at PC_x=01000044

--------------------------------------
01000048:  	00e7c663    	BLT    x15, x14, 1000049

--------------------------------------
01000054:  	00c12783    	LW     x15, 12(x2)
Insns: 00000000110000010010011110000011 at PC_x=01000054

--------------------------------------
01000058:  	fff78793    	ADDI   x15, x15, 12
Insns: 11111111111101111000011110010011 at PC_x=01000058

--------------------------------------
0100005c:  	00078513    	ADDI   x10, x15, 4294967295
Insns: 00000000000001111000010100010011 at PC_x=0100005c

--------------------------------------
01000060:  	fd1ff0ef    	JAL    x1, 1000060

--------------------------------------
01000030:  	fe010113    	ADDI   x2, x2, 4294967248
Insns: 11111110000000010000000100010011 at PC_x=01000030

--------------------------------------
01000034:  	00112e23    	SW     x1, 4294967264(x2)

--------------------------------------
01000038:  	00812c23    	SW     x8, 28(x2)

--------------------------------------
0100003c:  	00a12623    	SW     x10, 24(x2)

--------------------------------------
01000040:  	00c12703    	LW     x14, 12(x2)
Insns: 00000000110000010010011100000011 at PC_x=01000040

--------------------------------------
01000044:  	00100793    	ADDI   x15, x0, 12
Insns: 00000000000100000000011110010011 at PC_x=01000044

--------------------------------------
01000048:  	00e7c663    	BLT    x15, x14, 1000049

--------------------------------------
0100004c:  	00c12783    	LW     x15, 12(x2)
Insns: 00000000110000010010011110000011 at PC_x=0100004c

--------------------------------------
01000050:  	0300006f    	JAL    x0, 100005c

--------------------------------------
01000080:  	00078513    	ADDI   x10, x15, 48
Insns: 00000000000001111000010100010011 at PC_x=01000080

--------------------------------------
01000084:  	01c12083    	LW     x1, 0(x2)
Insns: 00000001110000010010000010000011 at PC_x=01000084

--------------------------------------
01000088:  	01812403    	LW     x8, 28(x2)
Insns: 00000001100000010010010000000011 at PC_x=01000088

--------------------------------------
0100008c:  	02010113    	ADDI   x2, x2, 24
Insns: 00000010000000010000000100010011 at PC_x=0100008c

--------------------------------------
01000090:  	00008067    	JALR   x0, 32(x1)
Insns: 00000000000000001000000001100111 at PC_x=01000090

--------------------------------------
01000064:  	00050413    	ADDI   x8, x10, 0
Insns: 00000000000001010000010000010011 at PC_x=01000064

--------------------------------------
01000068:  	00c12783    	LW     x15, 0(x2)
Insns: 00000000110000010010011110000011 at PC_x=01000068

--------------------------------------
0100006c:  	ffe78793    	ADDI   x15, x15, 12
Insns: 11111111111001111000011110010011 at PC_x=0100006c

--------------------------------------
01000070:  	00078513    	ADDI   x10, x15, 4294967294
Insns: 00000000000001111000010100010011 at PC_x=01000070

--------------------------------------
01000074:  	fbdff0ef    	JAL    x1, 1000074

--------------------------------------
01000030:  	fe010113    	ADDI   x2, x2, 4294967229
Insns: 11111110000000010000000100010011 at PC_x=01000030

--------------------------------------
01000034:  	00112e23    	SW     x1, 4294967264(x2)

--------------------------------------
01000038:  	00812c23    	SW     x8, 28(x2)

--------------------------------------
0100003c:  	00a12623    	SW     x10, 24(x2)

--------------------------------------
01000040:  	00c12703    	LW     x14, 12(x2)
Insns: 00000000110000010010011100000011 at PC_x=01000040

--------------------------------------
01000044:  	00100793    	ADDI   x15, x0, 12
Insns: 00000000000100000000011110010011 at PC_x=01000044

--------------------------------------
01000048:  	00e7c663    	BLT    x15, x14, 1000049

--------------------------------------
0100004c:  	00c12783    	LW     x15, 12(x2)
Insns: 00000000110000010010011110000011 at PC_x=0100004c

--------------------------------------
01000050:  	0300006f    	JAL    x0, 100005c

--------------------------------------
01000080:  	00078513    	ADDI   x10, x15, 48
Insns: 00000000000001111000010100010011 at PC_x=01000080

--------------------------------------
01000084:  	01c12083    	LW     x1, 0(x2)
Insns: 00000001110000010010000010000011 at PC_x=01000084

--------------------------------------
01000088:  	01812403    	LW     x8, 28(x2)
Insns: 00000001100000010010010000000011 at PC_x=01000088

--------------------------------------
0100008c:  	02010113    	ADDI   x2, x2, 24
Insns: 00000010000000010000000100010011 at PC_x=0100008c

--------------------------------------
01000090:  	00008067    	JALR   x0, 32(x1)
Insns: 00000000000000001000000001100111 at PC_x=01000090

--------------------------------------
01000078:  	00050793    	ADDI   x15, x10, 0
Insns: 00000000000001010000011110010011 at PC_x=01000078

--------------------------------------
0100007c:  	00f407b3    	ADD    x15, x8, x15

--------------------------------------
01000080:  	00078513    	ADDI   x10, x15, 15
Insns: 00000000000001111000010100010011 at PC_x=01000080

--------------------------------------
01000084:  	01c12083    	LW     x1, 0(x2)
Insns: 00000001110000010010000010000011 at PC_x=01000084

--------------------------------------
01000088:  	01812403    	LW     x8, 28(x2)
Insns: 00000001100000010010010000000011 at PC_x=01000088

--------------------------------------
0100008c:  	02010113    	ADDI   x2, x2, 24
Insns: 00000010000000010000000100010011 at PC_x=0100008c

--------------------------------------
01000090:  	00008067    	JALR   x0, 32(x1)
Insns: 00000000000000001000000001100111 at PC_x=01000090

--------------------------------------
01000078:  	00050793    	ADDI   x15, x10, 0
Insns: 00000000000001010000011110010011 at PC_x=01000078

--------------------------------------
0100007c:  	00f407b3    	ADD    x15, x8, x15

--------------------------------------
01000080:  	00078513    	ADDI   x10, x15, 0
Insns: 00000000000001111000010100010011 at PC_x=01000080

--------------------------------------
01000084:  	01c12083    	LW     x1, 0(x2)
Insns: 00000001110000010010000010000011 at PC_x=01000084

--------------------------------------
01000088:  	01812403    	LW     x8, 28(x2)
Insns: 00000001100000010010010000000011 at PC_x=01000088

--------------------------------------
0100008c:  	02010113    	ADDI   x2, x2, 24
Insns: 00000010000000010000000100010011 at PC_x=0100008c

--------------------------------------
01000090:  	00008067    	JALR   x0, 32(x1)
Insns: 00000000000000001000000001100111 at PC_x=01000090

--------------------------------------
01000064:  	00050413    	ADDI   x8, x10, 0
Insns: 00000000000001010000010000010011 at PC_x=01000064

--------------------------------------
01000068:  	00c12783    	LW     x15, 0(x2)
Insns: 00000000110000010010011110000011 at PC_x=01000068

--------------------------------------
0100006c:  	ffe78793    	ADDI   x15, x15, 12
Insns: 11111111111001111000011110010011 at PC_x=0100006c

--------------------------------------
01000070:  	00078513    	ADDI   x10, x15, 4294967294
Insns: 00000000000001111000010100010011 at PC_x=01000070

--------------------------------------
01000074:  	fbdff0ef    	JAL    x1, 1000074

--------------------------------------
01000030:  	fe010113    	ADDI   x2, x2, 4294967228
Insns: 11111110000000010000000100010011 at PC_x=01000030

--------------------------------------
01000034:  	00112e23    	SW     x1, 4294967264(x2)

--------------------------------------
01000038:  	00812c23    	SW     x8, 28(x2)

--------------------------------------
0100003c:  	00a12623    	SW     x10, 24(x2)

--------------------------------------
01000040:  	00c12703    	LW     x14, 12(x2)
Insns: 00000000110000010010011100000011 at PC_x=01000040

--------------------------------------
01000044:  	00100793    	ADDI   x15, x0, 12
Insns: 00000000000100000000011110010011 at PC_x=01000044

--------------------------------------
01000048:  	00e7c663    	BLT    x15, x14, 1000049

--------------------------------------
01000054:  	00c12783    	LW     x15, 12(x2)
Insns: 00000000110000010010011110000011 at PC_x=01000054

--------------------------------------
01000058:  	fff78793    	ADDI   x15, x15, 12
Insns: 11111111111101111000011110010011 at PC_x=01000058

--------------------------------------
0100005c:  	00078513    	ADDI   x10, x15, 4294967295
Insns: 00000000000001111000010100010011 at PC_x=0100005c

--------------------------------------
01000060:  	fd1ff0ef    	JAL    x1, 1000060

--------------------------------------
01000030:  	fe010113    	ADDI   x2, x2, 4294967249
Insns: 11111110000000010000000100010011 at PC_x=01000030

--------------------------------------
01000034:  	00112e23    	SW     x1, 4294967264(x2)

--------------------------------------
01000038:  	00812c23    	SW     x8, 28(x2)

--------------------------------------
0100003c:  	00a12623    	SW     x10, 24(x2)

--------------------------------------
01000040:  	00c12703    	LW     x14, 12(x2)
Insns: 00000000110000010010011100000011 at PC_x=01000040

--------------------------------------
01000044:  	00100793    	ADDI   x15, x0, 12
Insns: 00000000000100000000011110010011 at PC_x=01000044

--------------------------------------
01000048:  	00e7c663    	BLT    x15, x14, 1000049

--------------------------------------
01000054:  	00c12783    	LW     x15, 12(x2)
Insns: 00000000110000010010011110000011 at PC_x=01000054

--------------------------------------
01000058:  	fff78793    	ADDI   x15, x15, 12
Insns: 11111111111101111000011110010011 at PC_x=01000058

--------------------------------------
0100005c:  	00078513    	ADDI   x10, x15, 4294967295
Insns: 00000000000001111000010100010011 at PC_x=0100005c

--------------------------------------
01000060:  	fd1ff0ef    	JAL    x1, 1000060

--------------------------------------
01000030:  	fe010113    	ADDI   x2, x2, 4294967248
Insns: 11111110000000010000000100010011 at PC_x=01000030

--------------------------------------
01000034:  	00112e23    	SW     x1, 4294967264(x2)

--------------------------------------
01000038:  	00812c23    	SW     x8, 28(x2)

--------------------------------------
0100003c:  	00a12623    	SW     x10, 24(x2)

--------------------------------------
01000040:  	00c12703    	LW     x14, 12(x2)
Insns: 00000000110000010010011100000011 at PC_x=01000040

--------------------------------------
01000044:  	00100793    	ADDI   x15, x0, 12
Insns: 00000000000100000000011110010011 at PC_x=01000044

--------------------------------------
01000048:  	00e7c663    	BLT    x15, x14, 1000049

--------------------------------------
0100004c:  	00c12783    	LW     x15, 12(x2)
Insns: 00000000110000010010011110000011 at PC_x=0100004c

--------------------------------------
01000050:  	0300006f    	JAL    x0, 100005c

--------------------------------------
01000080:  	00078513    	ADDI   x10, x15, 48
Insns: 00000000000001111000010100010011 at PC_x=01000080

--------------------------------------
01000084:  	01c12083    	LW     x1, 0(x2)
Insns: 00000001110000010010000010000011 at PC_x=01000084

--------------------------------------
01000088:  	01812403    	LW     x8, 28(x2)
Insns: 00000001100000010010010000000011 at PC_x=01000088

--------------------------------------
0100008c:  	02010113    	ADDI   x2, x2, 24
Insns: 00000010000000010000000100010011 at PC_x=0100008c

--------------------------------------
01000090:  	00008067    	JALR   x0, 32(x1)
Insns: 00000000000000001000000001100111 at PC_x=01000090

--------------------------------------
01000064:  	00050413    	ADDI   x8, x10, 0
Insns: 00000000000001010000010000010011 at PC_x=01000064

--------------------------------------
01000068:  	00c12783    	LW     x15, 0(x2)
Insns: 00000000110000010010011110000011 at PC_x=01000068

--------------------------------------
0100006c:  	ffe78793    	ADDI   x15, x15, 12
Insns: 11111111111001111000011110010011 at PC_x=0100006c

--------------------------------------
01000070:  	00078513    	ADDI   x10, x15, 4294967294
Insns: 00000000000001111000010100010011 at PC_x=01000070

--------------------------------------
01000074:  	fbdff0ef    	JAL    x1, 1000074

--------------------------------------
01000030:  	fe010113    	ADDI   x2, x2, 4294967229
Insns: 11111110000000010000000100010011 at PC_x=01000030

--------------------------------------
01000034:  	00112e23    	SW     x1, 4294967264(x2)

--------------------------------------
01000038:  	00812c23    	SW     x8, 28(x2)

--------------------------------------
0100003c:  	00a12623    	SW     x10, 24(x2)

--------------------------------------
01000040:  	00c12703    	LW     x14, 12(x2)
Insns: 00000000110000010010011100000011 at PC_x=01000040

--------------------------------------
01000044:  	00100793    	ADDI   x15, x0, 12
Insns: 00000000000100000000011110010011 at PC_x=01000044

--------------------------------------
01000048:  	00e7c663    	BLT    x15, x14, 1000049

--------------------------------------
0100004c:  	00c12783    	LW     x15, 12(x2)
Insns: 00000000110000010010011110000011 at PC_x=0100004c

--------------------------------------
01000050:  	0300006f    	JAL    x0, 100005c

--------------------------------------
01000080:  	00078513    	ADDI   x10, x15, 48
Insns: 00000000000001111000010100010011 at PC_x=01000080

--------------------------------------
01000084:  	01c12083    	LW     x1, 0(x2)
Insns: 00000001110000010010000010000011 at PC_x=01000084

--------------------------------------
01000088:  	01812403    	LW     x8, 28(x2)
Insns: 00000001100000010010010000000011 at PC_x=01000088

--------------------------------------
0100008c:  	02010113    	ADDI   x2, x2, 24
Insns: 00000010000000010000000100010011 at PC_x=0100008c

--------------------------------------
01000090:  	00008067    	JALR   x0, 32(x1)
Insns: 00000000000000001000000001100111 at PC_x=01000090

--------------------------------------
01000078:  	00050793    	ADDI   x15, x10, 0
Insns: 00000000000001010000011110010011 at PC_x=01000078

--------------------------------------
0100007c:  	00f407b3    	ADD    x15, x8, x15

--------------------------------------
01000080:  	00078513    	ADDI   x10, x15, 15
Insns: 00000000000001111000010100010011 at PC_x=01000080

--------------------------------------
01000084:  	01c12083    	LW     x1, 0(x2)
Insns: 00000001110000010010000010000011 at PC_x=01000084

--------------------------------------
01000088:  	01812403    	LW     x8, 28(x2)
Insns: 00000001100000010010010000000011 at PC_x=01000088

--------------------------------------
0100008c:  	02010113    	ADDI   x2, x2, 24
Insns: 00000010000000010000000100010011 at PC_x=0100008c

--------------------------------------
01000090:  	00008067    	JALR   x0, 32(x1)
Insns: 00000000000000001000000001100111 at PC_x=01000090

--------------------------------------
01000064:  	00050413    	ADDI   x8, x10, 0
Insns: 00000000000001010000010000010011 at PC_x=01000064

--------------------------------------
01000068:  	00c12783    	LW     x15, 0(x2)
Insns: 00000000110000010010011110000011 at PC_x=01000068

--------------------------------------
0100006c:  	ffe78793    	ADDI   x15, x15, 12
Insns: 11111111111001111000011110010011 at PC_x=0100006c

--------------------------------------
01000070:  	00078513    	ADDI   x10, x15, 4294967294
Insns: 00000000000001111000010100010011 at PC_x=01000070

--------------------------------------
01000074:  	fbdff0ef    	JAL    x1, 1000074

--------------------------------------
01000030:  	fe010113    	ADDI   x2, x2, 4294967229
Insns: 11111110000000010000000100010011 at PC_x=01000030

--------------------------------------
01000034:  	00112e23    	SW     x1, 4294967264(x2)

--------------------------------------
01000038:  	00812c23    	SW     x8, 28(x2)

--------------------------------------
0100003c:  	00a12623    	SW     x10, 24(x2)

--------------------------------------
01000040:  	00c12703    	LW     x14, 12(x2)
Insns: 00000000110000010010011100000011 at PC_x=01000040

--------------------------------------
01000044:  	00100793    	ADDI   x15, x0, 12
Insns: 00000000000100000000011110010011 at PC_x=01000044

--------------------------------------
01000048:  	00e7c663    	BLT    x15, x14, 1000049

--------------------------------------
0100004c:  	00c12783    	LW     x15, 12(x2)
Insns: 00000000110000010010011110000011 at PC_x=0100004c

--------------------------------------
01000050:  	0300006f    	JAL    x0, 100005c

--------------------------------------
01000080:  	00078513    	ADDI   x10, x15, 48
Insns: 00000000000001111000010100010011 at PC_x=01000080

--------------------------------------
01000084:  	01c12083    	LW     x1, 0(x2)
Insns: 00000001110000010010000010000011 at PC_x=01000084

--------------------------------------
01000088:  	01812403    	LW     x8, 28(x2)
Insns: 00000001100000010010010000000011 at PC_x=01000088

--------------------------------------
0100008c:  	02010113    	ADDI   x2, x2, 24
Insns: 00000010000000010000000100010011 at PC_x=0100008c

--------------------------------------
01000090:  	00008067    	JALR   x0, 32(x1)
Insns: 00000000000000001000000001100111 at PC_x=01000090

--------------------------------------
01000078:  	00050793    	ADDI   x15, x10, 0
Insns: 00000000000001010000011110010011 at PC_x=01000078

--------------------------------------
0100007c:  	00f407b3    	ADD    x15, x8, x15

--------------------------------------
01000080:  	00078513    	ADDI   x10, x15, 15
Insns: 00000000000001111000010100010011 at PC_x=01000080

--------------------------------------
01000084:  	01c12083    	LW     x1, 0(x2)
Insns: 00000001110000010010000010000011 at PC_x=01000084

--------------------------------------
01000088:  	01812403    	LW     x8, 28(x2)
Insns: 00000001100000010010010000000011 at PC_x=01000088

--------------------------------------
0100008c:  	02010113    	ADDI   x2, x2, 24
Insns: 00000010000000010000000100010011 at PC_x=0100008c

--------------------------------------
01000090:  	00008067    	JALR   x0, 32(x1)
Insns: 00000000000000001000000001100111 at PC_x=01000090

--------------------------------------
01000078:  	00050793    	ADDI   x15, x10, 0
Insns: 00000000000001010000011110010011 at PC_x=01000078

--------------------------------------
0100007c:  	00f407b3    	ADD    x15, x8, x15

--------------------------------------
01000080:  	00078513    	ADDI   x10, x15, 0
Insns: 00000000000001111000010100010011 at PC_x=01000080

--------------------------------------
01000084:  	01c12083    	LW     x1, 0(x2)
Insns: 00000001110000010010000010000011 at PC_x=01000084

--------------------------------------
01000088:  	01812403    	LW     x8, 28(x2)
Insns: 00000001100000010010010000000011 at PC_x=01000088

--------------------------------------
0100008c:  	02010113    	ADDI   x2, x2, 24
Insns: 00000010000000010000000100010011 at PC_x=0100008c

--------------------------------------
01000090:  	00008067    	JALR   x0, 32(x1)
Insns: 00000000000000001000000001100111 at PC_x=01000090

--------------------------------------
01000064:  	00050413    	ADDI   x8, x10, 0
Insns: 00000000000001010000010000010011 at PC_x=01000064

--------------------------------------
01000068:  	00c12783    	LW     x15, 0(x2)
Insns: 00000000110000010010011110000011 at PC_x=01000068

--------------------------------------
0100006c:  	ffe78793    	ADDI   x15, x15, 12
Insns: 11111111111001111000011110010011 at PC_x=0100006c

--------------------------------------
01000070:  	00078513    	ADDI   x10, x15, 4294967294
Insns: 00000000000001111000010100010011 at PC_x=01000070

--------------------------------------
01000074:  	fbdff0ef    	JAL    x1, 1000074

--------------------------------------
01000030:  	fe010113    	ADDI   x2, x2, 4294967228
Insns: 11111110000000010000000100010011 at PC_x=01000030

--------------------------------------
01000034:  	00112e23    	SW     x1, 4294967264(x2)

--------------------------------------
01000038:  	00812c23    	SW     x8, 28(x2)

--------------------------------------
0100003c:  	00a12623    	SW     x10, 24(x2)

--------------------------------------
01000040:  	00c12703    	LW     x14, 12(x2)
Insns: 00000000110000010010011100000011 at PC_x=01000040

--------------------------------------
01000044:  	00100793    	ADDI   x15, x0, 12
Insns: 00000000000100000000011110010011 at PC_x=01000044

--------------------------------------
01000048:  	00e7c663    	BLT    x15, x14, 1000049

--------------------------------------
01000054:  	00c12783    	LW     x15, 12(x2)
Insns: 00000000110000010010011110000011 at PC_x=01000054

--------------------------------------
01000058:  	fff78793    	ADDI   x15, x15, 12
Insns: 11111111111101111000011110010011 at PC_x=01000058

--------------------------------------
0100005c:  	00078513    	ADDI   x10, x15, 4294967295
Insns: 00000000000001111000010100010011 at PC_x=0100005c

--------------------------------------
01000060:  	fd1ff0ef    	JAL    x1, 1000060

--------------------------------------
01000030:  	fe010113    	ADDI   x2, x2, 4294967249
Insns: 11111110000000010000000100010011 at PC_x=01000030

--------------------------------------
01000034:  	00112e23    	SW     x1, 4294967264(x2)

--------------------------------------
01000038:  	00812c23    	SW     x8, 28(x2)

--------------------------------------
0100003c:  	00a12623    	SW     x10, 24(x2)

--------------------------------------
01000040:  	00c12703    	LW     x14, 12(x2)
Insns: 00000000110000010010011100000011 at PC_x=01000040

--------------------------------------
01000044:  	00100793    	ADDI   x15, x0, 12
Insns: 00000000000100000000011110010011 at PC_x=01000044

--------------------------------------
01000048:  	00e7c663    	BLT    x15, x14, 1000049

--------------------------------------
01000054:  	00c12783    	LW     x15, 12(x2)
Insns: 00000000110000010010011110000011 at PC_x=01000054

--------------------------------------
01000058:  	fff78793    	ADDI   x15, x15, 12
Insns: 11111111111101111000011110010011 at PC_x=01000058

--------------------------------------
0100005c:  	00078513    	ADDI   x10, x15, 4294967295
Insns: 00000000000001111000010100010011 at PC_x=0100005c

--------------------------------------
01000060:  	fd1ff0ef    	JAL    x1, 1000060

--------------------------------------
01000030:  	fe010113    	ADDI   x2, x2, 4294967248
Insns: 11111110000000010000000100010011 at PC_x=01000030

--------------------------------------
01000034:  	00112e23    	SW     x1, 4294967264(x2)

--------------------------------------
01000038:  	00812c23    	SW     x8, 28(x2)

--------------------------------------
0100003c:  	00a12623    	SW     x10, 24(x2)

--------------------------------------
01000040:  	00c12703    	LW     x14, 12(x2)
Insns: 00000000110000010010011100000011 at PC_x=01000040

--------------------------------------
01000044:  	00100793    	ADDI   x15, x0, 12
Insns: 00000000000100000000011110010011 at PC_x=01000044

--------------------------------------
01000048:  	00e7c663    	BLT    x15, x14, 1000049

--------------------------------------
01000054:  	00c12783    	LW     x15, 12(x2)
Insns: 00000000110000010010011110000011 at PC_x=01000054

--------------------------------------
01000058:  	fff78793    	ADDI   x15, x15, 12
Insns: 11111111111101111000011110010011 at PC_x=01000058

--------------------------------------
0100005c:  	00078513    	ADDI   x10, x15, 4294967295
Insns: 00000000000001111000010100010011 at PC_x=0100005c

--------------------------------------
01000060:  	fd1ff0ef    	JAL    x1, 1000060

--------------------------------------
01000030:  	fe010113    	ADDI   x2, x2, 4294967249
Insns: 11111110000000010000000100010011 at PC_x=01000030

--------------------------------------
01000034:  	00112e23    	SW     x1, 4294967264(x2)

--------------------------------------
01000038:  	00812c23    	SW     x8, 28(x2)

--------------------------------------
0100003c:  	00a12623    	SW     x10, 24(x2)

--------------------------------------
01000040:  	00c12703    	LW     x14, 12(x2)
Insns: 00000000110000010010011100000011 at PC_x=01000040

--------------------------------------
01000044:  	00100793    	ADDI   x15, x0, 12
Insns: 00000000000100000000011110010011 at PC_x=01000044

--------------------------------------
01000048:  	00e7c663    	BLT    x15, x14, 1000049

--------------------------------------
0100004c:  	00c12783    	LW     x15, 12(x2)
Insns: 00000000110000010010011110000011 at PC_x=0100004c

--------------------------------------
01000050:  	0300006f    	JAL    x0, 100005c

--------------------------------------
01000080:  	00078513    	ADDI   x10, x15, 48
Insns: 00000000000001111000010100010011 at PC_x=01000080

--------------------------------------
01000084:  	01c12083    	LW     x1, 0(x2)
Insns: 00000001110000010010000010000011 at PC_x=01000084

--------------------------------------
01000088:  	01812403    	LW     x8, 28(x2)
Insns: 00000001100000010010010000000011 at PC_x=01000088

--------------------------------------
0100008c:  	02010113    	ADDI   x2, x2, 24
Insns: 00000010000000010000000100010011 at PC_x=0100008c

--------------------------------------
01000090:  	00008067    	JALR   x0, 32(x1)
Insns: 00000000000000001000000001100111 at PC_x=01000090

--------------------------------------
01000064:  	00050413    	ADDI   x8, x10, 0
Insns: 00000000000001010000010000010011 at PC_x=01000064

--------------------------------------
01000068:  	00c12783    	LW     x15, 0(x2)
Insns: 00000000110000010010011110000011 at PC_x=01000068

--------------------------------------
0100006c:  	ffe78793    	ADDI   x15, x15, 12
Insns: 11111111111001111000011110010011 at PC_x=0100006c

--------------------------------------
01000070:  	00078513    	ADDI   x10, x15, 4294967294
Insns: 00000000000001111000010100010011 at PC_x=01000070

--------------------------------------
01000074:  	fbdff0ef    	JAL    x1, 1000074

--------------------------------------
01000030:  	fe010113    	ADDI   x2, x2, 4294967228
Insns: 11111110000000010000000100010011 at PC_x=01000030

--------------------------------------
01000034:  	00112e23    	SW     x1, 4294967264(x2)

--------------------------------------
01000038:  	00812c23    	SW     x8, 28(x2)

--------------------------------------
0100003c:  	00a12623    	SW     x10, 24(x2)

--------------------------------------
01000040:  	00c12703    	LW     x14, 12(x2)
Insns: 00000000110000010010011100000011 at PC_x=01000040

--------------------------------------
01000044:  	00100793    	ADDI   x15, x0, 12
Insns: 00000000000100000000011110010011 at PC_x=01000044

--------------------------------------
01000048:  	00e7c663    	BLT    x15, x14, 1000049

--------------------------------------
0100004c:  	00c12783    	LW     x15, 12(x2)
Insns: 00000000110000010010011110000011 at PC_x=0100004c

--------------------------------------
01000050:  	0300006f    	JAL    x0, 100005c

--------------------------------------
01000080:  	00078513    	ADDI   x10, x15, 48
Insns: 00000000000001111000010100010011 at PC_x=01000080

--------------------------------------
01000084:  	01c12083    	LW     x1, 0(x2)
Insns: 00000001110000010010000010000011 at PC_x=01000084

--------------------------------------
01000088:  	01812403    	LW     x8, 28(x2)
Insns: 00000001100000010010010000000011 at PC_x=01000088

--------------------------------------
0100008c:  	02010113    	ADDI   x2, x2, 24
Insns: 00000010000000010000000100010011 at PC_x=0100008c

--------------------------------------
01000090:  	00008067    	JALR   x0, 32(x1)
Insns: 00000000000000001000000001100111 at PC_x=01000090

--------------------------------------
01000078:  	00050793    	ADDI   x15, x10, 0
Insns: 00000000000001010000011110010011 at PC_x=01000078

--------------------------------------
0100007c:  	00f407b3    	ADD    x15, x8, x15

--------------------------------------
01000080:  	00078513    	ADDI   x10, x15, 0
Insns: 00000000000001111000010100010011 at PC_x=01000080

--------------------------------------
01000084:  	01c12083    	LW     x1, 0(x2)
Insns: 00000001110000010010000010000011 at PC_x=01000084

--------------------------------------
01000088:  	01812403    	LW     x8, 28(x2)
Insns: 00000001100000010010010000000011 at PC_x=01000088

--------------------------------------
0100008c:  	02010113    	ADDI   x2, x2, 24
Insns: 00000010000000010000000100010011 at PC_x=0100008c

--------------------------------------
01000090:  	00008067    	JALR   x0, 32(x1)
Insns: 00000000000000001000000001100111 at PC_x=01000090

--------------------------------------
01000064:  	00050413    	ADDI   x8, x10, 0
Insns: 00000000000001010000010000010011 at PC_x=01000064

--------------------------------------
01000068:  	00c12783    	LW     x15, 0(x2)
Insns: 00000000110000010010011110000011 at PC_x=01000068

--------------------------------------
0100006c:  	ffe78793    	ADDI   x15, x15, 12
Insns: 11111111111001111000011110010011 at PC_x=0100006c

--------------------------------------
01000070:  	00078513    	ADDI   x10, x15, 4294967294
Insns: 00000000000001111000010100010011 at PC_x=01000070

--------------------------------------
01000074:  	fbdff0ef    	JAL    x1, 1000074

--------------------------------------
01000030:  	fe010113    	ADDI   x2, x2, 4294967228
Insns: 11111110000000010000000100010011 at PC_x=01000030

--------------------------------------
01000034:  	00112e23    	SW     x1, 4294967264(x2)

--------------------------------------
01000038:  	00812c23    	SW     x8, 28(x2)

--------------------------------------
0100003c:  	00a12623    	SW     x10, 24(x2)

--------------------------------------
01000040:  	00c12703    	LW     x14, 12(x2)
Insns: 00000000110000010010011100000011 at PC_x=01000040

--------------------------------------
01000044:  	00100793    	ADDI   x15, x0, 12
Insns: 00000000000100000000011110010011 at PC_x=01000044

--------------------------------------
01000048:  	00e7c663    	BLT    x15, x14, 1000049

--------------------------------------
0100004c:  	00c12783    	LW     x15, 12(x2)
Insns: 00000000110000010010011110000011 at PC_x=0100004c

--------------------------------------
01000050:  	0300006f    	JAL    x0, 100005c

--------------------------------------
01000080:  	00078513    	ADDI   x10, x15, 48
Insns: 00000000000001111000010100010011 at PC_x=01000080

--------------------------------------
01000084:  	01c12083    	LW     x1, 0(x2)
Insns: 00000001110000010010000010000011 at PC_x=01000084

--------------------------------------
01000088:  	01812403    	LW     x8, 28(x2)
Insns: 00000001100000010010010000000011 at PC_x=01000088

--------------------------------------
0100008c:  	02010113    	ADDI   x2, x2, 24
Insns: 00000010000000010000000100010011 at PC_x=0100008c

--------------------------------------
01000090:  	00008067    	JALR   x0, 32(x1)
Insns: 00000000000000001000000001100111 at PC_x=01000090

--------------------------------------
01000078:  	00050793    	ADDI   x15, x10, 0
Insns: 00000000000001010000011110010011 at PC_x=01000078

--------------------------------------
0100007c:  	00f407b3    	ADD    x15, x8, x15

--------------------------------------
01000080:  	00078513    	ADDI   x10, x15, 0
Insns: 00000000000001111000010100010011 at PC_x=01000080

--------------------------------------
01000084:  	01c12083    	LW     x1, 0(x2)
Insns: 00000001110000010010000010000011 at PC_x=01000084

--------------------------------------
01000088:  	01812403    	LW     x8, 28(x2)
Insns: 00000001100000010010010000000011 at PC_x=01000088

--------------------------------------
0100008c:  	02010113    	ADDI   x2, x2, 24
Insns: 00000010000000010000000100010011 at PC_x=0100008c

--------------------------------------
01000090:  	00008067    	JALR   x0, 32(x1)
Insns: 00000000000000001000000001100111 at PC_x=01000090

--------------------------------------
01000064:  	00050413    	ADDI   x8, x10, 0
Insns: 00000000000001010000010000010011 at PC_x=01000064

--------------------------------------
01000068:  	00c12783    	LW     x15, 0(x2)
Insns: 00000000110000010010011110000011 at PC_x=01000068

--------------------------------------
0100006c:  	ffe78793    	ADDI   x15, x15, 12
Insns: 11111111111001111000011110010011 at PC_x=0100006c

--------------------------------------
01000070:  	00078513    	ADDI   x10, x15, 4294967294
Insns: 00000000000001111000010100010011 at PC_x=01000070

--------------------------------------
01000074:  	fbdff0ef    	JAL    x1, 1000074

--------------------------------------
01000030:  	fe010113    	ADDI   x2, x2, 4294967228
Insns: 11111110000000010000000100010011 at PC_x=01000030

--------------------------------------
01000034:  	00112e23    	SW     x1, 4294967264(x2)

--------------------------------------
01000038:  	00812c23    	SW     x8, 28(x2)

--------------------------------------
0100003c:  	00a12623    	SW     x10, 24(x2)

--------------------------------------
01000040:  	00c12703    	LW     x14, 12(x2)
Insns: 00000000110000010010011100000011 at PC_x=01000040

--------------------------------------
01000044:  	00100793    	ADDI   x15, x0, 12
Insns: 00000000000100000000011110010011 at PC_x=01000044

--------------------------------------
01000048:  	00e7c663    	BLT    x15, x14, 1000049

--------------------------------------
01000054:  	00c12783    	LW     x15, 12(x2)
Insns: 00000000110000010010011110000011 at PC_x=01000054

--------------------------------------
01000058:  	fff78793    	ADDI   x15, x15, 12
Insns: 11111111111101111000011110010011 at PC_x=01000058

--------------------------------------
0100005c:  	00078513    	ADDI   x10, x15, 4294967295
Insns: 00000000000001111000010100010011 at PC_x=0100005c

--------------------------------------
01000060:  	fd1ff0ef    	JAL    x1, 1000060

--------------------------------------
01000030:  	fe010113    	ADDI   x2, x2, 4294967249
Insns: 11111110000000010000000100010011 at PC_x=01000030

--------------------------------------
01000034:  	00112e23    	SW     x1, 4294967264(x2)

--------------------------------------
01000038:  	00812c23    	SW     x8, 28(x2)

--------------------------------------
0100003c:  	00a12623    	SW     x10, 24(x2)

--------------------------------------
01000040:  	00c12703    	LW     x14, 12(x2)
Insns: 00000000110000010010011100000011 at PC_x=01000040

--------------------------------------
01000044:  	00100793    	ADDI   x15, x0, 12
Insns: 00000000000100000000011110010011 at PC_x=01000044

--------------------------------------
01000048:  	00e7c663    	BLT    x15, x14, 1000049

--------------------------------------
0100004c:  	00c12783    	LW     x15, 12(x2)
Insns: 00000000110000010010011110000011 at PC_x=0100004c

--------------------------------------
01000050:  	0300006f    	JAL    x0, 100005c

--------------------------------------
01000080:  	00078513    	ADDI   x10, x15, 48
Insns: 00000000000001111000010100010011 at PC_x=01000080

--------------------------------------
01000084:  	01c12083    	LW     x1, 0(x2)
Insns: 00000001110000010010000010000011 at PC_x=01000084

--------------------------------------
01000088:  	01812403    	LW     x8, 28(x2)
Insns: 00000001100000010010010000000011 at PC_x=01000088

--------------------------------------
0100008c:  	02010113    	ADDI   x2, x2, 24
Insns: 00000010000000010000000100010011 at PC_x=0100008c

--------------------------------------
01000090:  	00008067    	JALR   x0, 32(x1)
Insns: 00000000000000001000000001100111 at PC_x=01000090

--------------------------------------
01000064:  	00050413    	ADDI   x8, x10, 0
Insns: 00000000000001010000010000010011 at PC_x=01000064

--------------------------------------
01000068:  	00c12783    	LW     x15, 0(x2)
Insns: 00000000110000010010011110000011 at PC_x=01000068

--------------------------------------
0100006c:  	ffe78793    	ADDI   x15, x15, 12
Insns: 11111111111001111000011110010011 at PC_x=0100006c

--------------------------------------
01000070:  	00078513    	ADDI   x10, x15, 4294967294
Insns: 00000000000001111000010100010011 at PC_x=01000070

--------------------------------------
01000074:  	fbdff0ef    	JAL    x1, 1000074

--------------------------------------
01000030:  	fe010113    	ADDI   x2, x2, 4294967228
Insns: 11111110000000010000000100010011 at PC_x=01000030

--------------------------------------
01000034:  	00112e23    	SW     x1, 4294967264(x2)

--------------------------------------
01000038:  	00812c23    	SW     x8, 28(x2)

--------------------------------------
0100003c:  	00a12623    	SW     x10, 24(x2)

--------------------------------------
01000040:  	00c12703    	LW     x14, 12(x2)
Insns: 00000000110000010010011100000011 at PC_x=01000040

--------------------------------------
01000044:  	00100793    	ADDI   x15, x0, 12
Insns: 00000000000100000000011110010011 at PC_x=01000044

--------------------------------------
01000048:  	00e7c663    	BLT    x15, x14, 1000049

--------------------------------------
0100004c:  	00c12783    	LW     x15, 12(x2)
Insns: 00000000110000010010011110000011 at PC_x=0100004c

--------------------------------------
01000050:  	0300006f    	JAL    x0, 100005c

--------------------------------------
01000080:  	00078513    	ADDI   x10, x15, 48
Insns: 00000000000001111000010100010011 at PC_x=01000080

--------------------------------------
01000084:  	01c12083    	LW     x1, 0(x2)
Insns: 00000001110000010010000010000011 at PC_x=01000084

--------------------------------------
01000088:  	01812403    	LW     x8, 28(x2)
Insns: 00000001100000010010010000000011 at PC_x=01000088

--------------------------------------
0100008c:  	02010113    	ADDI   x2, x2, 24
Insns: 00000010000000010000000100010011 at PC_x=0100008c

--------------------------------------
01000090:  	00008067    	JALR   x0, 32(x1)
Insns: 00000000000000001000000001100111 at PC_x=01000090

--------------------------------------
01000078:  	00050793    	ADDI   x15, x10, 0
Insns: 00000000000001010000011110010011 at PC_x=01000078

--------------------------------------
0100007c:  	00f407b3    	ADD    x15, x8, x15

--------------------------------------
01000080:  	00078513    	ADDI   x10, x15, 0
Insns: 00000000000001111000010100010011 at PC_x=01000080

--------------------------------------
01000084:  	01c12083    	LW     x1, 0(x2)
Insns: 00000001110000010010000010000011 at PC_x=01000084

--------------------------------------
01000088:  	01812403    	LW     x8, 28(x2)
Insns: 00000001100000010010010000000011 at PC_x=01000088

--------------------------------------
0100008c:  	02010113    	ADDI   x2, x2, 24
Insns: 00000010000000010000000100010011 at PC_x=0100008c

--------------------------------------
01000090:  	00008067    	JALR   x0, 32(x1)
Insns: 00000000000000001000000001100111 at PC_x=01000090

--------------------------------------
01000078:  	00050793    	ADDI   x15, x10, 0
Insns: 00000000000001010000011110010011 at PC_x=01000078

--------------------------------------
0100007c:  	00f407b3    	ADD    x15, x8, x15

--------------------------------------
01000080:  	00078513    	ADDI   x10, x15, 15
Insns: 00000000000001111000010100010011 at PC_x=01000080

--------------------------------------
01000084:  	01c12083    	LW     x1, 0(x2)
Insns: 00000001110000010010000010000011 at PC_x=01000084

--------------------------------------
01000088:  	01812403    	LW     x8, 28(x2)
Insns: 00000001100000010010010000000011 at PC_x=01000088

--------------------------------------
0100008c:  	02010113    	ADDI   x2, x2, 24
Insns: 00000010000000010000000100010011 at PC_x=0100008c

--------------------------------------
01000090:  	00008067    	JALR   x0, 32(x1)
Insns: 00000000000000001000000001100111 at PC_x=01000090

--------------------------------------
01000078:  	00050793    	ADDI   x15, x10, 0
Insns: 00000000000001010000011110010011 at PC_x=01000078

--------------------------------------
0100007c:  	00f407b3    	ADD    x15, x8, x15

--------------------------------------
01000080:  	00078513    	ADDI   x10, x15, 0
Insns: 00000000000001111000010100010011 at PC_x=01000080

--------------------------------------
01000084:  	01c12083    	LW     x1, 0(x2)
Insns: 00000001110000010010000010000011 at PC_x=01000084

--------------------------------------
01000088:  	01812403    	LW     x8, 28(x2)
Insns: 00000001100000010010010000000011 at PC_x=01000088

--------------------------------------
0100008c:  	02010113    	ADDI   x2, x2, 24
Insns: 00000010000000010000000100010011 at PC_x=0100008c

--------------------------------------
01000090:  	00008067    	JALR   x0, 32(x1)
Insns: 00000000000000001000000001100111 at PC_x=01000090

--------------------------------------
01000064:  	00050413    	ADDI   x8, x10, 0
Insns: 00000000000001010000010000010011 at PC_x=01000064

--------------------------------------
01000068:  	00c12783    	LW     x15, 0(x2)
Insns: 00000000110000010010011110000011 at PC_x=01000068

--------------------------------------
0100006c:  	ffe78793    	ADDI   x15, x15, 12
Insns: 11111111111001111000011110010011 at PC_x=0100006c

--------------------------------------
01000070:  	00078513    	ADDI   x10, x15, 4294967294
Insns: 00000000000001111000010100010011 at PC_x=01000070

--------------------------------------
01000074:  	fbdff0ef    	JAL    x1, 1000074

--------------------------------------
01000030:  	fe010113    	ADDI   x2, x2, 4294967228
Insns: 11111110000000010000000100010011 at PC_x=01000030

--------------------------------------
01000034:  	00112e23    	SW     x1, 4294967264(x2)

--------------------------------------
01000038:  	00812c23    	SW     x8, 28(x2)

--------------------------------------
0100003c:  	00a12623    	SW     x10, 24(x2)

--------------------------------------
01000040:  	00c12703    	LW     x14, 12(x2)
Insns: 00000000110000010010011100000011 at PC_x=01000040

--------------------------------------
01000044:  	00100793    	ADDI   x15, x0, 12
Insns: 00000000000100000000011110010011 at PC_x=01000044

--------------------------------------
01000048:  	00e7c663    	BLT    x15, x14, 1000049

--------------------------------------
01000054:  	00c12783    	LW     x15, 12(x2)
Insns: 00000000110000010010011110000011 at PC_x=01000054

--------------------------------------
01000058:  	fff78793    	ADDI   x15, x15, 12
Insns: 11111111111101111000011110010011 at PC_x=01000058

--------------------------------------
0100005c:  	00078513    	ADDI   x10, x15, 4294967295
Insns: 00000000000001111000010100010011 at PC_x=0100005c

--------------------------------------
01000060:  	fd1ff0ef    	JAL    x1, 1000060

--------------------------------------
01000030:  	fe010113    	ADDI   x2, x2, 4294967249
Insns: 11111110000000010000000100010011 at PC_x=01000030

--------------------------------------
01000034:  	00112e23    	SW     x1, 4294967264(x2)

--------------------------------------
01000038:  	00812c23    	SW     x8, 28(x2)

--------------------------------------
0100003c:  	00a12623    	SW     x10, 24(x2)

--------------------------------------
01000040:  	00c12703    	LW     x14, 12(x2)
Insns: 00000000110000010010011100000011 at PC_x=01000040

--------------------------------------
01000044:  	00100793    	ADDI   x15, x0, 12
Insns: 00000000000100000000011110010011 at PC_x=01000044

--------------------------------------
01000048:  	00e7c663    	BLT    x15, x14, 1000049

--------------------------------------
01000054:  	00c12783    	LW     x15, 12(x2)
Insns: 00000000110000010010011110000011 at PC_x=01000054

--------------------------------------
01000058:  	fff78793    	ADDI   x15, x15, 12
Insns: 11111111111101111000011110010011 at PC_x=01000058

--------------------------------------
0100005c:  	00078513    	ADDI   x10, x15, 4294967295
Insns: 00000000000001111000010100010011 at PC_x=0100005c

--------------------------------------
01000060:  	fd1ff0ef    	JAL    x1, 1000060

--------------------------------------
01000030:  	fe010113    	ADDI   x2, x2, 4294967248
Insns: 11111110000000010000000100010011 at PC_x=01000030

--------------------------------------
01000034:  	00112e23    	SW     x1, 4294967264(x2)

--------------------------------------
01000038:  	00812c23    	SW     x8, 28(x2)

--------------------------------------
0100003c:  	00a12623    	SW     x10, 24(x2)

--------------------------------------
01000040:  	00c12703    	LW     x14, 12(x2)
Insns: 00000000110000010010011100000011 at PC_x=01000040

--------------------------------------
01000044:  	00100793    	ADDI   x15, x0, 12
Insns: 00000000000100000000011110010011 at PC_x=01000044

--------------------------------------
01000048:  	00e7c663    	BLT    x15, x14, 1000049

--------------------------------------
01000054:  	00c12783    	LW     x15, 12(x2)
Insns: 00000000110000010010011110000011 at PC_x=01000054

--------------------------------------
01000058:  	fff78793    	ADDI   x15, x15, 12
Insns: 11111111111101111000011110010011 at PC_x=01000058

--------------------------------------
0100005c:  	00078513    	ADDI   x10, x15, 4294967295
Insns: 00000000000001111000010100010011 at PC_x=0100005c

--------------------------------------
01000060:  	fd1ff0ef    	JAL    x1, 1000060

--------------------------------------
01000030:  	fe010113    	ADDI   x2, x2, 4294967249
Insns: 11111110000000010000000100010011 at PC_x=01000030

--------------------------------------
01000034:  	00112e23    	SW     x1, 4294967264(x2)

--------------------------------------
01000038:  	00812c23    	SW     x8, 28(x2)

--------------------------------------
0100003c:  	00a12623    	SW     x10, 24(x2)

--------------------------------------
01000040:  	00c12703    	LW     x14, 12(x2)
Insns: 00000000110000010010011100000011 at PC_x=01000040

--------------------------------------
01000044:  	00100793    	ADDI   x15, x0, 12
Insns: 00000000000100000000011110010011 at PC_x=01000044

--------------------------------------
01000048:  	00e7c663    	BLT    x15, x14, 1000049

--------------------------------------
01000054:  	00c12783    	LW     x15, 12(x2)
Insns: 00000000110000010010011110000011 at PC_x=01000054

--------------------------------------
01000058:  	fff78793    	ADDI   x15, x15, 12
Insns: 11111111111101111000011110010011 at PC_x=01000058

--------------------------------------
0100005c:  	00078513    	ADDI   x10, x15, 4294967295
Insns: 00000000000001111000010100010011 at PC_x=0100005c

--------------------------------------
01000060:  	fd1ff0ef    	JAL    x1, 1000060

--------------------------------------
01000030:  	fe010113    	ADDI   x2, x2, 4294967248
Insns: 11111110000000010000000100010011 at PC_x=01000030

--------------------------------------
01000034:  	00112e23    	SW     x1, 4294967264(x2)

--------------------------------------
01000038:  	00812c23    	SW     x8, 28(x2)

--------------------------------------
0100003c:  	00a12623    	SW     x10, 24(x2)

--------------------------------------
01000040:  	00c12703    	LW     x14, 12(x2)
Insns: 00000000110000010010011100000011 at PC_x=01000040

--------------------------------------
01000044:  	00100793    	ADDI   x15, x0, 12
Insns: 00000000000100000000011110010011 at PC_x=01000044

--------------------------------------
01000048:  	00e7c663    	BLT    x15, x14, 1000049

--------------------------------------
0100004c:  	00c12783    	LW     x15, 12(x2)
Insns: 00000000110000010010011110000011 at PC_x=0100004c

--------------------------------------
01000050:  	0300006f    	JAL    x0, 100005c

--------------------------------------
01000080:  	00078513    	ADDI   x10, x15, 48
Insns: 00000000000001111000010100010011 at PC_x=01000080

--------------------------------------
01000084:  	01c12083    	LW     x1, 0(x2)
Insns: 00000001110000010010000010000011 at PC_x=01000084

--------------------------------------
01000088:  	01812403    	LW     x8, 28(x2)
Insns: 00000001100000010010010000000011 at PC_x=01000088

--------------------------------------
0100008c:  	02010113    	ADDI   x2, x2, 24
Insns: 00000010000000010000000100010011 at PC_x=0100008c

--------------------------------------
01000090:  	00008067    	JALR   x0, 32(x1)
Insns: 00000000000000001000000001100111 at PC_x=01000090

--------------------------------------
01000064:  	00050413    	ADDI   x8, x10, 0
Insns: 00000000000001010000010000010011 at PC_x=01000064

--------------------------------------
01000068:  	00c12783    	LW     x15, 0(x2)
Insns: 00000000110000010010011110000011 at PC_x=01000068

--------------------------------------
0100006c:  	ffe78793    	ADDI   x15, x15, 12
Insns: 11111111111001111000011110010011 at PC_x=0100006c

--------------------------------------
01000070:  	00078513    	ADDI   x10, x15, 4294967294
Insns: 00000000000001111000010100010011 at PC_x=01000070

--------------------------------------
01000074:  	fbdff0ef    	JAL    x1, 1000074

--------------------------------------
01000030:  	fe010113    	ADDI   x2, x2, 4294967229
Insns: 11111110000000010000000100010011 at PC_x=01000030

--------------------------------------
01000034:  	00112e23    	SW     x1, 4294967264(x2)

--------------------------------------
01000038:  	00812c23    	SW     x8, 28(x2)

--------------------------------------
0100003c:  	00a12623    	SW     x10, 24(x2)

--------------------------------------
01000040:  	00c12703    	LW     x14, 12(x2)
Insns: 00000000110000010010011100000011 at PC_x=01000040

--------------------------------------
01000044:  	00100793    	ADDI   x15, x0, 12
Insns: 00000000000100000000011110010011 at PC_x=01000044

--------------------------------------
01000048:  	00e7c663    	BLT    x15, x14, 1000049

--------------------------------------
0100004c:  	00c12783    	LW     x15, 12(x2)
Insns: 00000000110000010010011110000011 at PC_x=0100004c

--------------------------------------
01000050:  	0300006f    	JAL    x0, 100005c

--------------------------------------
01000080:  	00078513    	ADDI   x10, x15, 48
Insns: 00000000000001111000010100010011 at PC_x=01000080

--------------------------------------
01000084:  	01c12083    	LW     x1, 0(x2)
Insns: 00000001110000010010000010000011 at PC_x=01000084

--------------------------------------
01000088:  	01812403    	LW     x8, 28(x2)
Insns: 00000001100000010010010000000011 at PC_x=01000088

--------------------------------------
0100008c:  	02010113    	ADDI   x2, x2, 24
Insns: 00000010000000010000000100010011 at PC_x=0100008c

--------------------------------------
01000090:  	00008067    	JALR   x0, 32(x1)
Insns: 00000000000000001000000001100111 at PC_x=01000090

--------------------------------------
01000078:  	00050793    	ADDI   x15, x10, 0
Insns: 00000000000001010000011110010011 at PC_x=01000078

--------------------------------------
0100007c:  	00f407b3    	ADD    x15, x8, x15

--------------------------------------
01000080:  	00078513    	ADDI   x10, x15, 15
Insns: 00000000000001111000010100010011 at PC_x=01000080

--------------------------------------
01000084:  	01c12083    	LW     x1, 0(x2)
Insns: 00000001110000010010000010000011 at PC_x=01000084

--------------------------------------
01000088:  	01812403    	LW     x8, 28(x2)
Insns: 00000001100000010010010000000011 at PC_x=01000088

--------------------------------------
0100008c:  	02010113    	ADDI   x2, x2, 24
Insns: 00000010000000010000000100010011 at PC_x=0100008c

--------------------------------------
01000090:  	00008067    	JALR   x0, 32(x1)
Insns: 00000000000000001000000001100111 at PC_x=01000090

--------------------------------------
01000064:  	00050413    	ADDI   x8, x10, 0
Insns: 00000000000001010000010000010011 at PC_x=01000064

--------------------------------------
01000068:  	00c12783    	LW     x15, 0(x2)
Insns: 00000000110000010010011110000011 at PC_x=01000068

--------------------------------------
0100006c:  	ffe78793    	ADDI   x15, x15, 12
Insns: 11111111111001111000011110010011 at PC_x=0100006c

--------------------------------------
01000070:  	00078513    	ADDI   x10, x15, 4294967294
Insns: 00000000000001111000010100010011 at PC_x=01000070

--------------------------------------
01000074:  	fbdff0ef    	JAL    x1, 1000074

--------------------------------------
01000030:  	fe010113    	ADDI   x2, x2, 4294967229
Insns: 11111110000000010000000100010011 at PC_x=01000030

--------------------------------------
01000034:  	00112e23    	SW     x1, 4294967264(x2)

--------------------------------------
01000038:  	00812c23    	SW     x8, 28(x2)

--------------------------------------
0100003c:  	00a12623    	SW     x10, 24(x2)

--------------------------------------
01000040:  	00c12703    	LW     x14, 12(x2)
Insns: 00000000110000010010011100000011 at PC_x=01000040

--------------------------------------
01000044:  	00100793    	ADDI   x15, x0, 12
Insns: 00000000000100000000011110010011 at PC_x=01000044

--------------------------------------
01000048:  	00e7c663    	BLT    x15, x14, 1000049

--------------------------------------
0100004c:  	00c12783    	LW     x15, 12(x2)
Insns: 00000000110000010010011110000011 at PC_x=0100004c

--------------------------------------
01000050:  	0300006f    	JAL    x0, 100005c

--------------------------------------
01000080:  	00078513    	ADDI   x10, x15, 48
Insns: 00000000000001111000010100010011 at PC_x=01000080

--------------------------------------
01000084:  	01c12083    	LW     x1, 0(x2)
Insns: 00000001110000010010000010000011 at PC_x=01000084

--------------------------------------
01000088:  	01812403    	LW     x8, 28(x2)
Insns: 00000001100000010010010000000011 at PC_x=01000088

--------------------------------------
0100008c:  	02010113    	ADDI   x2, x2, 24
Insns: 00000010000000010000000100010011 at PC_x=0100008c

--------------------------------------
01000090:  	00008067    	JALR   x0, 32(x1)
Insns: 00000000000000001000000001100111 at PC_x=01000090

--------------------------------------
01000078:  	00050793    	ADDI   x15, x10, 0
Insns: 00000000000001010000011110010011 at PC_x=01000078

--------------------------------------
0100007c:  	00f407b3    	ADD    x15, x8, x15

--------------------------------------
01000080:  	00078513    	ADDI   x10, x15, 15
Insns: 00000000000001111000010100010011 at PC_x=01000080

--------------------------------------
01000084:  	01c12083    	LW     x1, 0(x2)
Insns: 00000001110000010010000010000011 at PC_x=01000084

--------------------------------------
01000088:  	01812403    	LW     x8, 28(x2)
Insns: 00000001100000010010010000000011 at PC_x=01000088

--------------------------------------
0100008c:  	02010113    	ADDI   x2, x2, 24
Insns: 00000010000000010000000100010011 at PC_x=0100008c

--------------------------------------
01000090:  	00008067    	JALR   x0, 32(x1)
Insns: 00000000000000001000000001100111 at PC_x=01000090

--------------------------------------
01000064:  	00050413    	ADDI   x8, x10, 0
Insns: 00000000000001010000010000010011 at PC_x=01000064

--------------------------------------
01000068:  	00c12783    	LW     x15, 0(x2)
Insns: 00000000110000010010011110000011 at PC_x=01000068

--------------------------------------
0100006c:  	ffe78793    	ADDI   x15, x15, 12
Insns: 11111111111001111000011110010011 at PC_x=0100006c

--------------------------------------
01000070:  	00078513    	ADDI   x10, x15, 4294967294
Insns: 00000000000001111000010100010011 at PC_x=01000070

--------------------------------------
01000074:  	fbdff0ef    	JAL    x1, 1000074

--------------------------------------
01000030:  	fe010113    	ADDI   x2, x2, 4294967229
Insns: 11111110000000010000000100010011 at PC_x=01000030

--------------------------------------
01000034:  	00112e23    	SW     x1, 4294967264(x2)

--------------------------------------
01000038:  	00812c23    	SW     x8, 28(x2)

--------------------------------------
0100003c:  	00a12623    	SW     x10, 24(x2)

--------------------------------------
01000040:  	00c12703    	LW     x14, 12(x2)
Insns: 00000000110000010010011100000011 at PC_x=01000040

--------------------------------------
01000044:  	00100793    	ADDI   x15, x0, 12
Insns: 00000000000100000000011110010011 at PC_x=01000044

--------------------------------------
01000048:  	00e7c663    	BLT    x15, x14, 1000049

--------------------------------------
01000054:  	00c12783    	LW     x15, 12(x2)
Insns: 00000000110000010010011110000011 at PC_x=01000054

--------------------------------------
01000058:  	fff78793    	ADDI   x15, x15, 12
Insns: 11111111111101111000011110010011 at PC_x=01000058

--------------------------------------
0100005c:  	00078513    	ADDI   x10, x15, 4294967295
Insns: 00000000000001111000010100010011 at PC_x=0100005c

--------------------------------------
01000060:  	fd1ff0ef    	JAL    x1, 1000060

--------------------------------------
01000030:  	fe010113    	ADDI   x2, x2, 4294967248
Insns: 11111110000000010000000100010011 at PC_x=01000030

--------------------------------------
01000034:  	00112e23    	SW     x1, 4294967264(x2)

--------------------------------------
01000038:  	00812c23    	SW     x8, 28(x2)

--------------------------------------
0100003c:  	00a12623    	SW     x10, 24(x2)

--------------------------------------
01000040:  	00c12703    	LW     x14, 12(x2)
Insns: 00000000110000010010011100000011 at PC_x=01000040

--------------------------------------
01000044:  	00100793    	ADDI   x15, x0, 12
Insns: 00000000000100000000011110010011 at PC_x=01000044

--------------------------------------
01000048:  	00e7c663    	BLT    x15, x14, 1000049

--------------------------------------
0100004c:  	00c12783    	LW     x15, 12(x2)
Insns: 00000000110000010010011110000011 at PC_x=0100004c

--------------------------------------
01000050:  	0300006f    	JAL    x0, 100005c

--------------------------------------
01000080:  	00078513    	ADDI   x10, x15, 48
Insns: 00000000000001111000010100010011 at PC_x=01000080

--------------------------------------
01000084:  	01c12083    	LW     x1, 0(x2)
Insns: 00000001110000010010000010000011 at PC_x=01000084

--------------------------------------
01000088:  	01812403    	LW     x8, 28(x2)
Insns: 00000001100000010010010000000011 at PC_x=01000088

--------------------------------------
0100008c:  	02010113    	ADDI   x2, x2, 24
Insns: 00000010000000010000000100010011 at PC_x=0100008c

--------------------------------------
01000090:  	00008067    	JALR   x0, 32(x1)
Insns: 00000000000000001000000001100111 at PC_x=01000090

--------------------------------------
01000064:  	00050413    	ADDI   x8, x10, 0
Insns: 00000000000001010000010000010011 at PC_x=01000064

--------------------------------------
01000068:  	00c12783    	LW     x15, 0(x2)
Insns: 00000000110000010010011110000011 at PC_x=01000068

--------------------------------------
0100006c:  	ffe78793    	ADDI   x15, x15, 12
Insns: 11111111111001111000011110010011 at PC_x=0100006c

--------------------------------------
01000070:  	00078513    	ADDI   x10, x15, 4294967294
Insns: 00000000000001111000010100010011 at PC_x=01000070

--------------------------------------
01000074:  	fbdff0ef    	JAL    x1, 1000074

--------------------------------------
01000030:  	fe010113    	ADDI   x2, x2, 4294967229
Insns: 11111110000000010000000100010011 at PC_x=01000030

--------------------------------------
01000034:  	00112e23    	SW     x1, 4294967264(x2)

--------------------------------------
01000038:  	00812c23    	SW     x8, 28(x2)

--------------------------------------
0100003c:  	00a12623    	SW     x10, 24(x2)

--------------------------------------
01000040:  	00c12703    	LW     x14, 12(x2)
Insns: 00000000110000010010011100000011 at PC_x=01000040

--------------------------------------
01000044:  	00100793    	ADDI   x15, x0, 12
Insns: 00000000000100000000011110010011 at PC_x=01000044

--------------------------------------
01000048:  	00e7c663    	BLT    x15, x14, 1000049

--------------------------------------
0100004c:  	00c12783    	LW     x15, 12(x2)
Insns: 00000000110000010010011110000011 at PC_x=0100004c

--------------------------------------
01000050:  	0300006f    	JAL    x0, 100005c

--------------------------------------
01000080:  	00078513    	ADDI   x10, x15, 48
Insns: 00000000000001111000010100010011 at PC_x=01000080

--------------------------------------
01000084:  	01c12083    	LW     x1, 0(x2)
Insns: 00000001110000010010000010000011 at PC_x=01000084

--------------------------------------
01000088:  	01812403    	LW     x8, 28(x2)
Insns: 00000001100000010010010000000011 at PC_x=01000088

--------------------------------------
0100008c:  	02010113    	ADDI   x2, x2, 24
Insns: 00000010000000010000000100010011 at PC_x=0100008c

--------------------------------------
01000090:  	00008067    	JALR   x0, 32(x1)
Insns: 00000000000000001000000001100111 at PC_x=01000090

--------------------------------------
01000078:  	00050793    	ADDI   x15, x10, 0
Insns: 00000000000001010000011110010011 at PC_x=01000078

--------------------------------------
0100007c:  	00f407b3    	ADD    x15, x8, x15

--------------------------------------
01000080:  	00078513    	ADDI   x10, x15, 15
Insns: 00000000000001111000010100010011 at PC_x=01000080

--------------------------------------
01000084:  	01c12083    	LW     x1, 0(x2)
Insns: 00000001110000010010000010000011 at PC_x=01000084

--------------------------------------
01000088:  	01812403    	LW     x8, 28(x2)
Insns: 00000001100000010010010000000011 at PC_x=01000088

--------------------------------------
0100008c:  	02010113    	ADDI   x2, x2, 24
Insns: 00000010000000010000000100010011 at PC_x=0100008c

--------------------------------------
01000090:  	00008067    	JALR   x0, 32(x1)
Insns: 00000000000000001000000001100111 at PC_x=01000090

--------------------------------------
01000078:  	00050793    	ADDI   x15, x10, 0
Insns: 00000000000001010000011110010011 at PC_x=01000078

--------------------------------------
0100007c:  	00f407b3    	ADD    x15, x8, x15

--------------------------------------
01000080:  	00078513    	ADDI   x10, x15, 0
Insns: 00000000000001111000010100010011 at PC_x=01000080

--------------------------------------
01000084:  	01c12083    	LW     x1, 0(x2)
Insns: 00000001110000010010000010000011 at PC_x=01000084

--------------------------------------
01000088:  	01812403    	LW     x8, 28(x2)
Insns: 00000001100000010010010000000011 at PC_x=01000088

--------------------------------------
0100008c:  	02010113    	ADDI   x2, x2, 24
Insns: 00000010000000010000000100010011 at PC_x=0100008c

--------------------------------------
01000090:  	00008067    	JALR   x0, 32(x1)
Insns: 00000000000000001000000001100111 at PC_x=01000090

--------------------------------------
01000064:  	00050413    	ADDI   x8, x10, 0
Insns: 00000000000001010000010000010011 at PC_x=01000064

--------------------------------------
01000068:  	00c12783    	LW     x15, 0(x2)
Insns: 00000000110000010010011110000011 at PC_x=01000068

--------------------------------------
0100006c:  	ffe78793    	ADDI   x15, x15, 12
Insns: 11111111111001111000011110010011 at PC_x=0100006c

--------------------------------------
01000070:  	00078513    	ADDI   x10, x15, 4294967294
Insns: 00000000000001111000010100010011 at PC_x=01000070

--------------------------------------
01000074:  	fbdff0ef    	JAL    x1, 1000074

--------------------------------------
01000030:  	fe010113    	ADDI   x2, x2, 4294967228
Insns: 11111110000000010000000100010011 at PC_x=01000030

--------------------------------------
01000034:  	00112e23    	SW     x1, 4294967264(x2)

--------------------------------------
01000038:  	00812c23    	SW     x8, 28(x2)

--------------------------------------
0100003c:  	00a12623    	SW     x10, 24(x2)

--------------------------------------
01000040:  	00c12703    	LW     x14, 12(x2)
Insns: 00000000110000010010011100000011 at PC_x=01000040

--------------------------------------
01000044:  	00100793    	ADDI   x15, x0, 12
Insns: 00000000000100000000011110010011 at PC_x=01000044

--------------------------------------
01000048:  	00e7c663    	BLT    x15, x14, 1000049

--------------------------------------
01000054:  	00c12783    	LW     x15, 12(x2)
Insns: 00000000110000010010011110000011 at PC_x=01000054

--------------------------------------
01000058:  	fff78793    	ADDI   x15, x15, 12
Insns: 11111111111101111000011110010011 at PC_x=01000058

--------------------------------------
0100005c:  	00078513    	ADDI   x10, x15, 4294967295
Insns: 00000000000001111000010100010011 at PC_x=0100005c

--------------------------------------
01000060:  	fd1ff0ef    	JAL    x1, 1000060

--------------------------------------
01000030:  	fe010113    	ADDI   x2, x2, 4294967249
Insns: 11111110000000010000000100010011 at PC_x=01000030

--------------------------------------
01000034:  	00112e23    	SW     x1, 4294967264(x2)

--------------------------------------
01000038:  	00812c23    	SW     x8, 28(x2)

--------------------------------------
0100003c:  	00a12623    	SW     x10, 24(x2)

--------------------------------------
01000040:  	00c12703    	LW     x14, 12(x2)
Insns: 00000000110000010010011100000011 at PC_x=01000040

--------------------------------------
01000044:  	00100793    	ADDI   x15, x0, 12
Insns: 00000000000100000000011110010011 at PC_x=01000044

--------------------------------------
01000048:  	00e7c663    	BLT    x15, x14, 1000049

--------------------------------------
01000054:  	00c12783    	LW     x15, 12(x2)
Insns: 00000000110000010010011110000011 at PC_x=01000054

--------------------------------------
01000058:  	fff78793    	ADDI   x15, x15, 12
Insns: 11111111111101111000011110010011 at PC_x=01000058

--------------------------------------
0100005c:  	00078513    	ADDI   x10, x15, 4294967295
Insns: 00000000000001111000010100010011 at PC_x=0100005c

--------------------------------------
01000060:  	fd1ff0ef    	JAL    x1, 1000060

--------------------------------------
01000030:  	fe010113    	ADDI   x2, x2, 4294967248
Insns: 11111110000000010000000100010011 at PC_x=01000030

--------------------------------------
01000034:  	00112e23    	SW     x1, 4294967264(x2)

--------------------------------------
01000038:  	00812c23    	SW     x8, 28(x2)

--------------------------------------
0100003c:  	00a12623    	SW     x10, 24(x2)

--------------------------------------
01000040:  	00c12703    	LW     x14, 12(x2)
Insns: 00000000110000010010011100000011 at PC_x=01000040

--------------------------------------
01000044:  	00100793    	ADDI   x15, x0, 12
Insns: 00000000000100000000011110010011 at PC_x=01000044

--------------------------------------
01000048:  	00e7c663    	BLT    x15, x14, 1000049

--------------------------------------
0100004c:  	00c12783    	LW     x15, 12(x2)
Insns: 00000000110000010010011110000011 at PC_x=0100004c

--------------------------------------
01000050:  	0300006f    	JAL    x0, 100005c

--------------------------------------
01000080:  	00078513    	ADDI   x10, x15, 48
Insns: 00000000000001111000010100010011 at PC_x=01000080

--------------------------------------
01000084:  	01c12083    	LW     x1, 0(x2)
Insns: 00000001110000010010000010000011 at PC_x=01000084

--------------------------------------
01000088:  	01812403    	LW     x8, 28(x2)
Insns: 00000001100000010010010000000011 at PC_x=01000088

--------------------------------------
0100008c:  	02010113    	ADDI   x2, x2, 24
Insns: 00000010000000010000000100010011 at PC_x=0100008c

--------------------------------------
01000090:  	00008067    	JALR   x0, 32(x1)
Insns: 00000000000000001000000001100111 at PC_x=01000090

--------------------------------------
01000064:  	00050413    	ADDI   x8, x10, 0
Insns: 00000000000001010000010000010011 at PC_x=01000064

--------------------------------------
01000068:  	00c12783    	LW     x15, 0(x2)
Insns: 00000000110000010010011110000011 at PC_x=01000068

--------------------------------------
0100006c:  	ffe78793    	ADDI   x15, x15, 12
Insns: 11111111111001111000011110010011 at PC_x=0100006c

--------------------------------------
01000070:  	00078513    	ADDI   x10, x15, 4294967294
Insns: 00000000000001111000010100010011 at PC_x=01000070

--------------------------------------
01000074:  	fbdff0ef    	JAL    x1, 1000074

--------------------------------------
01000030:  	fe010113    	ADDI   x2, x2, 4294967229
Insns: 11111110000000010000000100010011 at PC_x=01000030

--------------------------------------
01000034:  	00112e23    	SW     x1, 4294967264(x2)

--------------------------------------
01000038:  	00812c23    	SW     x8, 28(x2)

--------------------------------------
0100003c:  	00a12623    	SW     x10, 24(x2)

--------------------------------------
01000040:  	00c12703    	LW     x14, 12(x2)
Insns: 00000000110000010010011100000011 at PC_x=01000040

--------------------------------------
01000044:  	00100793    	ADDI   x15, x0, 12
Insns: 00000000000100000000011110010011 at PC_x=01000044

--------------------------------------
01000048:  	00e7c663    	BLT    x15, x14, 1000049

--------------------------------------
0100004c:  	00c12783    	LW     x15, 12(x2)
Insns: 00000000110000010010011110000011 at PC_x=0100004c

--------------------------------------
01000050:  	0300006f    	JAL    x0, 100005c

--------------------------------------
01000080:  	00078513    	ADDI   x10, x15, 48
Insns: 00000000000001111000010100010011 at PC_x=01000080

--------------------------------------
01000084:  	01c12083    	LW     x1, 0(x2)
Insns: 00000001110000010010000010000011 at PC_x=01000084

--------------------------------------
01000088:  	01812403    	LW     x8, 28(x2)
Insns: 00000001100000010010010000000011 at PC_x=01000088

--------------------------------------
0100008c:  	02010113    	ADDI   x2, x2, 24
Insns: 00000010000000010000000100010011 at PC_x=0100008c

--------------------------------------
01000090:  	00008067    	JALR   x0, 32(x1)
Insns: 00000000000000001000000001100111 at PC_x=01000090

--------------------------------------
01000078:  	00050793    	ADDI   x15, x10, 0
Insns: 00000000000001010000011110010011 at PC_x=01000078

--------------------------------------
0100007c:  	00f407b3    	ADD    x15, x8, x15

--------------------------------------
01000080:  	00078513    	ADDI   x10, x15, 15
Insns: 00000000000001111000010100010011 at PC_x=01000080

--------------------------------------
01000084:  	01c12083    	LW     x1, 0(x2)
Insns: 00000001110000010010000010000011 at PC_x=01000084

--------------------------------------
01000088:  	01812403    	LW     x8, 28(x2)
Insns: 00000001100000010010010000000011 at PC_x=01000088

--------------------------------------
0100008c:  	02010113    	ADDI   x2, x2, 24
Insns: 00000010000000010000000100010011 at PC_x=0100008c

--------------------------------------
01000090:  	00008067    	JALR   x0, 32(x1)
Insns: 00000000000000001000000001100111 at PC_x=01000090

--------------------------------------
01000064:  	00050413    	ADDI   x8, x10, 0
Insns: 00000000000001010000010000010011 at PC_x=01000064

--------------------------------------
01000068:  	00c12783    	LW     x15, 0(x2)
Insns: 00000000110000010010011110000011 at PC_x=01000068

--------------------------------------
0100006c:  	ffe78793    	ADDI   x15, x15, 12
Insns: 11111111111001111000011110010011 at PC_x=0100006c

--------------------------------------
01000070:  	00078513    	ADDI   x10, x15, 4294967294
Insns: 00000000000001111000010100010011 at PC_x=01000070

--------------------------------------
01000074:  	fbdff0ef    	JAL    x1, 1000074

--------------------------------------
01000030:  	fe010113    	ADDI   x2, x2, 4294967229
Insns: 11111110000000010000000100010011 at PC_x=01000030

--------------------------------------
01000034:  	00112e23    	SW     x1, 4294967264(x2)

--------------------------------------
01000038:  	00812c23    	SW     x8, 28(x2)

--------------------------------------
0100003c:  	00a12623    	SW     x10, 24(x2)

--------------------------------------
01000040:  	00c12703    	LW     x14, 12(x2)
Insns: 00000000110000010010011100000011 at PC_x=01000040

--------------------------------------
01000044:  	00100793    	ADDI   x15, x0, 12
Insns: 00000000000100000000011110010011 at PC_x=01000044

--------------------------------------
01000048:  	00e7c663    	BLT    x15, x14, 1000049

--------------------------------------
0100004c:  	00c12783    	LW     x15, 12(x2)
Insns: 00000000110000010010011110000011 at PC_x=0100004c

--------------------------------------
01000050:  	0300006f    	JAL    x0, 100005c

--------------------------------------
01000080:  	00078513    	ADDI   x10, x15, 48
Insns: 00000000000001111000010100010011 at PC_x=01000080

--------------------------------------
01000084:  	01c12083    	LW     x1, 0(x2)
Insns: 00000001110000010010000010000011 at PC_x=01000084

--------------------------------------
01000088:  	01812403    	LW     x8, 28(x2)
Insns: 00000001100000010010010000000011 at PC_x=01000088

--------------------------------------
0100008c:  	02010113    	ADDI   x2, x2, 24
Insns: 00000010000000010000000100010011 at PC_x=0100008c

--------------------------------------
01000090:  	00008067    	JALR   x0, 32(x1)
Insns: 00000000000000001000000001100111 at PC_x=01000090

--------------------------------------
01000078:  	00050793    	ADDI   x15, x10, 0
Insns: 00000000000001010000011110010011 at PC_x=01000078

--------------------------------------
0100007c:  	00f407b3    	ADD    x15, x8, x15

--------------------------------------
01000080:  	00078513    	ADDI   x10, x15, 15
Insns: 00000000000001111000010100010011 at PC_x=01000080

--------------------------------------
01000084:  	01c12083    	LW     x1, 0(x2)
Insns: 00000001110000010010000010000011 at PC_x=01000084

--------------------------------------
01000088:  	01812403    	LW     x8, 28(x2)
Insns: 00000001100000010010010000000011 at PC_x=01000088

--------------------------------------
0100008c:  	02010113    	ADDI   x2, x2, 24
Insns: 00000010000000010000000100010011 at PC_x=0100008c

--------------------------------------
01000090:  	00008067    	JALR   x0, 32(x1)
Insns: 00000000000000001000000001100111 at PC_x=01000090

--------------------------------------
01000078:  	00050793    	ADDI   x15, x10, 0
Insns: 00000000000001010000011110010011 at PC_x=01000078

--------------------------------------
0100007c:  	00f407b3    	ADD    x15, x8, x15

--------------------------------------
01000080:  	00078513    	ADDI   x10, x15, 0
Insns: 00000000000001111000010100010011 at PC_x=01000080

--------------------------------------
01000084:  	01c12083    	LW     x1, 0(x2)
Insns: 00000001110000010010000010000011 at PC_x=01000084

--------------------------------------
01000088:  	01812403    	LW     x8, 28(x2)
Insns: 00000001100000010010010000000011 at PC_x=01000088

--------------------------------------
0100008c:  	02010113    	ADDI   x2, x2, 24
Insns: 00000010000000010000000100010011 at PC_x=0100008c

--------------------------------------
01000090:  	00008067    	JALR   x0, 32(x1)
Insns: 00000000000000001000000001100111 at PC_x=01000090

--------------------------------------
01000078:  	00050793    	ADDI   x15, x10, 0
Insns: 00000000000001010000011110010011 at PC_x=01000078

--------------------------------------
0100007c:  	00f407b3    	ADD    x15, x8, x15

--------------------------------------
01000080:  	00078513    	ADDI   x10, x15, 15
Insns: 00000000000001111000010100010011 at PC_x=01000080

--------------------------------------
01000084:  	01c12083    	LW     x1, 0(x2)
Insns: 00000001110000010010000010000011 at PC_x=01000084

--------------------------------------
01000088:  	01812403    	LW     x8, 28(x2)
Insns: 00000001100000010010010000000011 at PC_x=01000088

--------------------------------------
0100008c:  	02010113    	ADDI   x2, x2, 24
Insns: 00000010000000010000000100010011 at PC_x=0100008c

--------------------------------------
01000090:  	00008067    	JALR   x0, 32(x1)
Insns: 00000000000000001000000001100111 at PC_x=01000090

--------------------------------------
01000064:  	00050413    	ADDI   x8, x10, 0
Insns: 00000000000001010000010000010011 at PC_x=01000064

--------------------------------------
01000068:  	00c12783    	LW     x15, 0(x2)
Insns: 00000000110000010010011110000011 at PC_x=01000068

--------------------------------------
0100006c:  	ffe78793    	ADDI   x15, x15, 12
Insns: 11111111111001111000011110010011 at PC_x=0100006c

--------------------------------------
01000070:  	00078513    	ADDI   x10, x15, 4294967294
Insns: 00000000000001111000010100010011 at PC_x=01000070

--------------------------------------
01000074:  	fbdff0ef    	JAL    x1, 1000074

--------------------------------------
01000030:  	fe010113    	ADDI   x2, x2, 4294967229
Insns: 11111110000000010000000100010011 at PC_x=01000030

--------------------------------------
01000034:  	00112e23    	SW     x1, 4294967264(x2)

--------------------------------------
01000038:  	00812c23    	SW     x8, 28(x2)

--------------------------------------
0100003c:  	00a12623    	SW     x10, 24(x2)

--------------------------------------
01000040:  	00c12703    	LW     x14, 12(x2)
Insns: 00000000110000010010011100000011 at PC_x=01000040

--------------------------------------
01000044:  	00100793    	ADDI   x15, x0, 12
Insns: 00000000000100000000011110010011 at PC_x=01000044

--------------------------------------
01000048:  	00e7c663    	BLT    x15, x14, 1000049

--------------------------------------
01000054:  	00c12783    	LW     x15, 12(x2)
Insns: 00000000110000010010011110000011 at PC_x=01000054

--------------------------------------
01000058:  	fff78793    	ADDI   x15, x15, 12
Insns: 11111111111101111000011110010011 at PC_x=01000058

--------------------------------------
0100005c:  	00078513    	ADDI   x10, x15, 4294967295
Insns: 00000000000001111000010100010011 at PC_x=0100005c

--------------------------------------
01000060:  	fd1ff0ef    	JAL    x1, 1000060

--------------------------------------
01000030:  	fe010113    	ADDI   x2, x2, 4294967248
Insns: 11111110000000010000000100010011 at PC_x=01000030

--------------------------------------
01000034:  	00112e23    	SW     x1, 4294967264(x2)

--------------------------------------
01000038:  	00812c23    	SW     x8, 28(x2)

--------------------------------------
0100003c:  	00a12623    	SW     x10, 24(x2)

--------------------------------------
01000040:  	00c12703    	LW     x14, 12(x2)
Insns: 00000000110000010010011100000011 at PC_x=01000040

--------------------------------------
01000044:  	00100793    	ADDI   x15, x0, 12
Insns: 00000000000100000000011110010011 at PC_x=01000044

--------------------------------------
01000048:  	00e7c663    	BLT    x15, x14, 1000049

--------------------------------------
01000054:  	00c12783    	LW     x15, 12(x2)
Insns: 00000000110000010010011110000011 at PC_x=01000054

--------------------------------------
01000058:  	fff78793    	ADDI   x15, x15, 12
Insns: 11111111111101111000011110010011 at PC_x=01000058

--------------------------------------
0100005c:  	00078513    	ADDI   x10, x15, 4294967295
Insns: 00000000000001111000010100010011 at PC_x=0100005c

--------------------------------------
01000060:  	fd1ff0ef    	JAL    x1, 1000060

--------------------------------------
01000030:  	fe010113    	ADDI   x2, x2, 4294967249
Insns: 11111110000000010000000100010011 at PC_x=01000030

--------------------------------------
01000034:  	00112e23    	SW     x1, 4294967264(x2)

--------------------------------------
01000038:  	00812c23    	SW     x8, 28(x2)

--------------------------------------
0100003c:  	00a12623    	SW     x10, 24(x2)

--------------------------------------
01000040:  	00c12703    	LW     x14, 12(x2)
Insns: 00000000110000010010011100000011 at PC_x=01000040

--------------------------------------
01000044:  	00100793    	ADDI   x15, x0, 12
Insns: 00000000000100000000011110010011 at PC_x=01000044

--------------------------------------
01000048:  	00e7c663    	BLT    x15, x14, 1000049

--------------------------------------
01000054:  	00c12783    	LW     x15, 12(x2)
Insns: 00000000110000010010011110000011 at PC_x=01000054

--------------------------------------
01000058:  	fff78793    	ADDI   x15, x15, 12
Insns: 11111111111101111000011110010011 at PC_x=01000058

--------------------------------------
0100005c:  	00078513    	ADDI   x10, x15, 4294967295
Insns: 00000000000001111000010100010011 at PC_x=0100005c

--------------------------------------
01000060:  	fd1ff0ef    	JAL    x1, 1000060

--------------------------------------
01000030:  	fe010113    	ADDI   x2, x2, 4294967248
Insns: 11111110000000010000000100010011 at PC_x=01000030

--------------------------------------
01000034:  	00112e23    	SW     x1, 4294967264(x2)

--------------------------------------
01000038:  	00812c23    	SW     x8, 28(x2)

--------------------------------------
0100003c:  	00a12623    	SW     x10, 24(x2)

--------------------------------------
01000040:  	00c12703    	LW     x14, 12(x2)
Insns: 00000000110000010010011100000011 at PC_x=01000040

--------------------------------------
01000044:  	00100793    	ADDI   x15, x0, 12
Insns: 00000000000100000000011110010011 at PC_x=01000044

--------------------------------------
01000048:  	00e7c663    	BLT    x15, x14, 1000049

--------------------------------------
01000054:  	00c12783    	LW     x15, 12(x2)
Insns: 00000000110000010010011110000011 at PC_x=01000054

--------------------------------------
01000058:  	fff78793    	ADDI   x15, x15, 12
Insns: 11111111111101111000011110010011 at PC_x=01000058

--------------------------------------
0100005c:  	00078513    	ADDI   x10, x15, 4294967295
Insns: 00000000000001111000010100010011 at PC_x=0100005c

--------------------------------------
01000060:  	fd1ff0ef    	JAL    x1, 1000060

--------------------------------------
01000030:  	fe010113    	ADDI   x2, x2, 4294967249
Insns: 11111110000000010000000100010011 at PC_x=01000030

--------------------------------------
01000034:  	00112e23    	SW     x1, 4294967264(x2)

--------------------------------------
01000038:  	00812c23    	SW     x8, 28(x2)

--------------------------------------
0100003c:  	00a12623    	SW     x10, 24(x2)

--------------------------------------
01000040:  	00c12703    	LW     x14, 12(x2)
Insns: 00000000110000010010011100000011 at PC_x=01000040

--------------------------------------
01000044:  	00100793    	ADDI   x15, x0, 12
Insns: 00000000000100000000011110010011 at PC_x=01000044

--------------------------------------
01000048:  	00e7c663    	BLT    x15, x14, 1000049

--------------------------------------
01000054:  	00c12783    	LW     x15, 12(x2)
Insns: 00000000110000010010011110000011 at PC_x=01000054

--------------------------------------
01000058:  	fff78793    	ADDI   x15, x15, 12
Insns: 11111111111101111000011110010011 at PC_x=01000058

--------------------------------------
0100005c:  	00078513    	ADDI   x10, x15, 4294967295
Insns: 00000000000001111000010100010011 at PC_x=0100005c

--------------------------------------
01000060:  	fd1ff0ef    	JAL    x1, 1000060

--------------------------------------
01000030:  	fe010113    	ADDI   x2, x2, 4294967248
Insns: 11111110000000010000000100010011 at PC_x=01000030

--------------------------------------
01000034:  	00112e23    	SW     x1, 4294967264(x2)

--------------------------------------
01000038:  	00812c23    	SW     x8, 28(x2)

--------------------------------------
0100003c:  	00a12623    	SW     x10, 24(x2)

--------------------------------------
01000040:  	00c12703    	LW     x14, 12(x2)
Insns: 00000000110000010010011100000011 at PC_x=01000040

--------------------------------------
01000044:  	00100793    	ADDI   x15, x0, 12
Insns: 00000000000100000000011110010011 at PC_x=01000044

--------------------------------------
01000048:  	00e7c663    	BLT    x15, x14, 1000049

--------------------------------------
0100004c:  	00c12783    	LW     x15, 12(x2)
Insns: 00000000110000010010011110000011 at PC_x=0100004c

--------------------------------------
01000050:  	0300006f    	JAL    x0, 100005c

--------------------------------------
01000080:  	00078513    	ADDI   x10, x15, 48
Insns: 00000000000001111000010100010011 at PC_x=01000080

--------------------------------------
01000084:  	01c12083    	LW     x1, 0(x2)
Insns: 00000001110000010010000010000011 at PC_x=01000084

--------------------------------------
01000088:  	01812403    	LW     x8, 28(x2)
Insns: 00000001100000010010010000000011 at PC_x=01000088

--------------------------------------
0100008c:  	02010113    	ADDI   x2, x2, 24
Insns: 00000010000000010000000100010011 at PC_x=0100008c

--------------------------------------
01000090:  	00008067    	JALR   x0, 32(x1)
Insns: 00000000000000001000000001100111 at PC_x=01000090

--------------------------------------
01000064:  	00050413    	ADDI   x8, x10, 0
Insns: 00000000000001010000010000010011 at PC_x=01000064

--------------------------------------
01000068:  	00c12783    	LW     x15, 0(x2)
Insns: 00000000110000010010011110000011 at PC_x=01000068

--------------------------------------
0100006c:  	ffe78793    	ADDI   x15, x15, 12
Insns: 11111111111001111000011110010011 at PC_x=0100006c

--------------------------------------
01000070:  	00078513    	ADDI   x10, x15, 4294967294
Insns: 00000000000001111000010100010011 at PC_x=01000070

--------------------------------------
01000074:  	fbdff0ef    	JAL    x1, 1000074

--------------------------------------
01000030:  	fe010113    	ADDI   x2, x2, 4294967229
Insns: 11111110000000010000000100010011 at PC_x=01000030

--------------------------------------
01000034:  	00112e23    	SW     x1, 4294967264(x2)

--------------------------------------
01000038:  	00812c23    	SW     x8, 28(x2)

--------------------------------------
0100003c:  	00a12623    	SW     x10, 24(x2)

--------------------------------------
01000040:  	00c12703    	LW     x14, 12(x2)
Insns: 00000000110000010010011100000011 at PC_x=01000040

--------------------------------------
01000044:  	00100793    	ADDI   x15, x0, 12
Insns: 00000000000100000000011110010011 at PC_x=01000044

--------------------------------------
01000048:  	00e7c663    	BLT    x15, x14, 1000049

--------------------------------------
0100004c:  	00c12783    	LW     x15, 12(x2)
Insns: 00000000110000010010011110000011 at PC_x=0100004c

--------------------------------------
01000050:  	0300006f    	JAL    x0, 100005c

--------------------------------------
01000080:  	00078513    	ADDI   x10, x15, 48
Insns: 00000000000001111000010100010011 at PC_x=01000080

--------------------------------------
01000084:  	01c12083    	LW     x1, 0(x2)
Insns: 00000001110000010010000010000011 at PC_x=01000084

--------------------------------------
01000088:  	01812403    	LW     x8, 28(x2)
Insns: 00000001100000010010010000000011 at PC_x=01000088

--------------------------------------
0100008c:  	02010113    	ADDI   x2, x2, 24
Insns: 00000010000000010000000100010011 at PC_x=0100008c

--------------------------------------
01000090:  	00008067    	JALR   x0, 32(x1)
Insns: 00000000000000001000000001100111 at PC_x=01000090

--------------------------------------
01000078:  	00050793    	ADDI   x15, x10, 0
Insns: 00000000000001010000011110010011 at PC_x=01000078

--------------------------------------
0100007c:  	00f407b3    	ADD    x15, x8, x15

--------------------------------------
01000080:  	00078513    	ADDI   x10, x15, 15
Insns: 00000000000001111000010100010011 at PC_x=01000080

--------------------------------------
01000084:  	01c12083    	LW     x1, 0(x2)
Insns: 00000001110000010010000010000011 at PC_x=01000084

--------------------------------------
01000088:  	01812403    	LW     x8, 28(x2)
Insns: 00000001100000010010010000000011 at PC_x=01000088

--------------------------------------
0100008c:  	02010113    	ADDI   x2, x2, 24
Insns: 00000010000000010000000100010011 at PC_x=0100008c

--------------------------------------
01000090:  	00008067    	JALR   x0, 32(x1)
Insns: 00000000000000001000000001100111 at PC_x=01000090

--------------------------------------
01000064:  	00050413    	ADDI   x8, x10, 0
Insns: 00000000000001010000010000010011 at PC_x=01000064

--------------------------------------
01000068:  	00c12783    	LW     x15, 0(x2)
Insns: 00000000110000010010011110000011 at PC_x=01000068

--------------------------------------
0100006c:  	ffe78793    	ADDI   x15, x15, 12
Insns: 11111111111001111000011110010011 at PC_x=0100006c

--------------------------------------
01000070:  	00078513    	ADDI   x10, x15, 4294967294
Insns: 00000000000001111000010100010011 at PC_x=01000070

--------------------------------------
01000074:  	fbdff0ef    	JAL    x1, 1000074

--------------------------------------
01000030:  	fe010113    	ADDI   x2, x2, 4294967229
Insns: 11111110000000010000000100010011 at PC_x=01000030

--------------------------------------
01000034:  	00112e23    	SW     x1, 4294967264(x2)

--------------------------------------
01000038:  	00812c23    	SW     x8, 28(x2)

--------------------------------------
0100003c:  	00a12623    	SW     x10, 24(x2)

--------------------------------------
01000040:  	00c12703    	LW     x14, 12(x2)
Insns: 00000000110000010010011100000011 at PC_x=01000040

--------------------------------------
01000044:  	00100793    	ADDI   x15, x0, 12
Insns: 00000000000100000000011110010011 at PC_x=01000044

--------------------------------------
01000048:  	00e7c663    	BLT    x15, x14, 1000049

--------------------------------------
0100004c:  	00c12783    	LW     x15, 12(x2)
Insns: 00000000110000010010011110000011 at PC_x=0100004c

--------------------------------------
01000050:  	0300006f    	JAL    x0, 100005c

--------------------------------------
01000080:  	00078513    	ADDI   x10, x15, 48
Insns: 00000000000001111000010100010011 at PC_x=01000080

--------------------------------------
01000084:  	01c12083    	LW     x1, 0(x2)
Insns: 00000001110000010010000010000011 at PC_x=01000084

--------------------------------------
01000088:  	01812403    	LW     x8, 28(x2)
Insns: 00000001100000010010010000000011 at PC_x=01000088

--------------------------------------
0100008c:  	02010113    	ADDI   x2, x2, 24
Insns: 00000010000000010000000100010011 at PC_x=0100008c

--------------------------------------
01000090:  	00008067    	JALR   x0, 32(x1)
Insns: 00000000000000001000000001100111 at PC_x=01000090

--------------------------------------
01000078:  	00050793    	ADDI   x15, x10, 0
Insns: 00000000000001010000011110010011 at PC_x=01000078

--------------------------------------
0100007c:  	00f407b3    	ADD    x15, x8, x15

--------------------------------------
01000080:  	00078513    	ADDI   x10, x15, 15
Insns: 00000000000001111000010100010011 at PC_x=01000080

--------------------------------------
01000084:  	01c12083    	LW     x1, 0(x2)
Insns: 00000001110000010010000010000011 at PC_x=01000084

--------------------------------------
01000088:  	01812403    	LW     x8, 28(x2)
Insns: 00000001100000010010010000000011 at PC_x=01000088

--------------------------------------
0100008c:  	02010113    	ADDI   x2, x2, 24
Insns: 00000010000000010000000100010011 at PC_x=0100008c

--------------------------------------
01000090:  	00008067    	JALR   x0, 32(x1)
Insns: 00000000000000001000000001100111 at PC_x=01000090

--------------------------------------
01000064:  	00050413    	ADDI   x8, x10, 0
Insns: 00000000000001010000010000010011 at PC_x=01000064

--------------------------------------
01000068:  	00c12783    	LW     x15, 0(x2)
Insns: 00000000110000010010011110000011 at PC_x=01000068

--------------------------------------
0100006c:  	ffe78793    	ADDI   x15, x15, 12
Insns: 11111111111001111000011110010011 at PC_x=0100006c

--------------------------------------
01000070:  	00078513    	ADDI   x10, x15, 4294967294
Insns: 00000000000001111000010100010011 at PC_x=01000070

--------------------------------------
01000074:  	fbdff0ef    	JAL    x1, 1000074

--------------------------------------
01000030:  	fe010113    	ADDI   x2, x2, 4294967229
Insns: 11111110000000010000000100010011 at PC_x=01000030

--------------------------------------
01000034:  	00112e23    	SW     x1, 4294967264(x2)

--------------------------------------
01000038:  	00812c23    	SW     x8, 28(x2)

--------------------------------------
0100003c:  	00a12623    	SW     x10, 24(x2)

--------------------------------------
01000040:  	00c12703    	LW     x14, 12(x2)
Insns: 00000000110000010010011100000011 at PC_x=01000040

--------------------------------------
01000044:  	00100793    	ADDI   x15, x0, 12
Insns: 00000000000100000000011110010011 at PC_x=01000044

--------------------------------------
01000048:  	00e7c663    	BLT    x15, x14, 1000049

--------------------------------------
01000054:  	00c12783    	LW     x15, 12(x2)
Insns: 00000000110000010010011110000011 at PC_x=01000054

--------------------------------------
01000058:  	fff78793    	ADDI   x15, x15, 12
Insns: 11111111111101111000011110010011 at PC_x=01000058

--------------------------------------
0100005c:  	00078513    	ADDI   x10, x15, 4294967295
Insns: 00000000000001111000010100010011 at PC_x=0100005c

--------------------------------------
01000060:  	fd1ff0ef    	JAL    x1, 1000060

--------------------------------------
01000030:  	fe010113    	ADDI   x2, x2, 4294967248
Insns: 11111110000000010000000100010011 at PC_x=01000030

--------------------------------------
01000034:  	00112e23    	SW     x1, 4294967264(x2)

--------------------------------------
01000038:  	00812c23    	SW     x8, 28(x2)

--------------------------------------
0100003c:  	00a12623    	SW     x10, 24(x2)

--------------------------------------
01000040:  	00c12703    	LW     x14, 12(x2)
Insns: 00000000110000010010011100000011 at PC_x=01000040

--------------------------------------
01000044:  	00100793    	ADDI   x15, x0, 12
Insns: 00000000000100000000011110010011 at PC_x=01000044

--------------------------------------
01000048:  	00e7c663    	BLT    x15, x14, 1000049

--------------------------------------
0100004c:  	00c12783    	LW     x15, 12(x2)
Insns: 00000000110000010010011110000011 at PC_x=0100004c

--------------------------------------
01000050:  	0300006f    	JAL    x0, 100005c

--------------------------------------
01000080:  	00078513    	ADDI   x10, x15, 48
Insns: 00000000000001111000010100010011 at PC_x=01000080

--------------------------------------
01000084:  	01c12083    	LW     x1, 0(x2)
Insns: 00000001110000010010000010000011 at PC_x=01000084

--------------------------------------
01000088:  	01812403    	LW     x8, 28(x2)
Insns: 00000001100000010010010000000011 at PC_x=01000088

--------------------------------------
0100008c:  	02010113    	ADDI   x2, x2, 24
Insns: 00000010000000010000000100010011 at PC_x=0100008c

--------------------------------------
01000090:  	00008067    	JALR   x0, 32(x1)
Insns: 00000000000000001000000001100111 at PC_x=01000090

--------------------------------------
01000064:  	00050413    	ADDI   x8, x10, 0
Insns: 00000000000001010000010000010011 at PC_x=01000064

--------------------------------------
01000068:  	00c12783    	LW     x15, 0(x2)
Insns: 00000000110000010010011110000011 at PC_x=01000068

--------------------------------------
0100006c:  	ffe78793    	ADDI   x15, x15, 12
Insns: 11111111111001111000011110010011 at PC_x=0100006c

--------------------------------------
01000070:  	00078513    	ADDI   x10, x15, 4294967294
Insns: 00000000000001111000010100010011 at PC_x=01000070

--------------------------------------
01000074:  	fbdff0ef    	JAL    x1, 1000074

--------------------------------------
01000030:  	fe010113    	ADDI   x2, x2, 4294967229
Insns: 11111110000000010000000100010011 at PC_x=01000030

--------------------------------------
01000034:  	00112e23    	SW     x1, 4294967264(x2)

--------------------------------------
01000038:  	00812c23    	SW     x8, 28(x2)

--------------------------------------
0100003c:  	00a12623    	SW     x10, 24(x2)

--------------------------------------
01000040:  	00c12703    	LW     x14, 12(x2)
Insns: 00000000110000010010011100000011 at PC_x=01000040

--------------------------------------
01000044:  	00100793    	ADDI   x15, x0, 12
Insns: 00000000000100000000011110010011 at PC_x=01000044

--------------------------------------
01000048:  	00e7c663    	BLT    x15, x14, 1000049

--------------------------------------
0100004c:  	00c12783    	LW     x15, 12(x2)
Insns: 00000000110000010010011110000011 at PC_x=0100004c

--------------------------------------
01000050:  	0300006f    	JAL    x0, 100005c

--------------------------------------
01000080:  	00078513    	ADDI   x10, x15, 48
Insns: 00000000000001111000010100010011 at PC_x=01000080

--------------------------------------
01000084:  	01c12083    	LW     x1, 0(x2)
Insns: 00000001110000010010000010000011 at PC_x=01000084

--------------------------------------
01000088:  	01812403    	LW     x8, 28(x2)
Insns: 00000001100000010010010000000011 at PC_x=01000088

--------------------------------------
0100008c:  	02010113    	ADDI   x2, x2, 24
Insns: 00000010000000010000000100010011 at PC_x=0100008c

--------------------------------------
01000090:  	00008067    	JALR   x0, 32(x1)
Insns: 00000000000000001000000001100111 at PC_x=01000090

--------------------------------------
01000078:  	00050793    	ADDI   x15, x10, 0
Insns: 00000000000001010000011110010011 at PC_x=01000078

--------------------------------------
0100007c:  	00f407b3    	ADD    x15, x8, x15

--------------------------------------
01000080:  	00078513    	ADDI   x10, x15, 15
Insns: 00000000000001111000010100010011 at PC_x=01000080

--------------------------------------
01000084:  	01c12083    	LW     x1, 0(x2)
Insns: 00000001110000010010000010000011 at PC_x=01000084

--------------------------------------
01000088:  	01812403    	LW     x8, 28(x2)
Insns: 00000001100000010010010000000011 at PC_x=01000088

--------------------------------------
0100008c:  	02010113    	ADDI   x2, x2, 24
Insns: 00000010000000010000000100010011 at PC_x=0100008c

--------------------------------------
01000090:  	00008067    	JALR   x0, 32(x1)
Insns: 00000000000000001000000001100111 at PC_x=01000090

--------------------------------------
01000078:  	00050793    	ADDI   x15, x10, 0
Insns: 00000000000001010000011110010011 at PC_x=01000078

--------------------------------------
0100007c:  	00f407b3    	ADD    x15, x8, x15

--------------------------------------
01000080:  	00078513    	ADDI   x10, x15, 0
Insns: 00000000000001111000010100010011 at PC_x=01000080

--------------------------------------
01000084:  	01c12083    	LW     x1, 0(x2)
Insns: 00000001110000010010000010000011 at PC_x=01000084

--------------------------------------
01000088:  	01812403    	LW     x8, 28(x2)
Insns: 00000001100000010010010000000011 at PC_x=01000088

--------------------------------------
0100008c:  	02010113    	ADDI   x2, x2, 24
Insns: 00000010000000010000000100010011 at PC_x=0100008c

--------------------------------------
01000090:  	00008067    	JALR   x0, 32(x1)
Insns: 00000000000000001000000001100111 at PC_x=01000090

--------------------------------------
01000064:  	00050413    	ADDI   x8, x10, 0
Insns: 00000000000001010000010000010011 at PC_x=01000064

--------------------------------------
01000068:  	00c12783    	LW     x15, 0(x2)
Insns: 00000000110000010010011110000011 at PC_x=01000068

--------------------------------------
0100006c:  	ffe78793    	ADDI   x15, x15, 12
Insns: 11111111111001111000011110010011 at PC_x=0100006c

--------------------------------------
01000070:  	00078513    	ADDI   x10, x15, 4294967294
Insns: 00000000000001111000010100010011 at PC_x=01000070

--------------------------------------
01000074:  	fbdff0ef    	JAL    x1, 1000074

--------------------------------------
01000030:  	fe010113    	ADDI   x2, x2, 4294967228
Insns: 11111110000000010000000100010011 at PC_x=01000030

--------------------------------------
01000034:  	00112e23    	SW     x1, 4294967264(x2)

--------------------------------------
01000038:  	00812c23    	SW     x8, 28(x2)

--------------------------------------
0100003c:  	00a12623    	SW     x10, 24(x2)

--------------------------------------
01000040:  	00c12703    	LW     x14, 12(x2)
Insns: 00000000110000010010011100000011 at PC_x=01000040

--------------------------------------
01000044:  	00100793    	ADDI   x15, x0, 12
Insns: 00000000000100000000011110010011 at PC_x=01000044

--------------------------------------
01000048:  	00e7c663    	BLT    x15, x14, 1000049

--------------------------------------
01000054:  	00c12783    	LW     x15, 12(x2)
Insns: 00000000110000010010011110000011 at PC_x=01000054

--------------------------------------
01000058:  	fff78793    	ADDI   x15, x15, 12
Insns: 11111111111101111000011110010011 at PC_x=01000058

--------------------------------------
0100005c:  	00078513    	ADDI   x10, x15, 4294967295
Insns: 00000000000001111000010100010011 at PC_x=0100005c

--------------------------------------
01000060:  	fd1ff0ef    	JAL    x1, 1000060

--------------------------------------
01000030:  	fe010113    	ADDI   x2, x2, 4294967249
Insns: 11111110000000010000000100010011 at PC_x=01000030

--------------------------------------
01000034:  	00112e23    	SW     x1, 4294967264(x2)

--------------------------------------
01000038:  	00812c23    	SW     x8, 28(x2)

--------------------------------------
0100003c:  	00a12623    	SW     x10, 24(x2)

--------------------------------------
01000040:  	00c12703    	LW     x14, 12(x2)
Insns: 00000000110000010010011100000011 at PC_x=01000040

--------------------------------------
01000044:  	00100793    	ADDI   x15, x0, 12
Insns: 00000000000100000000011110010011 at PC_x=01000044

--------------------------------------
01000048:  	00e7c663    	BLT    x15, x14, 1000049

--------------------------------------
01000054:  	00c12783    	LW     x15, 12(x2)
Insns: 00000000110000010010011110000011 at PC_x=01000054

--------------------------------------
01000058:  	fff78793    	ADDI   x15, x15, 12
Insns: 11111111111101111000011110010011 at PC_x=01000058

--------------------------------------
0100005c:  	00078513    	ADDI   x10, x15, 4294967295
Insns: 00000000000001111000010100010011 at PC_x=0100005c

--------------------------------------
01000060:  	fd1ff0ef    	JAL    x1, 1000060

--------------------------------------
01000030:  	fe010113    	ADDI   x2, x2, 4294967248
Insns: 11111110000000010000000100010011 at PC_x=01000030

--------------------------------------
01000034:  	00112e23    	SW     x1, 4294967264(x2)

--------------------------------------
01000038:  	00812c23    	SW     x8, 28(x2)

--------------------------------------
0100003c:  	00a12623    	SW     x10, 24(x2)

--------------------------------------
01000040:  	00c12703    	LW     x14, 12(x2)
Insns: 00000000110000010010011100000011 at PC_x=01000040

--------------------------------------
01000044:  	00100793    	ADDI   x15, x0, 12
Insns: 00000000000100000000011110010011 at PC_x=01000044

--------------------------------------
01000048:  	00e7c663    	BLT    x15, x14, 1000049

--------------------------------------
0100004c:  	00c12783    	LW     x15, 12(x2)
Insns: 00000000110000010010011110000011 at PC_x=0100004c

--------------------------------------
01000050:  	0300006f    	JAL    x0, 100005c

--------------------------------------
01000080:  	00078513    	ADDI   x10, x15, 48
Insns: 00000000000001111000010100010011 at PC_x=01000080

--------------------------------------
01000084:  	01c12083    	LW     x1, 0(x2)
Insns: 00000001110000010010000010000011 at PC_x=01000084

--------------------------------------
01000088:  	01812403    	LW     x8, 28(x2)
Insns: 00000001100000010010010000000011 at PC_x=01000088

--------------------------------------
0100008c:  	02010113    	ADDI   x2, x2, 24
Insns: 00000010000000010000000100010011 at PC_x=0100008c

--------------------------------------
01000090:  	00008067    	JALR   x0, 32(x1)
Insns: 00000000000000001000000001100111 at PC_x=01000090

--------------------------------------
01000064:  	00050413    	ADDI   x8, x10, 0
Insns: 00000000000001010000010000010011 at PC_x=01000064

--------------------------------------
01000068:  	00c12783    	LW     x15, 0(x2)
Insns: 00000000110000010010011110000011 at PC_x=01000068

--------------------------------------
0100006c:  	ffe78793    	ADDI   x15, x15, 12
Insns: 11111111111001111000011110010011 at PC_x=0100006c

--------------------------------------
01000070:  	00078513    	ADDI   x10, x15, 4294967294
Insns: 00000000000001111000010100010011 at PC_x=01000070

--------------------------------------
01000074:  	fbdff0ef    	JAL    x1, 1000074

--------------------------------------
01000030:  	fe010113    	ADDI   x2, x2, 4294967229
Insns: 11111110000000010000000100010011 at PC_x=01000030

--------------------------------------
01000034:  	00112e23    	SW     x1, 4294967264(x2)

--------------------------------------
01000038:  	00812c23    	SW     x8, 28(x2)

--------------------------------------
0100003c:  	00a12623    	SW     x10, 24(x2)

--------------------------------------
01000040:  	00c12703    	LW     x14, 12(x2)
Insns: 00000000110000010010011100000011 at PC_x=01000040

--------------------------------------
01000044:  	00100793    	ADDI   x15, x0, 12
Insns: 00000000000100000000011110010011 at PC_x=01000044

--------------------------------------
01000048:  	00e7c663    	BLT    x15, x14, 1000049

--------------------------------------
0100004c:  	00c12783    	LW     x15, 12(x2)
Insns: 00000000110000010010011110000011 at PC_x=0100004c

--------------------------------------
01000050:  	0300006f    	JAL    x0, 100005c

--------------------------------------
01000080:  	00078513    	ADDI   x10, x15, 48
Insns: 00000000000001111000010100010011 at PC_x=01000080

--------------------------------------
01000084:  	01c12083    	LW     x1, 0(x2)
Insns: 00000001110000010010000010000011 at PC_x=01000084

--------------------------------------
01000088:  	01812403    	LW     x8, 28(x2)
Insns: 00000001100000010010010000000011 at PC_x=01000088

--------------------------------------
0100008c:  	02010113    	ADDI   x2, x2, 24
Insns: 00000010000000010000000100010011 at PC_x=0100008c

--------------------------------------
01000090:  	00008067    	JALR   x0, 32(x1)
Insns: 00000000000000001000000001100111 at PC_x=01000090

--------------------------------------
01000078:  	00050793    	ADDI   x15, x10, 0
Insns: 00000000000001010000011110010011 at PC_x=01000078

--------------------------------------
0100007c:  	00f407b3    	ADD    x15, x8, x15

--------------------------------------
01000080:  	00078513    	ADDI   x10, x15, 15
Insns: 00000000000001111000010100010011 at PC_x=01000080

--------------------------------------
01000084:  	01c12083    	LW     x1, 0(x2)
Insns: 00000001110000010010000010000011 at PC_x=01000084

--------------------------------------
01000088:  	01812403    	LW     x8, 28(x2)
Insns: 00000001100000010010010000000011 at PC_x=01000088

--------------------------------------
0100008c:  	02010113    	ADDI   x2, x2, 24
Insns: 00000010000000010000000100010011 at PC_x=0100008c

--------------------------------------
01000090:  	00008067    	JALR   x0, 32(x1)
Insns: 00000000000000001000000001100111 at PC_x=01000090

--------------------------------------
01000064:  	00050413    	ADDI   x8, x10, 0
Insns: 00000000000001010000010000010011 at PC_x=01000064

--------------------------------------
01000068:  	00c12783    	LW     x15, 0(x2)
Insns: 00000000110000010010011110000011 at PC_x=01000068

--------------------------------------
0100006c:  	ffe78793    	ADDI   x15, x15, 12
Insns: 11111111111001111000011110010011 at PC_x=0100006c

--------------------------------------
01000070:  	00078513    	ADDI   x10, x15, 4294967294
Insns: 00000000000001111000010100010011 at PC_x=01000070

--------------------------------------
01000074:  	fbdff0ef    	JAL    x1, 1000074

--------------------------------------
01000030:  	fe010113    	ADDI   x2, x2, 4294967229
Insns: 11111110000000010000000100010011 at PC_x=01000030

--------------------------------------
01000034:  	00112e23    	SW     x1, 4294967264(x2)

--------------------------------------
01000038:  	00812c23    	SW     x8, 28(x2)

--------------------------------------
0100003c:  	00a12623    	SW     x10, 24(x2)

--------------------------------------
01000040:  	00c12703    	LW     x14, 12(x2)
Insns: 00000000110000010010011100000011 at PC_x=01000040

--------------------------------------
01000044:  	00100793    	ADDI   x15, x0, 12
Insns: 00000000000100000000011110010011 at PC_x=01000044

--------------------------------------
01000048:  	00e7c663    	BLT    x15, x14, 1000049

--------------------------------------
0100004c:  	00c12783    	LW     x15, 12(x2)
Insns: 00000000110000010010011110000011 at PC_x=0100004c

--------------------------------------
01000050:  	0300006f    	JAL    x0, 100005c

--------------------------------------
01000080:  	00078513    	ADDI   x10, x15, 48
Insns: 00000000000001111000010100010011 at PC_x=01000080

--------------------------------------
01000084:  	01c12083    	LW     x1, 0(x2)
Insns: 00000001110000010010000010000011 at PC_x=01000084

--------------------------------------
01000088:  	01812403    	LW     x8, 28(x2)
Insns: 00000001100000010010010000000011 at PC_x=01000088

--------------------------------------
0100008c:  	02010113    	ADDI   x2, x2, 24
Insns: 00000010000000010000000100010011 at PC_x=0100008c

--------------------------------------
01000090:  	00008067    	JALR   x0, 32(x1)
Insns: 00000000000000001000000001100111 at PC_x=01000090

--------------------------------------
01000078:  	00050793    	ADDI   x15, x10, 0
Insns: 00000000000001010000011110010011 at PC_x=01000078

--------------------------------------
0100007c:  	00f407b3    	ADD    x15, x8, x15

--------------------------------------
01000080:  	00078513    	ADDI   x10, x15, 15
Insns: 00000000000001111000010100010011 at PC_x=01000080

--------------------------------------
01000084:  	01c12083    	LW     x1, 0(x2)
Insns: 00000001110000010010000010000011 at PC_x=01000084

--------------------------------------
01000088:  	01812403    	LW     x8, 28(x2)
Insns: 00000001100000010010010000000011 at PC_x=01000088

--------------------------------------
0100008c:  	02010113    	ADDI   x2, x2, 24
Insns: 00000010000000010000000100010011 at PC_x=0100008c

--------------------------------------
01000090:  	00008067    	JALR   x0, 32(x1)
Insns: 00000000000000001000000001100111 at PC_x=01000090

--------------------------------------
01000078:  	00050793    	ADDI   x15, x10, 0
Insns: 00000000000001010000011110010011 at PC_x=01000078

--------------------------------------
0100007c:  	00f407b3    	ADD    x15, x8, x15

--------------------------------------
01000080:  	00078513    	ADDI   x10, x15, 0
Insns: 00000000000001111000010100010011 at PC_x=01000080

--------------------------------------
01000084:  	01c12083    	LW     x1, 0(x2)
Insns: 00000001110000010010000010000011 at PC_x=01000084

--------------------------------------
01000088:  	01812403    	LW     x8, 28(x2)
Insns: 00000001100000010010010000000011 at PC_x=01000088

--------------------------------------
0100008c:  	02010113    	ADDI   x2, x2, 24
Insns: 00000010000000010000000100010011 at PC_x=0100008c

--------------------------------------
01000090:  	00008067    	JALR   x0, 32(x1)
Insns: 00000000000000001000000001100111 at PC_x=01000090

--------------------------------------
01000064:  	00050413    	ADDI   x8, x10, 0
Insns: 00000000000001010000010000010011 at PC_x=01000064

--------------------------------------
01000068:  	00c12783    	LW     x15, 0(x2)
Insns: 00000000110000010010011110000011 at PC_x=01000068

--------------------------------------
0100006c:  	ffe78793    	ADDI   x15, x15, 12
Insns: 11111111111001111000011110010011 at PC_x=0100006c

--------------------------------------
01000070:  	00078513    	ADDI   x10, x15, 4294967294
Insns: 00000000000001111000010100010011 at PC_x=01000070

--------------------------------------
01000074:  	fbdff0ef    	JAL    x1, 1000074

--------------------------------------
01000030:  	fe010113    	ADDI   x2, x2, 4294967228
Insns: 11111110000000010000000100010011 at PC_x=01000030

--------------------------------------
01000034:  	00112e23    	SW     x1, 4294967264(x2)

--------------------------------------
01000038:  	00812c23    	SW     x8, 28(x2)

--------------------------------------
0100003c:  	00a12623    	SW     x10, 24(x2)

--------------------------------------
01000040:  	00c12703    	LW     x14, 12(x2)
Insns: 00000000110000010010011100000011 at PC_x=01000040

--------------------------------------
01000044:  	00100793    	ADDI   x15, x0, 12
Insns: 00000000000100000000011110010011 at PC_x=01000044

--------------------------------------
01000048:  	00e7c663    	BLT    x15, x14, 1000049

--------------------------------------
01000054:  	00c12783    	LW     x15, 12(x2)
Insns: 00000000110000010010011110000011 at PC_x=01000054

--------------------------------------
01000058:  	fff78793    	ADDI   x15, x15, 12
Insns: 11111111111101111000011110010011 at PC_x=01000058

--------------------------------------
0100005c:  	00078513    	ADDI   x10, x15, 4294967295
Insns: 00000000000001111000010100010011 at PC_x=0100005c

--------------------------------------
01000060:  	fd1ff0ef    	JAL    x1, 1000060

--------------------------------------
01000030:  	fe010113    	ADDI   x2, x2, 4294967249
Insns: 11111110000000010000000100010011 at PC_x=01000030

--------------------------------------
01000034:  	00112e23    	SW     x1, 4294967264(x2)

--------------------------------------
01000038:  	00812c23    	SW     x8, 28(x2)

--------------------------------------
0100003c:  	00a12623    	SW     x10, 24(x2)

--------------------------------------
01000040:  	00c12703    	LW     x14, 12(x2)
Insns: 00000000110000010010011100000011 at PC_x=01000040

--------------------------------------
01000044:  	00100793    	ADDI   x15, x0, 12
Insns: 00000000000100000000011110010011 at PC_x=01000044

--------------------------------------
01000048:  	00e7c663    	BLT    x15, x14, 1000049

--------------------------------------
01000054:  	00c12783    	LW     x15, 12(x2)
Insns: 00000000110000010010011110000011 at PC_x=01000054

--------------------------------------
01000058:  	fff78793    	ADDI   x15, x15, 12
Insns: 11111111111101111000011110010011 at PC_x=01000058

--------------------------------------
0100005c:  	00078513    	ADDI   x10, x15, 4294967295
Insns: 00000000000001111000010100010011 at PC_x=0100005c

--------------------------------------
01000060:  	fd1ff0ef    	JAL    x1, 1000060

--------------------------------------
01000030:  	fe010113    	ADDI   x2, x2, 4294967248
Insns: 11111110000000010000000100010011 at PC_x=01000030

--------------------------------------
01000034:  	00112e23    	SW     x1, 4294967264(x2)

--------------------------------------
01000038:  	00812c23    	SW     x8, 28(x2)

--------------------------------------
0100003c:  	00a12623    	SW     x10, 24(x2)

--------------------------------------
01000040:  	00c12703    	LW     x14, 12(x2)
Insns: 00000000110000010010011100000011 at PC_x=01000040

--------------------------------------
01000044:  	00100793    	ADDI   x15, x0, 12
Insns: 00000000000100000000011110010011 at PC_x=01000044

--------------------------------------
01000048:  	00e7c663    	BLT    x15, x14, 1000049

--------------------------------------
01000054:  	00c12783    	LW     x15, 12(x2)
Insns: 00000000110000010010011110000011 at PC_x=01000054

--------------------------------------
01000058:  	fff78793    	ADDI   x15, x15, 12
Insns: 11111111111101111000011110010011 at PC_x=01000058

--------------------------------------
0100005c:  	00078513    	ADDI   x10, x15, 4294967295
Insns: 00000000000001111000010100010011 at PC_x=0100005c

--------------------------------------
01000060:  	fd1ff0ef    	JAL    x1, 1000060

--------------------------------------
01000030:  	fe010113    	ADDI   x2, x2, 4294967249
Insns: 11111110000000010000000100010011 at PC_x=01000030

--------------------------------------
01000034:  	00112e23    	SW     x1, 4294967264(x2)

--------------------------------------
01000038:  	00812c23    	SW     x8, 28(x2)

--------------------------------------
0100003c:  	00a12623    	SW     x10, 24(x2)

--------------------------------------
01000040:  	00c12703    	LW     x14, 12(x2)
Insns: 00000000110000010010011100000011 at PC_x=01000040

--------------------------------------
01000044:  	00100793    	ADDI   x15, x0, 12
Insns: 00000000000100000000011110010011 at PC_x=01000044

--------------------------------------
01000048:  	00e7c663    	BLT    x15, x14, 1000049

--------------------------------------
0100004c:  	00c12783    	LW     x15, 12(x2)
Insns: 00000000110000010010011110000011 at PC_x=0100004c

--------------------------------------
01000050:  	0300006f    	JAL    x0, 100005c

--------------------------------------
01000080:  	00078513    	ADDI   x10, x15, 48
Insns: 00000000000001111000010100010011 at PC_x=01000080

--------------------------------------
01000084:  	01c12083    	LW     x1, 0(x2)
Insns: 00000001110000010010000010000011 at PC_x=01000084

--------------------------------------
01000088:  	01812403    	LW     x8, 28(x2)
Insns: 00000001100000010010010000000011 at PC_x=01000088

--------------------------------------
0100008c:  	02010113    	ADDI   x2, x2, 24
Insns: 00000010000000010000000100010011 at PC_x=0100008c

--------------------------------------
01000090:  	00008067    	JALR   x0, 32(x1)
Insns: 00000000000000001000000001100111 at PC_x=01000090

--------------------------------------
01000064:  	00050413    	ADDI   x8, x10, 0
Insns: 00000000000001010000010000010011 at PC_x=01000064

--------------------------------------
01000068:  	00c12783    	LW     x15, 0(x2)
Insns: 00000000110000010010011110000011 at PC_x=01000068

--------------------------------------
0100006c:  	ffe78793    	ADDI   x15, x15, 12
Insns: 11111111111001111000011110010011 at PC_x=0100006c

--------------------------------------
01000070:  	00078513    	ADDI   x10, x15, 4294967294
Insns: 00000000000001111000010100010011 at PC_x=01000070

--------------------------------------
01000074:  	fbdff0ef    	JAL    x1, 1000074

--------------------------------------
01000030:  	fe010113    	ADDI   x2, x2, 4294967228
Insns: 11111110000000010000000100010011 at PC_x=01000030

--------------------------------------
01000034:  	00112e23    	SW     x1, 4294967264(x2)

--------------------------------------
01000038:  	00812c23    	SW     x8, 28(x2)

--------------------------------------
0100003c:  	00a12623    	SW     x10, 24(x2)

--------------------------------------
01000040:  	00c12703    	LW     x14, 12(x2)
Insns: 00000000110000010010011100000011 at PC_x=01000040

--------------------------------------
01000044:  	00100793    	ADDI   x15, x0, 12
Insns: 00000000000100000000011110010011 at PC_x=01000044

--------------------------------------
01000048:  	00e7c663    	BLT    x15, x14, 1000049

--------------------------------------
0100004c:  	00c12783    	LW     x15, 12(x2)
Insns: 00000000110000010010011110000011 at PC_x=0100004c

--------------------------------------
01000050:  	0300006f    	JAL    x0, 100005c

--------------------------------------
01000080:  	00078513    	ADDI   x10, x15, 48
Insns: 00000000000001111000010100010011 at PC_x=01000080

--------------------------------------
01000084:  	01c12083    	LW     x1, 0(x2)
Insns: 00000001110000010010000010000011 at PC_x=01000084

--------------------------------------
01000088:  	01812403    	LW     x8, 28(x2)
Insns: 00000001100000010010010000000011 at PC_x=01000088

--------------------------------------
0100008c:  	02010113    	ADDI   x2, x2, 24
Insns: 00000010000000010000000100010011 at PC_x=0100008c

--------------------------------------
01000090:  	00008067    	JALR   x0, 32(x1)
Insns: 00000000000000001000000001100111 at PC_x=01000090

--------------------------------------
01000078:  	00050793    	ADDI   x15, x10, 0
Insns: 00000000000001010000011110010011 at PC_x=01000078

--------------------------------------
0100007c:  	00f407b3    	ADD    x15, x8, x15

--------------------------------------
01000080:  	00078513    	ADDI   x10, x15, 0
Insns: 00000000000001111000010100010011 at PC_x=01000080

--------------------------------------
01000084:  	01c12083    	LW     x1, 0(x2)
Insns: 00000001110000010010000010000011 at PC_x=01000084

--------------------------------------
01000088:  	01812403    	LW     x8, 28(x2)
Insns: 00000001100000010010010000000011 at PC_x=01000088

--------------------------------------
0100008c:  	02010113    	ADDI   x2, x2, 24
Insns: 00000010000000010000000100010011 at PC_x=0100008c

--------------------------------------
01000090:  	00008067    	JALR   x0, 32(x1)
Insns: 00000000000000001000000001100111 at PC_x=01000090

--------------------------------------
01000064:  	00050413    	ADDI   x8, x10, 0
Insns: 00000000000001010000010000010011 at PC_x=01000064

--------------------------------------
01000068:  	00c12783    	LW     x15, 0(x2)
Insns: 00000000110000010010011110000011 at PC_x=01000068

--------------------------------------
0100006c:  	ffe78793    	ADDI   x15, x15, 12
Insns: 11111111111001111000011110010011 at PC_x=0100006c

--------------------------------------
01000070:  	00078513    	ADDI   x10, x15, 4294967294
Insns: 00000000000001111000010100010011 at PC_x=01000070

--------------------------------------
01000074:  	fbdff0ef    	JAL    x1, 1000074

--------------------------------------
01000030:  	fe010113    	ADDI   x2, x2, 4294967228
Insns: 11111110000000010000000100010011 at PC_x=01000030

--------------------------------------
01000034:  	00112e23    	SW     x1, 4294967264(x2)

--------------------------------------
01000038:  	00812c23    	SW     x8, 28(x2)

--------------------------------------
0100003c:  	00a12623    	SW     x10, 24(x2)

--------------------------------------
01000040:  	00c12703    	LW     x14, 12(x2)
Insns: 00000000110000010010011100000011 at PC_x=01000040

--------------------------------------
01000044:  	00100793    	ADDI   x15, x0, 12
Insns: 00000000000100000000011110010011 at PC_x=01000044

--------------------------------------
01000048:  	00e7c663    	BLT    x15, x14, 1000049

--------------------------------------
0100004c:  	00c12783    	LW     x15, 12(x2)
Insns: 00000000110000010010011110000011 at PC_x=0100004c

--------------------------------------
01000050:  	0300006f    	JAL    x0, 100005c

--------------------------------------
01000080:  	00078513    	ADDI   x10, x15, 48
Insns: 00000000000001111000010100010011 at PC_x=01000080

--------------------------------------
01000084:  	01c12083    	LW     x1, 0(x2)
Insns: 00000001110000010010000010000011 at PC_x=01000084

--------------------------------------
01000088:  	01812403    	LW     x8, 28(x2)
Insns: 00000001100000010010010000000011 at PC_x=01000088

--------------------------------------
0100008c:  	02010113    	ADDI   x2, x2, 24
Insns: 00000010000000010000000100010011 at PC_x=0100008c

--------------------------------------
01000090:  	00008067    	JALR   x0, 32(x1)
Insns: 00000000000000001000000001100111 at PC_x=01000090

--------------------------------------
01000078:  	00050793    	ADDI   x15, x10, 0
Insns: 00000000000001010000011110010011 at PC_x=01000078

--------------------------------------
0100007c:  	00f407b3    	ADD    x15, x8, x15

--------------------------------------
01000080:  	00078513    	ADDI   x10, x15, 0
Insns: 00000000000001111000010100010011 at PC_x=01000080

--------------------------------------
01000084:  	01c12083    	LW     x1, 0(x2)
Insns: 00000001110000010010000010000011 at PC_x=01000084

--------------------------------------
01000088:  	01812403    	LW     x8, 28(x2)
Insns: 00000001100000010010010000000011 at PC_x=01000088

--------------------------------------
0100008c:  	02010113    	ADDI   x2, x2, 24
Insns: 00000010000000010000000100010011 at PC_x=0100008c

--------------------------------------
01000090:  	00008067    	JALR   x0, 32(x1)
Insns: 00000000000000001000000001100111 at PC_x=01000090

--------------------------------------
01000064:  	00050413    	ADDI   x8, x10, 0
Insns: 00000000000001010000010000010011 at PC_x=01000064

--------------------------------------
01000068:  	00c12783    	LW     x15, 0(x2)
Insns: 00000000110000010010011110000011 at PC_x=01000068

--------------------------------------
0100006c:  	ffe78793    	ADDI   x15, x15, 12
Insns: 11111111111001111000011110010011 at PC_x=0100006c

--------------------------------------
01000070:  	00078513    	ADDI   x10, x15, 4294967294
Insns: 00000000000001111000010100010011 at PC_x=01000070

--------------------------------------
01000074:  	fbdff0ef    	JAL    x1, 1000074

--------------------------------------
01000030:  	fe010113    	ADDI   x2, x2, 4294967228
Insns: 11111110000000010000000100010011 at PC_x=01000030

--------------------------------------
01000034:  	00112e23    	SW     x1, 4294967264(x2)

--------------------------------------
01000038:  	00812c23    	SW     x8, 28(x2)

--------------------------------------
0100003c:  	00a12623    	SW     x10, 24(x2)

--------------------------------------
01000040:  	00c12703    	LW     x14, 12(x2)
Insns: 00000000110000010010011100000011 at PC_x=01000040

--------------------------------------
01000044:  	00100793    	ADDI   x15, x0, 12
Insns: 00000000000100000000011110010011 at PC_x=01000044

--------------------------------------
01000048:  	00e7c663    	BLT    x15, x14, 1000049

--------------------------------------
01000054:  	00c12783    	LW     x15, 12(x2)
Insns: 00000000110000010010011110000011 at PC_x=01000054

--------------------------------------
01000058:  	fff78793    	ADDI   x15, x15, 12
Insns: 11111111111101111000011110010011 at PC_x=01000058

--------------------------------------
0100005c:  	00078513    	ADDI   x10, x15, 4294967295
Insns: 00000000000001111000010100010011 at PC_x=0100005c

--------------------------------------
01000060:  	fd1ff0ef    	JAL    x1, 1000060

--------------------------------------
01000030:  	fe010113    	ADDI   x2, x2, 4294967249
Insns: 11111110000000010000000100010011 at PC_x=01000030

--------------------------------------
01000034:  	00112e23    	SW     x1, 4294967264(x2)

--------------------------------------
01000038:  	00812c23    	SW     x8, 28(x2)

--------------------------------------
0100003c:  	00a12623    	SW     x10, 24(x2)

--------------------------------------
01000040:  	00c12703    	LW     x14, 12(x2)
Insns: 00000000110000010010011100000011 at PC_x=01000040

--------------------------------------
01000044:  	00100793    	ADDI   x15, x0, 12
Insns: 00000000000100000000011110010011 at PC_x=01000044

--------------------------------------
01000048:  	00e7c663    	BLT    x15, x14, 1000049

--------------------------------------
0100004c:  	00c12783    	LW     x15, 12(x2)
Insns: 00000000110000010010011110000011 at PC_x=0100004c

--------------------------------------
01000050:  	0300006f    	JAL    x0, 100005c

--------------------------------------
01000080:  	00078513    	ADDI   x10, x15, 48
Insns: 00000000000001111000010100010011 at PC_x=01000080

--------------------------------------
01000084:  	01c12083    	LW     x1, 0(x2)
Insns: 00000001110000010010000010000011 at PC_x=01000084

--------------------------------------
01000088:  	01812403    	LW     x8, 28(x2)
Insns: 00000001100000010010010000000011 at PC_x=01000088

--------------------------------------
0100008c:  	02010113    	ADDI   x2, x2, 24
Insns: 00000010000000010000000100010011 at PC_x=0100008c

--------------------------------------
01000090:  	00008067    	JALR   x0, 32(x1)
Insns: 00000000000000001000000001100111 at PC_x=01000090

--------------------------------------
01000064:  	00050413    	ADDI   x8, x10, 0
Insns: 00000000000001010000010000010011 at PC_x=01000064

--------------------------------------
01000068:  	00c12783    	LW     x15, 0(x2)
Insns: 00000000110000010010011110000011 at PC_x=01000068

--------------------------------------
0100006c:  	ffe78793    	ADDI   x15, x15, 12
Insns: 11111111111001111000011110010011 at PC_x=0100006c

--------------------------------------
01000070:  	00078513    	ADDI   x10, x15, 4294967294
Insns: 00000000000001111000010100010011 at PC_x=01000070

--------------------------------------
01000074:  	fbdff0ef    	JAL    x1, 1000074

--------------------------------------
01000030:  	fe010113    	ADDI   x2, x2, 4294967228
Insns: 11111110000000010000000100010011 at PC_x=01000030

--------------------------------------
01000034:  	00112e23    	SW     x1, 4294967264(x2)

--------------------------------------
01000038:  	00812c23    	SW     x8, 28(x2)

--------------------------------------
0100003c:  	00a12623    	SW     x10, 24(x2)

--------------------------------------
01000040:  	00c12703    	LW     x14, 12(x2)
Insns: 00000000110000010010011100000011 at PC_x=01000040

--------------------------------------
01000044:  	00100793    	ADDI   x15, x0, 12
Insns: 00000000000100000000011110010011 at PC_x=01000044

--------------------------------------
01000048:  	00e7c663    	BLT    x15, x14, 1000049

--------------------------------------
0100004c:  	00c12783    	LW     x15, 12(x2)
Insns: 00000000110000010010011110000011 at PC_x=0100004c

--------------------------------------
01000050:  	0300006f    	JAL    x0, 100005c

--------------------------------------
01000080:  	00078513    	ADDI   x10, x15, 48
Insns: 00000000000001111000010100010011 at PC_x=01000080

--------------------------------------
01000084:  	01c12083    	LW     x1, 0(x2)
Insns: 00000001110000010010000010000011 at PC_x=01000084

--------------------------------------
01000088:  	01812403    	LW     x8, 28(x2)
Insns: 00000001100000010010010000000011 at PC_x=01000088

--------------------------------------
0100008c:  	02010113    	ADDI   x2, x2, 24
Insns: 00000010000000010000000100010011 at PC_x=0100008c

--------------------------------------
01000090:  	00008067    	JALR   x0, 32(x1)
Insns: 00000000000000001000000001100111 at PC_x=01000090

--------------------------------------
01000078:  	00050793    	ADDI   x15, x10, 0
Insns: 00000000000001010000011110010011 at PC_x=01000078

--------------------------------------
0100007c:  	00f407b3    	ADD    x15, x8, x15

--------------------------------------
01000080:  	00078513    	ADDI   x10, x15, 0
Insns: 00000000000001111000010100010011 at PC_x=01000080

--------------------------------------
01000084:  	01c12083    	LW     x1, 0(x2)
Insns: 00000001110000010010000010000011 at PC_x=01000084

--------------------------------------
01000088:  	01812403    	LW     x8, 28(x2)
Insns: 00000001100000010010010000000011 at PC_x=01000088

--------------------------------------
0100008c:  	02010113    	ADDI   x2, x2, 24
Insns: 00000010000000010000000100010011 at PC_x=0100008c

--------------------------------------
01000090:  	00008067    	JALR   x0, 32(x1)
Insns: 00000000000000001000000001100111 at PC_x=01000090

--------------------------------------
01000078:  	00050793    	ADDI   x15, x10, 0
Insns: 00000000000001010000011110010011 at PC_x=01000078

--------------------------------------
0100007c:  	00f407b3    	ADD    x15, x8, x15

--------------------------------------
01000080:  	00078513    	ADDI   x10, x15, 15
Insns: 00000000000001111000010100010011 at PC_x=01000080

--------------------------------------
01000084:  	01c12083    	LW     x1, 0(x2)
Insns: 00000001110000010010000010000011 at PC_x=01000084

--------------------------------------
01000088:  	01812403    	LW     x8, 28(x2)
Insns: 00000001100000010010010000000011 at PC_x=01000088

--------------------------------------
0100008c:  	02010113    	ADDI   x2, x2, 24
Insns: 00000010000000010000000100010011 at PC_x=0100008c

--------------------------------------
01000090:  	00008067    	JALR   x0, 32(x1)
Insns: 00000000000000001000000001100111 at PC_x=01000090

--------------------------------------
01000078:  	00050793    	ADDI   x15, x10, 0
Insns: 00000000000001010000011110010011 at PC_x=01000078

--------------------------------------
0100007c:  	00f407b3    	ADD    x15, x8, x15

--------------------------------------
01000080:  	00078513    	ADDI   x10, x15, 0
Insns: 00000000000001111000010100010011 at PC_x=01000080

--------------------------------------
01000084:  	01c12083    	LW     x1, 0(x2)
Insns: 00000001110000010010000010000011 at PC_x=01000084

--------------------------------------
01000088:  	01812403    	LW     x8, 28(x2)
Insns: 00000001100000010010010000000011 at PC_x=01000088

--------------------------------------
0100008c:  	02010113    	ADDI   x2, x2, 24
Insns: 00000010000000010000000100010011 at PC_x=0100008c

--------------------------------------
01000090:  	00008067    	JALR   x0, 32(x1)
Insns: 00000000000000001000000001100111 at PC_x=01000090

--------------------------------------
01000078:  	00050793    	ADDI   x15, x10, 0
Insns: 00000000000001010000011110010011 at PC_x=01000078

--------------------------------------
0100007c:  	00f407b3    	ADD    x15, x8, x15

--------------------------------------
01000080:  	00078513    	ADDI   x10, x15, 15
Insns: 00000000000001111000010100010011 at PC_x=01000080

--------------------------------------
01000084:  	01c12083    	LW     x1, 0(x2)
Insns: 00000001110000010010000010000011 at PC_x=01000084

--------------------------------------
01000088:  	01812403    	LW     x8, 28(x2)
Insns: 00000001100000010010010000000011 at PC_x=01000088

--------------------------------------
0100008c:  	02010113    	ADDI   x2, x2, 24
Insns: 00000010000000010000000100010011 at PC_x=0100008c

--------------------------------------
01000090:  	00008067    	JALR   x0, 32(x1)
Insns: 00000000000000001000000001100111 at PC_x=01000090

--------------------------------------
01000064:  	00050413    	ADDI   x8, x10, 0
Insns: 00000000000001010000010000010011 at PC_x=01000064

--------------------------------------
01000068:  	00c12783    	LW     x15, 0(x2)
Insns: 00000000110000010010011110000011 at PC_x=01000068

--------------------------------------
0100006c:  	ffe78793    	ADDI   x15, x15, 12
Insns: 11111111111001111000011110010011 at PC_x=0100006c

--------------------------------------
01000070:  	00078513    	ADDI   x10, x15, 4294967294
Insns: 00000000000001111000010100010011 at PC_x=01000070

--------------------------------------
01000074:  	fbdff0ef    	JAL    x1, 1000074

--------------------------------------
01000030:  	fe010113    	ADDI   x2, x2, 4294967229
Insns: 11111110000000010000000100010011 at PC_x=01000030

--------------------------------------
01000034:  	00112e23    	SW     x1, 4294967264(x2)

--------------------------------------
01000038:  	00812c23    	SW     x8, 28(x2)

--------------------------------------
0100003c:  	00a12623    	SW     x10, 24(x2)

--------------------------------------
01000040:  	00c12703    	LW     x14, 12(x2)
Insns: 00000000110000010010011100000011 at PC_x=01000040

--------------------------------------
01000044:  	00100793    	ADDI   x15, x0, 12
Insns: 00000000000100000000011110010011 at PC_x=01000044

--------------------------------------
01000048:  	00e7c663    	BLT    x15, x14, 1000049

--------------------------------------
01000054:  	00c12783    	LW     x15, 12(x2)
Insns: 00000000110000010010011110000011 at PC_x=01000054

--------------------------------------
01000058:  	fff78793    	ADDI   x15, x15, 12
Insns: 11111111111101111000011110010011 at PC_x=01000058

--------------------------------------
0100005c:  	00078513    	ADDI   x10, x15, 4294967295
Insns: 00000000000001111000010100010011 at PC_x=0100005c

--------------------------------------
01000060:  	fd1ff0ef    	JAL    x1, 1000060

--------------------------------------
01000030:  	fe010113    	ADDI   x2, x2, 4294967248
Insns: 11111110000000010000000100010011 at PC_x=01000030

--------------------------------------
01000034:  	00112e23    	SW     x1, 4294967264(x2)

--------------------------------------
01000038:  	00812c23    	SW     x8, 28(x2)

--------------------------------------
0100003c:  	00a12623    	SW     x10, 24(x2)

--------------------------------------
01000040:  	00c12703    	LW     x14, 12(x2)
Insns: 00000000110000010010011100000011 at PC_x=01000040

--------------------------------------
01000044:  	00100793    	ADDI   x15, x0, 12
Insns: 00000000000100000000011110010011 at PC_x=01000044

--------------------------------------
01000048:  	00e7c663    	BLT    x15, x14, 1000049

--------------------------------------
01000054:  	00c12783    	LW     x15, 12(x2)
Insns: 00000000110000010010011110000011 at PC_x=01000054

--------------------------------------
01000058:  	fff78793    	ADDI   x15, x15, 12
Insns: 11111111111101111000011110010011 at PC_x=01000058

--------------------------------------
0100005c:  	00078513    	ADDI   x10, x15, 4294967295
Insns: 00000000000001111000010100010011 at PC_x=0100005c

--------------------------------------
01000060:  	fd1ff0ef    	JAL    x1, 1000060

--------------------------------------
01000030:  	fe010113    	ADDI   x2, x2, 4294967249
Insns: 11111110000000010000000100010011 at PC_x=01000030

--------------------------------------
01000034:  	00112e23    	SW     x1, 4294967264(x2)

--------------------------------------
01000038:  	00812c23    	SW     x8, 28(x2)

--------------------------------------
0100003c:  	00a12623    	SW     x10, 24(x2)

--------------------------------------
01000040:  	00c12703    	LW     x14, 12(x2)
Insns: 00000000110000010010011100000011 at PC_x=01000040

--------------------------------------
01000044:  	00100793    	ADDI   x15, x0, 12
Insns: 00000000000100000000011110010011 at PC_x=01000044

--------------------------------------
01000048:  	00e7c663    	BLT    x15, x14, 1000049

--------------------------------------
01000054:  	00c12783    	LW     x15, 12(x2)
Insns: 00000000110000010010011110000011 at PC_x=01000054

--------------------------------------
01000058:  	fff78793    	ADDI   x15, x15, 12
Insns: 11111111111101111000011110010011 at PC_x=01000058

--------------------------------------
0100005c:  	00078513    	ADDI   x10, x15, 4294967295
Insns: 00000000000001111000010100010011 at PC_x=0100005c

--------------------------------------
01000060:  	fd1ff0ef    	JAL    x1, 1000060

--------------------------------------
01000030:  	fe010113    	ADDI   x2, x2, 4294967248
Insns: 11111110000000010000000100010011 at PC_x=01000030

--------------------------------------
01000034:  	00112e23    	SW     x1, 4294967264(x2)

--------------------------------------
01000038:  	00812c23    	SW     x8, 28(x2)

--------------------------------------
0100003c:  	00a12623    	SW     x10, 24(x2)

--------------------------------------
01000040:  	00c12703    	LW     x14, 12(x2)
Insns: 00000000110000010010011100000011 at PC_x=01000040

--------------------------------------
01000044:  	00100793    	ADDI   x15, x0, 12
Insns: 00000000000100000000011110010011 at PC_x=01000044

--------------------------------------
01000048:  	00e7c663    	BLT    x15, x14, 1000049

--------------------------------------
01000054:  	00c12783    	LW     x15, 12(x2)
Insns: 00000000110000010010011110000011 at PC_x=01000054

--------------------------------------
01000058:  	fff78793    	ADDI   x15, x15, 12
Insns: 11111111111101111000011110010011 at PC_x=01000058

--------------------------------------
0100005c:  	00078513    	ADDI   x10, x15, 4294967295
Insns: 00000000000001111000010100010011 at PC_x=0100005c

--------------------------------------
01000060:  	fd1ff0ef    	JAL    x1, 1000060

--------------------------------------
01000030:  	fe010113    	ADDI   x2, x2, 4294967249
Insns: 11111110000000010000000100010011 at PC_x=01000030

--------------------------------------
01000034:  	00112e23    	SW     x1, 4294967264(x2)

--------------------------------------
01000038:  	00812c23    	SW     x8, 28(x2)

--------------------------------------
0100003c:  	00a12623    	SW     x10, 24(x2)

--------------------------------------
01000040:  	00c12703    	LW     x14, 12(x2)
Insns: 00000000110000010010011100000011 at PC_x=01000040

--------------------------------------
01000044:  	00100793    	ADDI   x15, x0, 12
Insns: 00000000000100000000011110010011 at PC_x=01000044

--------------------------------------
01000048:  	00e7c663    	BLT    x15, x14, 1000049

--------------------------------------
01000054:  	00c12783    	LW     x15, 12(x2)
Insns: 00000000110000010010011110000011 at PC_x=01000054

--------------------------------------
01000058:  	fff78793    	ADDI   x15, x15, 12
Insns: 11111111111101111000011110010011 at PC_x=01000058

--------------------------------------
0100005c:  	00078513    	ADDI   x10, x15, 4294967295
Insns: 00000000000001111000010100010011 at PC_x=0100005c

--------------------------------------
01000060:  	fd1ff0ef    	JAL    x1, 1000060

--------------------------------------
01000030:  	fe010113    	ADDI   x2, x2, 4294967248
Insns: 11111110000000010000000100010011 at PC_x=01000030

--------------------------------------
01000034:  	00112e23    	SW     x1, 4294967264(x2)

--------------------------------------
01000038:  	00812c23    	SW     x8, 28(x2)

--------------------------------------
0100003c:  	00a12623    	SW     x10, 24(x2)

--------------------------------------
01000040:  	00c12703    	LW     x14, 12(x2)
Insns: 00000000110000010010011100000011 at PC_x=01000040

--------------------------------------
01000044:  	00100793    	ADDI   x15, x0, 12
Insns: 00000000000100000000011110010011 at PC_x=01000044

--------------------------------------
01000048:  	00e7c663    	BLT    x15, x14, 1000049

--------------------------------------
01000054:  	00c12783    	LW     x15, 12(x2)
Insns: 00000000110000010010011110000011 at PC_x=01000054

--------------------------------------
01000058:  	fff78793    	ADDI   x15, x15, 12
Insns: 11111111111101111000011110010011 at PC_x=01000058

--------------------------------------
0100005c:  	00078513    	ADDI   x10, x15, 4294967295
Insns: 00000000000001111000010100010011 at PC_x=0100005c

--------------------------------------
01000060:  	fd1ff0ef    	JAL    x1, 1000060

--------------------------------------
01000030:  	fe010113    	ADDI   x2, x2, 4294967249
Insns: 11111110000000010000000100010011 at PC_x=01000030

--------------------------------------
01000034:  	00112e23    	SW     x1, 4294967264(x2)

--------------------------------------
01000038:  	00812c23    	SW     x8, 28(x2)

--------------------------------------
0100003c:  	00a12623    	SW     x10, 24(x2)

--------------------------------------
01000040:  	00c12703    	LW     x14, 12(x2)
Insns: 00000000110000010010011100000011 at PC_x=01000040

--------------------------------------
01000044:  	00100793    	ADDI   x15, x0, 12
Insns: 00000000000100000000011110010011 at PC_x=01000044

--------------------------------------
01000048:  	00e7c663    	BLT    x15, x14, 1000049

--------------------------------------
0100004c:  	00c12783    	LW     x15, 12(x2)
Insns: 00000000110000010010011110000011 at PC_x=0100004c

--------------------------------------
01000050:  	0300006f    	JAL    x0, 100005c

--------------------------------------
01000080:  	00078513    	ADDI   x10, x15, 48
Insns: 00000000000001111000010100010011 at PC_x=01000080

--------------------------------------
01000084:  	01c12083    	LW     x1, 0(x2)
Insns: 00000001110000010010000010000011 at PC_x=01000084

--------------------------------------
01000088:  	01812403    	LW     x8, 28(x2)
Insns: 00000001100000010010010000000011 at PC_x=01000088

--------------------------------------
0100008c:  	02010113    	ADDI   x2, x2, 24
Insns: 00000010000000010000000100010011 at PC_x=0100008c

--------------------------------------
01000090:  	00008067    	JALR   x0, 32(x1)
Insns: 00000000000000001000000001100111 at PC_x=01000090

--------------------------------------
01000064:  	00050413    	ADDI   x8, x10, 0
Insns: 00000000000001010000010000010011 at PC_x=01000064

--------------------------------------
01000068:  	00c12783    	LW     x15, 0(x2)
Insns: 00000000110000010010011110000011 at PC_x=01000068

--------------------------------------
0100006c:  	ffe78793    	ADDI   x15, x15, 12
Insns: 11111111111001111000011110010011 at PC_x=0100006c

--------------------------------------
01000070:  	00078513    	ADDI   x10, x15, 4294967294
Insns: 00000000000001111000010100010011 at PC_x=01000070

--------------------------------------
01000074:  	fbdff0ef    	JAL    x1, 1000074

--------------------------------------
01000030:  	fe010113    	ADDI   x2, x2, 4294967228
Insns: 11111110000000010000000100010011 at PC_x=01000030

--------------------------------------
01000034:  	00112e23    	SW     x1, 4294967264(x2)

--------------------------------------
01000038:  	00812c23    	SW     x8, 28(x2)

--------------------------------------
0100003c:  	00a12623    	SW     x10, 24(x2)

--------------------------------------
01000040:  	00c12703    	LW     x14, 12(x2)
Insns: 00000000110000010010011100000011 at PC_x=01000040

--------------------------------------
01000044:  	00100793    	ADDI   x15, x0, 12
Insns: 00000000000100000000011110010011 at PC_x=01000044

--------------------------------------
01000048:  	00e7c663    	BLT    x15, x14, 1000049

--------------------------------------
0100004c:  	00c12783    	LW     x15, 12(x2)
Insns: 00000000110000010010011110000011 at PC_x=0100004c

--------------------------------------
01000050:  	0300006f    	JAL    x0, 100005c

--------------------------------------
01000080:  	00078513    	ADDI   x10, x15, 48
Insns: 00000000000001111000010100010011 at PC_x=01000080

--------------------------------------
01000084:  	01c12083    	LW     x1, 0(x2)
Insns: 00000001110000010010000010000011 at PC_x=01000084

--------------------------------------
01000088:  	01812403    	LW     x8, 28(x2)
Insns: 00000001100000010010010000000011 at PC_x=01000088

--------------------------------------
0100008c:  	02010113    	ADDI   x2, x2, 24
Insns: 00000010000000010000000100010011 at PC_x=0100008c

--------------------------------------
01000090:  	00008067    	JALR   x0, 32(x1)
Insns: 00000000000000001000000001100111 at PC_x=01000090

--------------------------------------
01000078:  	00050793    	ADDI   x15, x10, 0
Insns: 00000000000001010000011110010011 at PC_x=01000078

--------------------------------------
0100007c:  	00f407b3    	ADD    x15, x8, x15

--------------------------------------
01000080:  	00078513    	ADDI   x10, x15, 0
Insns: 00000000000001111000010100010011 at PC_x=01000080

--------------------------------------
01000084:  	01c12083    	LW     x1, 0(x2)
Insns: 00000001110000010010000010000011 at PC_x=01000084

--------------------------------------
01000088:  	01812403    	LW     x8, 28(x2)
Insns: 00000001100000010010010000000011 at PC_x=01000088

--------------------------------------
0100008c:  	02010113    	ADDI   x2, x2, 24
Insns: 00000010000000010000000100010011 at PC_x=0100008c

--------------------------------------
01000090:  	00008067    	JALR   x0, 32(x1)
Insns: 00000000000000001000000001100111 at PC_x=01000090

--------------------------------------
01000064:  	00050413    	ADDI   x8, x10, 0
Insns: 00000000000001010000010000010011 at PC_x=01000064

--------------------------------------
01000068:  	00c12783    	LW     x15, 0(x2)
Insns: 00000000110000010010011110000011 at PC_x=01000068

--------------------------------------
0100006c:  	ffe78793    	ADDI   x15, x15, 12
Insns: 11111111111001111000011110010011 at PC_x=0100006c

--------------------------------------
01000070:  	00078513    	ADDI   x10, x15, 4294967294
Insns: 00000000000001111000010100010011 at PC_x=01000070

--------------------------------------
01000074:  	fbdff0ef    	JAL    x1, 1000074

--------------------------------------
01000030:  	fe010113    	ADDI   x2, x2, 4294967228
Insns: 11111110000000010000000100010011 at PC_x=01000030

--------------------------------------
01000034:  	00112e23    	SW     x1, 4294967264(x2)

--------------------------------------
01000038:  	00812c23    	SW     x8, 28(x2)

--------------------------------------
0100003c:  	00a12623    	SW     x10, 24(x2)

--------------------------------------
01000040:  	00c12703    	LW     x14, 12(x2)
Insns: 00000000110000010010011100000011 at PC_x=01000040

--------------------------------------
01000044:  	00100793    	ADDI   x15, x0, 12
Insns: 00000000000100000000011110010011 at PC_x=01000044

--------------------------------------
01000048:  	00e7c663    	BLT    x15, x14, 1000049

--------------------------------------
0100004c:  	00c12783    	LW     x15, 12(x2)
Insns: 00000000110000010010011110000011 at PC_x=0100004c

--------------------------------------
01000050:  	0300006f    	JAL    x0, 100005c

--------------------------------------
01000080:  	00078513    	ADDI   x10, x15, 48
Insns: 00000000000001111000010100010011 at PC_x=01000080

--------------------------------------
01000084:  	01c12083    	LW     x1, 0(x2)
Insns: 00000001110000010010000010000011 at PC_x=01000084

--------------------------------------
01000088:  	01812403    	LW     x8, 28(x2)
Insns: 00000001100000010010010000000011 at PC_x=01000088

--------------------------------------
0100008c:  	02010113    	ADDI   x2, x2, 24
Insns: 00000010000000010000000100010011 at PC_x=0100008c

--------------------------------------
01000090:  	00008067    	JALR   x0, 32(x1)
Insns: 00000000000000001000000001100111 at PC_x=01000090

--------------------------------------
01000078:  	00050793    	ADDI   x15, x10, 0
Insns: 00000000000001010000011110010011 at PC_x=01000078

--------------------------------------
0100007c:  	00f407b3    	ADD    x15, x8, x15

--------------------------------------
01000080:  	00078513    	ADDI   x10, x15, 0
Insns: 00000000000001111000010100010011 at PC_x=01000080

--------------------------------------
01000084:  	01c12083    	LW     x1, 0(x2)
Insns: 00000001110000010010000010000011 at PC_x=01000084

--------------------------------------
01000088:  	01812403    	LW     x8, 28(x2)
Insns: 00000001100000010010010000000011 at PC_x=01000088

--------------------------------------
0100008c:  	02010113    	ADDI   x2, x2, 24
Insns: 00000010000000010000000100010011 at PC_x=0100008c

--------------------------------------
01000090:  	00008067    	JALR   x0, 32(x1)
Insns: 00000000000000001000000001100111 at PC_x=01000090

--------------------------------------
01000064:  	00050413    	ADDI   x8, x10, 0
Insns: 00000000000001010000010000010011 at PC_x=01000064

--------------------------------------
01000068:  	00c12783    	LW     x15, 0(x2)
Insns: 00000000110000010010011110000011 at PC_x=01000068

--------------------------------------
0100006c:  	ffe78793    	ADDI   x15, x15, 12
Insns: 11111111111001111000011110010011 at PC_x=0100006c

--------------------------------------
01000070:  	00078513    	ADDI   x10, x15, 4294967294
Insns: 00000000000001111000010100010011 at PC_x=01000070

--------------------------------------
01000074:  	fbdff0ef    	JAL    x1, 1000074

--------------------------------------
01000030:  	fe010113    	ADDI   x2, x2, 4294967228
Insns: 11111110000000010000000100010011 at PC_x=01000030

--------------------------------------
01000034:  	00112e23    	SW     x1, 4294967264(x2)

--------------------------------------
01000038:  	00812c23    	SW     x8, 28(x2)

--------------------------------------
0100003c:  	00a12623    	SW     x10, 24(x2)

--------------------------------------
01000040:  	00c12703    	LW     x14, 12(x2)
Insns: 00000000110000010010011100000011 at PC_x=01000040

--------------------------------------
01000044:  	00100793    	ADDI   x15, x0, 12
Insns: 00000000000100000000011110010011 at PC_x=01000044

--------------------------------------
01000048:  	00e7c663    	BLT    x15, x14, 1000049

--------------------------------------
01000054:  	00c12783    	LW     x15, 12(x2)
Insns: 00000000110000010010011110000011 at PC_x=01000054

--------------------------------------
01000058:  	fff78793    	ADDI   x15, x15, 12
Insns: 11111111111101111000011110010011 at PC_x=01000058

--------------------------------------
0100005c:  	00078513    	ADDI   x10, x15, 4294967295
Insns: 00000000000001111000010100010011 at PC_x=0100005c

--------------------------------------
01000060:  	fd1ff0ef    	JAL    x1, 1000060

--------------------------------------
01000030:  	fe010113    	ADDI   x2, x2, 4294967249
Insns: 11111110000000010000000100010011 at PC_x=01000030

--------------------------------------
01000034:  	00112e23    	SW     x1, 4294967264(x2)

--------------------------------------
01000038:  	00812c23    	SW     x8, 28(x2)

--------------------------------------
0100003c:  	00a12623    	SW     x10, 24(x2)

--------------------------------------
01000040:  	00c12703    	LW     x14, 12(x2)
Insns: 00000000110000010010011100000011 at PC_x=01000040

--------------------------------------
01000044:  	00100793    	ADDI   x15, x0, 12
Insns: 00000000000100000000011110010011 at PC_x=01000044

--------------------------------------
01000048:  	00e7c663    	BLT    x15, x14, 1000049

--------------------------------------
0100004c:  	00c12783    	LW     x15, 12(x2)
Insns: 00000000110000010010011110000011 at PC_x=0100004c

--------------------------------------
01000050:  	0300006f    	JAL    x0, 100005c

--------------------------------------
01000080:  	00078513    	ADDI   x10, x15, 48
Insns: 00000000000001111000010100010011 at PC_x=01000080

--------------------------------------
01000084:  	01c12083    	LW     x1, 0(x2)
Insns: 00000001110000010010000010000011 at PC_x=01000084

--------------------------------------
01000088:  	01812403    	LW     x8, 28(x2)
Insns: 00000001100000010010010000000011 at PC_x=01000088

--------------------------------------
0100008c:  	02010113    	ADDI   x2, x2, 24
Insns: 00000010000000010000000100010011 at PC_x=0100008c

--------------------------------------
01000090:  	00008067    	JALR   x0, 32(x1)
Insns: 00000000000000001000000001100111 at PC_x=01000090

--------------------------------------
01000064:  	00050413    	ADDI   x8, x10, 0
Insns: 00000000000001010000010000010011 at PC_x=01000064

--------------------------------------
01000068:  	00c12783    	LW     x15, 0(x2)
Insns: 00000000110000010010011110000011 at PC_x=01000068

--------------------------------------
0100006c:  	ffe78793    	ADDI   x15, x15, 12
Insns: 11111111111001111000011110010011 at PC_x=0100006c

--------------------------------------
01000070:  	00078513    	ADDI   x10, x15, 4294967294
Insns: 00000000000001111000010100010011 at PC_x=01000070

--------------------------------------
01000074:  	fbdff0ef    	JAL    x1, 1000074

--------------------------------------
01000030:  	fe010113    	ADDI   x2, x2, 4294967228
Insns: 11111110000000010000000100010011 at PC_x=01000030

--------------------------------------
01000034:  	00112e23    	SW     x1, 4294967264(x2)

--------------------------------------
01000038:  	00812c23    	SW     x8, 28(x2)

--------------------------------------
0100003c:  	00a12623    	SW     x10, 24(x2)

--------------------------------------
01000040:  	00c12703    	LW     x14, 12(x2)
Insns: 00000000110000010010011100000011 at PC_x=01000040

--------------------------------------
01000044:  	00100793    	ADDI   x15, x0, 12
Insns: 00000000000100000000011110010011 at PC_x=01000044

--------------------------------------
01000048:  	00e7c663    	BLT    x15, x14, 1000049

--------------------------------------
0100004c:  	00c12783    	LW     x15, 12(x2)
Insns: 00000000110000010010011110000011 at PC_x=0100004c

--------------------------------------
01000050:  	0300006f    	JAL    x0, 100005c

--------------------------------------
01000080:  	00078513    	ADDI   x10, x15, 48
Insns: 00000000000001111000010100010011 at PC_x=01000080

--------------------------------------
01000084:  	01c12083    	LW     x1, 0(x2)
Insns: 00000001110000010010000010000011 at PC_x=01000084

--------------------------------------
01000088:  	01812403    	LW     x8, 28(x2)
Insns: 00000001100000010010010000000011 at PC_x=01000088

--------------------------------------
0100008c:  	02010113    	ADDI   x2, x2, 24
Insns: 00000010000000010000000100010011 at PC_x=0100008c

--------------------------------------
01000090:  	00008067    	JALR   x0, 32(x1)
Insns: 00000000000000001000000001100111 at PC_x=01000090

--------------------------------------
01000078:  	00050793    	ADDI   x15, x10, 0
Insns: 00000000000001010000011110010011 at PC_x=01000078

--------------------------------------
0100007c:  	00f407b3    	ADD    x15, x8, x15

--------------------------------------
01000080:  	00078513    	ADDI   x10, x15, 0
Insns: 00000000000001111000010100010011 at PC_x=01000080

--------------------------------------
01000084:  	01c12083    	LW     x1, 0(x2)
Insns: 00000001110000010010000010000011 at PC_x=01000084

--------------------------------------
01000088:  	01812403    	LW     x8, 28(x2)
Insns: 00000001100000010010010000000011 at PC_x=01000088

--------------------------------------
0100008c:  	02010113    	ADDI   x2, x2, 24
Insns: 00000010000000010000000100010011 at PC_x=0100008c

--------------------------------------
01000090:  	00008067    	JALR   x0, 32(x1)
Insns: 00000000000000001000000001100111 at PC_x=01000090

--------------------------------------
01000078:  	00050793    	ADDI   x15, x10, 0
Insns: 00000000000001010000011110010011 at PC_x=01000078

--------------------------------------
0100007c:  	00f407b3    	ADD    x15, x8, x15

--------------------------------------
01000080:  	00078513    	ADDI   x10, x15, 15
Insns: 00000000000001111000010100010011 at PC_x=01000080

--------------------------------------
01000084:  	01c12083    	LW     x1, 0(x2)
Insns: 00000001110000010010000010000011 at PC_x=01000084

--------------------------------------
01000088:  	01812403    	LW     x8, 28(x2)
Insns: 00000001100000010010010000000011 at PC_x=01000088

--------------------------------------
0100008c:  	02010113    	ADDI   x2, x2, 24
Insns: 00000010000000010000000100010011 at PC_x=0100008c

--------------------------------------
01000090:  	00008067    	JALR   x0, 32(x1)
Insns: 00000000000000001000000001100111 at PC_x=01000090

--------------------------------------
01000064:  	00050413    	ADDI   x8, x10, 0
Insns: 00000000000001010000010000010011 at PC_x=01000064

--------------------------------------
01000068:  	00c12783    	LW     x15, 0(x2)
Insns: 00000000110000010010011110000011 at PC_x=01000068

--------------------------------------
0100006c:  	ffe78793    	ADDI   x15, x15, 12
Insns: 11111111111001111000011110010011 at PC_x=0100006c

--------------------------------------
01000070:  	00078513    	ADDI   x10, x15, 4294967294
Insns: 00000000000001111000010100010011 at PC_x=01000070

--------------------------------------
01000074:  	fbdff0ef    	JAL    x1, 1000074

--------------------------------------
01000030:  	fe010113    	ADDI   x2, x2, 4294967229
Insns: 11111110000000010000000100010011 at PC_x=01000030

--------------------------------------
01000034:  	00112e23    	SW     x1, 4294967264(x2)

--------------------------------------
01000038:  	00812c23    	SW     x8, 28(x2)

--------------------------------------
0100003c:  	00a12623    	SW     x10, 24(x2)

--------------------------------------
01000040:  	00c12703    	LW     x14, 12(x2)
Insns: 00000000110000010010011100000011 at PC_x=01000040

--------------------------------------
01000044:  	00100793    	ADDI   x15, x0, 12
Insns: 00000000000100000000011110010011 at PC_x=01000044

--------------------------------------
01000048:  	00e7c663    	BLT    x15, x14, 1000049

--------------------------------------
01000054:  	00c12783    	LW     x15, 12(x2)
Insns: 00000000110000010010011110000011 at PC_x=01000054

--------------------------------------
01000058:  	fff78793    	ADDI   x15, x15, 12
Insns: 11111111111101111000011110010011 at PC_x=01000058

--------------------------------------
0100005c:  	00078513    	ADDI   x10, x15, 4294967295
Insns: 00000000000001111000010100010011 at PC_x=0100005c

--------------------------------------
01000060:  	fd1ff0ef    	JAL    x1, 1000060

--------------------------------------
01000030:  	fe010113    	ADDI   x2, x2, 4294967248
Insns: 11111110000000010000000100010011 at PC_x=01000030

--------------------------------------
01000034:  	00112e23    	SW     x1, 4294967264(x2)

--------------------------------------
01000038:  	00812c23    	SW     x8, 28(x2)

--------------------------------------
0100003c:  	00a12623    	SW     x10, 24(x2)

--------------------------------------
01000040:  	00c12703    	LW     x14, 12(x2)
Insns: 00000000110000010010011100000011 at PC_x=01000040

--------------------------------------
01000044:  	00100793    	ADDI   x15, x0, 12
Insns: 00000000000100000000011110010011 at PC_x=01000044

--------------------------------------
01000048:  	00e7c663    	BLT    x15, x14, 1000049

--------------------------------------
01000054:  	00c12783    	LW     x15, 12(x2)
Insns: 00000000110000010010011110000011 at PC_x=01000054

--------------------------------------
01000058:  	fff78793    	ADDI   x15, x15, 12
Insns: 11111111111101111000011110010011 at PC_x=01000058

--------------------------------------
0100005c:  	00078513    	ADDI   x10, x15, 4294967295
Insns: 00000000000001111000010100010011 at PC_x=0100005c

--------------------------------------
01000060:  	fd1ff0ef    	JAL    x1, 1000060

--------------------------------------
01000030:  	fe010113    	ADDI   x2, x2, 4294967249
Insns: 11111110000000010000000100010011 at PC_x=01000030

--------------------------------------
01000034:  	00112e23    	SW     x1, 4294967264(x2)

--------------------------------------
01000038:  	00812c23    	SW     x8, 28(x2)

--------------------------------------
0100003c:  	00a12623    	SW     x10, 24(x2)

--------------------------------------
01000040:  	00c12703    	LW     x14, 12(x2)
Insns: 00000000110000010010011100000011 at PC_x=01000040

--------------------------------------
01000044:  	00100793    	ADDI   x15, x0, 12
Insns: 00000000000100000000011110010011 at PC_x=01000044

--------------------------------------
01000048:  	00e7c663    	BLT    x15, x14, 1000049

--------------------------------------
0100004c:  	00c12783    	LW     x15, 12(x2)
Insns: 00000000110000010010011110000011 at PC_x=0100004c

--------------------------------------
01000050:  	0300006f    	JAL    x0, 100005c

--------------------------------------
01000080:  	00078513    	ADDI   x10, x15, 48
Insns: 00000000000001111000010100010011 at PC_x=01000080

--------------------------------------
01000084:  	01c12083    	LW     x1, 0(x2)
Insns: 00000001110000010010000010000011 at PC_x=01000084

--------------------------------------
01000088:  	01812403    	LW     x8, 28(x2)
Insns: 00000001100000010010010000000011 at PC_x=01000088

--------------------------------------
0100008c:  	02010113    	ADDI   x2, x2, 24
Insns: 00000010000000010000000100010011 at PC_x=0100008c

--------------------------------------
01000090:  	00008067    	JALR   x0, 32(x1)
Insns: 00000000000000001000000001100111 at PC_x=01000090

--------------------------------------
01000064:  	00050413    	ADDI   x8, x10, 0
Insns: 00000000000001010000010000010011 at PC_x=01000064

--------------------------------------
01000068:  	00c12783    	LW     x15, 0(x2)
Insns: 00000000110000010010011110000011 at PC_x=01000068

--------------------------------------
0100006c:  	ffe78793    	ADDI   x15, x15, 12
Insns: 11111111111001111000011110010011 at PC_x=0100006c

--------------------------------------
01000070:  	00078513    	ADDI   x10, x15, 4294967294
Insns: 00000000000001111000010100010011 at PC_x=01000070

--------------------------------------
01000074:  	fbdff0ef    	JAL    x1, 1000074

--------------------------------------
01000030:  	fe010113    	ADDI   x2, x2, 4294967228
Insns: 11111110000000010000000100010011 at PC_x=01000030

--------------------------------------
01000034:  	00112e23    	SW     x1, 4294967264(x2)

--------------------------------------
01000038:  	00812c23    	SW     x8, 28(x2)

--------------------------------------
0100003c:  	00a12623    	SW     x10, 24(x2)

--------------------------------------
01000040:  	00c12703    	LW     x14, 12(x2)
Insns: 00000000110000010010011100000011 at PC_x=01000040

--------------------------------------
01000044:  	00100793    	ADDI   x15, x0, 12
Insns: 00000000000100000000011110010011 at PC_x=01000044

--------------------------------------
01000048:  	00e7c663    	BLT    x15, x14, 1000049

--------------------------------------
0100004c:  	00c12783    	LW     x15, 12(x2)
Insns: 00000000110000010010011110000011 at PC_x=0100004c

--------------------------------------
01000050:  	0300006f    	JAL    x0, 100005c

--------------------------------------
01000080:  	00078513    	ADDI   x10, x15, 48
Insns: 00000000000001111000010100010011 at PC_x=01000080

--------------------------------------
01000084:  	01c12083    	LW     x1, 0(x2)
Insns: 00000001110000010010000010000011 at PC_x=01000084

--------------------------------------
01000088:  	01812403    	LW     x8, 28(x2)
Insns: 00000001100000010010010000000011 at PC_x=01000088

--------------------------------------
0100008c:  	02010113    	ADDI   x2, x2, 24
Insns: 00000010000000010000000100010011 at PC_x=0100008c

--------------------------------------
01000090:  	00008067    	JALR   x0, 32(x1)
Insns: 00000000000000001000000001100111 at PC_x=01000090

--------------------------------------
01000078:  	00050793    	ADDI   x15, x10, 0
Insns: 00000000000001010000011110010011 at PC_x=01000078

--------------------------------------
0100007c:  	00f407b3    	ADD    x15, x8, x15

--------------------------------------
01000080:  	00078513    	ADDI   x10, x15, 0
Insns: 00000000000001111000010100010011 at PC_x=01000080

--------------------------------------
01000084:  	01c12083    	LW     x1, 0(x2)
Insns: 00000001110000010010000010000011 at PC_x=01000084

--------------------------------------
01000088:  	01812403    	LW     x8, 28(x2)
Insns: 00000001100000010010010000000011 at PC_x=01000088

--------------------------------------
0100008c:  	02010113    	ADDI   x2, x2, 24
Insns: 00000010000000010000000100010011 at PC_x=0100008c

--------------------------------------
01000090:  	00008067    	JALR   x0, 32(x1)
Insns: 00000000000000001000000001100111 at PC_x=01000090

--------------------------------------
01000064:  	00050413    	ADDI   x8, x10, 0
Insns: 00000000000001010000010000010011 at PC_x=01000064

--------------------------------------
01000068:  	00c12783    	LW     x15, 0(x2)
Insns: 00000000110000010010011110000011 at PC_x=01000068

--------------------------------------
0100006c:  	ffe78793    	ADDI   x15, x15, 12
Insns: 11111111111001111000011110010011 at PC_x=0100006c

--------------------------------------
01000070:  	00078513    	ADDI   x10, x15, 4294967294
Insns: 00000000000001111000010100010011 at PC_x=01000070

--------------------------------------
01000074:  	fbdff0ef    	JAL    x1, 1000074

--------------------------------------
01000030:  	fe010113    	ADDI   x2, x2, 4294967228
Insns: 11111110000000010000000100010011 at PC_x=01000030

--------------------------------------
01000034:  	00112e23    	SW     x1, 4294967264(x2)

--------------------------------------
01000038:  	00812c23    	SW     x8, 28(x2)

--------------------------------------
0100003c:  	00a12623    	SW     x10, 24(x2)

--------------------------------------
01000040:  	00c12703    	LW     x14, 12(x2)
Insns: 00000000110000010010011100000011 at PC_x=01000040

--------------------------------------
01000044:  	00100793    	ADDI   x15, x0, 12
Insns: 00000000000100000000011110010011 at PC_x=01000044

--------------------------------------
01000048:  	00e7c663    	BLT    x15, x14, 1000049

--------------------------------------
0100004c:  	00c12783    	LW     x15, 12(x2)
Insns: 00000000110000010010011110000011 at PC_x=0100004c

--------------------------------------
01000050:  	0300006f    	JAL    x0, 100005c

--------------------------------------
01000080:  	00078513    	ADDI   x10, x15, 48
Insns: 00000000000001111000010100010011 at PC_x=01000080

--------------------------------------
01000084:  	01c12083    	LW     x1, 0(x2)
Insns: 00000001110000010010000010000011 at PC_x=01000084

--------------------------------------
01000088:  	01812403    	LW     x8, 28(x2)
Insns: 00000001100000010010010000000011 at PC_x=01000088

--------------------------------------
0100008c:  	02010113    	ADDI   x2, x2, 24
Insns: 00000010000000010000000100010011 at PC_x=0100008c

--------------------------------------
01000090:  	00008067    	JALR   x0, 32(x1)
Insns: 00000000000000001000000001100111 at PC_x=01000090

--------------------------------------
01000078:  	00050793    	ADDI   x15, x10, 0
Insns: 00000000000001010000011110010011 at PC_x=01000078

--------------------------------------
0100007c:  	00f407b3    	ADD    x15, x8, x15

--------------------------------------
01000080:  	00078513    	ADDI   x10, x15, 0
Insns: 00000000000001111000010100010011 at PC_x=01000080

--------------------------------------
01000084:  	01c12083    	LW     x1, 0(x2)
Insns: 00000001110000010010000010000011 at PC_x=01000084

--------------------------------------
01000088:  	01812403    	LW     x8, 28(x2)
Insns: 00000001100000010010010000000011 at PC_x=01000088

--------------------------------------
0100008c:  	02010113    	ADDI   x2, x2, 24
Insns: 00000010000000010000000100010011 at PC_x=0100008c

--------------------------------------
01000090:  	00008067    	JALR   x0, 32(x1)
Insns: 00000000000000001000000001100111 at PC_x=01000090

--------------------------------------
01000078:  	00050793    	ADDI   x15, x10, 0
Insns: 00000000000001010000011110010011 at PC_x=01000078

--------------------------------------
0100007c:  	00f407b3    	ADD    x15, x8, x15

--------------------------------------
01000080:  	00078513    	ADDI   x10, x15, 15
Insns: 00000000000001111000010100010011 at PC_x=01000080

--------------------------------------
01000084:  	01c12083    	LW     x1, 0(x2)
Insns: 00000001110000010010000010000011 at PC_x=01000084

--------------------------------------
01000088:  	01812403    	LW     x8, 28(x2)
Insns: 00000001100000010010010000000011 at PC_x=01000088

--------------------------------------
0100008c:  	02010113    	ADDI   x2, x2, 24
Insns: 00000010000000010000000100010011 at PC_x=0100008c

--------------------------------------
01000090:  	00008067    	JALR   x0, 32(x1)
Insns: 00000000000000001000000001100111 at PC_x=01000090

--------------------------------------
01000064:  	00050413    	ADDI   x8, x10, 0
Insns: 00000000000001010000010000010011 at PC_x=01000064

--------------------------------------
01000068:  	00c12783    	LW     x15, 0(x2)
Insns: 00000000110000010010011110000011 at PC_x=01000068

--------------------------------------
0100006c:  	ffe78793    	ADDI   x15, x15, 12
Insns: 11111111111001111000011110010011 at PC_x=0100006c

--------------------------------------
01000070:  	00078513    	ADDI   x10, x15, 4294967294
Insns: 00000000000001111000010100010011 at PC_x=01000070

--------------------------------------
01000074:  	fbdff0ef    	JAL    x1, 1000074

--------------------------------------
01000030:  	fe010113    	ADDI   x2, x2, 4294967229
Insns: 11111110000000010000000100010011 at PC_x=01000030

--------------------------------------
01000034:  	00112e23    	SW     x1, 4294967264(x2)

--------------------------------------
01000038:  	00812c23    	SW     x8, 28(x2)

--------------------------------------
0100003c:  	00a12623    	SW     x10, 24(x2)

--------------------------------------
01000040:  	00c12703    	LW     x14, 12(x2)
Insns: 00000000110000010010011100000011 at PC_x=01000040

--------------------------------------
01000044:  	00100793    	ADDI   x15, x0, 12
Insns: 00000000000100000000011110010011 at PC_x=01000044

--------------------------------------
01000048:  	00e7c663    	BLT    x15, x14, 1000049

--------------------------------------
01000054:  	00c12783    	LW     x15, 12(x2)
Insns: 00000000110000010010011110000011 at PC_x=01000054

--------------------------------------
01000058:  	fff78793    	ADDI   x15, x15, 12
Insns: 11111111111101111000011110010011 at PC_x=01000058

--------------------------------------
0100005c:  	00078513    	ADDI   x10, x15, 4294967295
Insns: 00000000000001111000010100010011 at PC_x=0100005c

--------------------------------------
01000060:  	fd1ff0ef    	JAL    x1, 1000060

--------------------------------------
01000030:  	fe010113    	ADDI   x2, x2, 4294967248
Insns: 11111110000000010000000100010011 at PC_x=01000030

--------------------------------------
01000034:  	00112e23    	SW     x1, 4294967264(x2)

--------------------------------------
01000038:  	00812c23    	SW     x8, 28(x2)

--------------------------------------
0100003c:  	00a12623    	SW     x10, 24(x2)

--------------------------------------
01000040:  	00c12703    	LW     x14, 12(x2)
Insns: 00000000110000010010011100000011 at PC_x=01000040

--------------------------------------
01000044:  	00100793    	ADDI   x15, x0, 12
Insns: 00000000000100000000011110010011 at PC_x=01000044

--------------------------------------
01000048:  	00e7c663    	BLT    x15, x14, 1000049

--------------------------------------
01000054:  	00c12783    	LW     x15, 12(x2)
Insns: 00000000110000010010011110000011 at PC_x=01000054

--------------------------------------
01000058:  	fff78793    	ADDI   x15, x15, 12
Insns: 11111111111101111000011110010011 at PC_x=01000058

--------------------------------------
0100005c:  	00078513    	ADDI   x10, x15, 4294967295
Insns: 00000000000001111000010100010011 at PC_x=0100005c

--------------------------------------
01000060:  	fd1ff0ef    	JAL    x1, 1000060

--------------------------------------
01000030:  	fe010113    	ADDI   x2, x2, 4294967249
Insns: 11111110000000010000000100010011 at PC_x=01000030

--------------------------------------
01000034:  	00112e23    	SW     x1, 4294967264(x2)

--------------------------------------
01000038:  	00812c23    	SW     x8, 28(x2)

--------------------------------------
0100003c:  	00a12623    	SW     x10, 24(x2)

--------------------------------------
01000040:  	00c12703    	LW     x14, 12(x2)
Insns: 00000000110000010010011100000011 at PC_x=01000040

--------------------------------------
01000044:  	00100793    	ADDI   x15, x0, 12
Insns: 00000000000100000000011110010011 at PC_x=01000044

--------------------------------------
01000048:  	00e7c663    	BLT    x15, x14, 1000049

--------------------------------------
01000054:  	00c12783    	LW     x15, 12(x2)
Insns: 00000000110000010010011110000011 at PC_x=01000054

--------------------------------------
01000058:  	fff78793    	ADDI   x15, x15, 12
Insns: 11111111111101111000011110010011 at PC_x=01000058

--------------------------------------
0100005c:  	00078513    	ADDI   x10, x15, 4294967295
Insns: 00000000000001111000010100010011 at PC_x=0100005c

--------------------------------------
01000060:  	fd1ff0ef    	JAL    x1, 1000060

--------------------------------------
01000030:  	fe010113    	ADDI   x2, x2, 4294967248
Insns: 11111110000000010000000100010011 at PC_x=01000030

--------------------------------------
01000034:  	00112e23    	SW     x1, 4294967264(x2)

--------------------------------------
01000038:  	00812c23    	SW     x8, 28(x2)

--------------------------------------
0100003c:  	00a12623    	SW     x10, 24(x2)

--------------------------------------
01000040:  	00c12703    	LW     x14, 12(x2)
Insns: 00000000110000010010011100000011 at PC_x=01000040

--------------------------------------
01000044:  	00100793    	ADDI   x15, x0, 12
Insns: 00000000000100000000011110010011 at PC_x=01000044

--------------------------------------
01000048:  	00e7c663    	BLT    x15, x14, 1000049

--------------------------------------
0100004c:  	00c12783    	LW     x15, 12(x2)
Insns: 00000000110000010010011110000011 at PC_x=0100004c

--------------------------------------
01000050:  	0300006f    	JAL    x0, 100005c

--------------------------------------
01000080:  	00078513    	ADDI   x10, x15, 48
Insns: 00000000000001111000010100010011 at PC_x=01000080

--------------------------------------
01000084:  	01c12083    	LW     x1, 0(x2)
Insns: 00000001110000010010000010000011 at PC_x=01000084

--------------------------------------
01000088:  	01812403    	LW     x8, 28(x2)
Insns: 00000001100000010010010000000011 at PC_x=01000088

--------------------------------------
0100008c:  	02010113    	ADDI   x2, x2, 24
Insns: 00000010000000010000000100010011 at PC_x=0100008c

--------------------------------------
01000090:  	00008067    	JALR   x0, 32(x1)
Insns: 00000000000000001000000001100111 at PC_x=01000090

--------------------------------------
01000064:  	00050413    	ADDI   x8, x10, 0
Insns: 00000000000001010000010000010011 at PC_x=01000064

--------------------------------------
01000068:  	00c12783    	LW     x15, 0(x2)
Insns: 00000000110000010010011110000011 at PC_x=01000068

--------------------------------------
0100006c:  	ffe78793    	ADDI   x15, x15, 12
Insns: 11111111111001111000011110010011 at PC_x=0100006c

--------------------------------------
01000070:  	00078513    	ADDI   x10, x15, 4294967294
Insns: 00000000000001111000010100010011 at PC_x=01000070

--------------------------------------
01000074:  	fbdff0ef    	JAL    x1, 1000074

--------------------------------------
01000030:  	fe010113    	ADDI   x2, x2, 4294967229
Insns: 11111110000000010000000100010011 at PC_x=01000030

--------------------------------------
01000034:  	00112e23    	SW     x1, 4294967264(x2)

--------------------------------------
01000038:  	00812c23    	SW     x8, 28(x2)

--------------------------------------
0100003c:  	00a12623    	SW     x10, 24(x2)

--------------------------------------
01000040:  	00c12703    	LW     x14, 12(x2)
Insns: 00000000110000010010011100000011 at PC_x=01000040

--------------------------------------
01000044:  	00100793    	ADDI   x15, x0, 12
Insns: 00000000000100000000011110010011 at PC_x=01000044

--------------------------------------
01000048:  	00e7c663    	BLT    x15, x14, 1000049

--------------------------------------
0100004c:  	00c12783    	LW     x15, 12(x2)
Insns: 00000000110000010010011110000011 at PC_x=0100004c

--------------------------------------
01000050:  	0300006f    	JAL    x0, 100005c

--------------------------------------
01000080:  	00078513    	ADDI   x10, x15, 48
Insns: 00000000000001111000010100010011 at PC_x=01000080

--------------------------------------
01000084:  	01c12083    	LW     x1, 0(x2)
Insns: 00000001110000010010000010000011 at PC_x=01000084

--------------------------------------
01000088:  	01812403    	LW     x8, 28(x2)
Insns: 00000001100000010010010000000011 at PC_x=01000088

--------------------------------------
0100008c:  	02010113    	ADDI   x2, x2, 24
Insns: 00000010000000010000000100010011 at PC_x=0100008c

--------------------------------------
01000090:  	00008067    	JALR   x0, 32(x1)
Insns: 00000000000000001000000001100111 at PC_x=01000090

--------------------------------------
01000078:  	00050793    	ADDI   x15, x10, 0
Insns: 00000000000001010000011110010011 at PC_x=01000078

--------------------------------------
0100007c:  	00f407b3    	ADD    x15, x8, x15

--------------------------------------
01000080:  	00078513    	ADDI   x10, x15, 15
Insns: 00000000000001111000010100010011 at PC_x=01000080

--------------------------------------
01000084:  	01c12083    	LW     x1, 0(x2)
Insns: 00000001110000010010000010000011 at PC_x=01000084

--------------------------------------
01000088:  	01812403    	LW     x8, 28(x2)
Insns: 00000001100000010010010000000011 at PC_x=01000088

--------------------------------------
0100008c:  	02010113    	ADDI   x2, x2, 24
Insns: 00000010000000010000000100010011 at PC_x=0100008c

--------------------------------------
01000090:  	00008067    	JALR   x0, 32(x1)
Insns: 00000000000000001000000001100111 at PC_x=01000090

--------------------------------------
01000064:  	00050413    	ADDI   x8, x10, 0
Insns: 00000000000001010000010000010011 at PC_x=01000064

--------------------------------------
01000068:  	00c12783    	LW     x15, 0(x2)
Insns: 00000000110000010010011110000011 at PC_x=01000068

--------------------------------------
0100006c:  	ffe78793    	ADDI   x15, x15, 12
Insns: 11111111111001111000011110010011 at PC_x=0100006c

--------------------------------------
01000070:  	00078513    	ADDI   x10, x15, 4294967294
Insns: 00000000000001111000010100010011 at PC_x=01000070

--------------------------------------
01000074:  	fbdff0ef    	JAL    x1, 1000074

--------------------------------------
01000030:  	fe010113    	ADDI   x2, x2, 4294967229
Insns: 11111110000000010000000100010011 at PC_x=01000030

--------------------------------------
01000034:  	00112e23    	SW     x1, 4294967264(x2)

--------------------------------------
01000038:  	00812c23    	SW     x8, 28(x2)

--------------------------------------
0100003c:  	00a12623    	SW     x10, 24(x2)

--------------------------------------
01000040:  	00c12703    	LW     x14, 12(x2)
Insns: 00000000110000010010011100000011 at PC_x=01000040

--------------------------------------
01000044:  	00100793    	ADDI   x15, x0, 12
Insns: 00000000000100000000011110010011 at PC_x=01000044

--------------------------------------
01000048:  	00e7c663    	BLT    x15, x14, 1000049

--------------------------------------
0100004c:  	00c12783    	LW     x15, 12(x2)
Insns: 00000000110000010010011110000011 at PC_x=0100004c

--------------------------------------
01000050:  	0300006f    	JAL    x0, 100005c

--------------------------------------
01000080:  	00078513    	ADDI   x10, x15, 48
Insns: 00000000000001111000010100010011 at PC_x=01000080

--------------------------------------
01000084:  	01c12083    	LW     x1, 0(x2)
Insns: 00000001110000010010000010000011 at PC_x=01000084

--------------------------------------
01000088:  	01812403    	LW     x8, 28(x2)
Insns: 00000001100000010010010000000011 at PC_x=01000088

--------------------------------------
0100008c:  	02010113    	ADDI   x2, x2, 24
Insns: 00000010000000010000000100010011 at PC_x=0100008c

--------------------------------------
01000090:  	00008067    	JALR   x0, 32(x1)
Insns: 00000000000000001000000001100111 at PC_x=01000090

--------------------------------------
01000078:  	00050793    	ADDI   x15, x10, 0
Insns: 00000000000001010000011110010011 at PC_x=01000078

--------------------------------------
0100007c:  	00f407b3    	ADD    x15, x8, x15

--------------------------------------
01000080:  	00078513    	ADDI   x10, x15, 15
Insns: 00000000000001111000010100010011 at PC_x=01000080

--------------------------------------
01000084:  	01c12083    	LW     x1, 0(x2)
Insns: 00000001110000010010000010000011 at PC_x=01000084

--------------------------------------
01000088:  	01812403    	LW     x8, 28(x2)
Insns: 00000001100000010010010000000011 at PC_x=01000088

--------------------------------------
0100008c:  	02010113    	ADDI   x2, x2, 24
Insns: 00000010000000010000000100010011 at PC_x=0100008c

--------------------------------------
01000090:  	00008067    	JALR   x0, 32(x1)
Insns: 00000000000000001000000001100111 at PC_x=01000090

--------------------------------------
01000064:  	00050413    	ADDI   x8, x10, 0
Insns: 00000000000001010000010000010011 at PC_x=01000064

--------------------------------------
01000068:  	00c12783    	LW     x15, 0(x2)
Insns: 00000000110000010010011110000011 at PC_x=01000068

--------------------------------------
0100006c:  	ffe78793    	ADDI   x15, x15, 12
Insns: 11111111111001111000011110010011 at PC_x=0100006c

--------------------------------------
01000070:  	00078513    	ADDI   x10, x15, 4294967294
Insns: 00000000000001111000010100010011 at PC_x=01000070

--------------------------------------
01000074:  	fbdff0ef    	JAL    x1, 1000074

--------------------------------------
01000030:  	fe010113    	ADDI   x2, x2, 4294967229
Insns: 11111110000000010000000100010011 at PC_x=01000030

--------------------------------------
01000034:  	00112e23    	SW     x1, 4294967264(x2)

--------------------------------------
01000038:  	00812c23    	SW     x8, 28(x2)

--------------------------------------
0100003c:  	00a12623    	SW     x10, 24(x2)

--------------------------------------
01000040:  	00c12703    	LW     x14, 12(x2)
Insns: 00000000110000010010011100000011 at PC_x=01000040

--------------------------------------
01000044:  	00100793    	ADDI   x15, x0, 12
Insns: 00000000000100000000011110010011 at PC_x=01000044

--------------------------------------
01000048:  	00e7c663    	BLT    x15, x14, 1000049

--------------------------------------
01000054:  	00c12783    	LW     x15, 12(x2)
Insns: 00000000110000010010011110000011 at PC_x=01000054

--------------------------------------
01000058:  	fff78793    	ADDI   x15, x15, 12
Insns: 11111111111101111000011110010011 at PC_x=01000058

--------------------------------------
0100005c:  	00078513    	ADDI   x10, x15, 4294967295
Insns: 00000000000001111000010100010011 at PC_x=0100005c

--------------------------------------
01000060:  	fd1ff0ef    	JAL    x1, 1000060

--------------------------------------
01000030:  	fe010113    	ADDI   x2, x2, 4294967248
Insns: 11111110000000010000000100010011 at PC_x=01000030

--------------------------------------
01000034:  	00112e23    	SW     x1, 4294967264(x2)

--------------------------------------
01000038:  	00812c23    	SW     x8, 28(x2)

--------------------------------------
0100003c:  	00a12623    	SW     x10, 24(x2)

--------------------------------------
01000040:  	00c12703    	LW     x14, 12(x2)
Insns: 00000000110000010010011100000011 at PC_x=01000040

--------------------------------------
01000044:  	00100793    	ADDI   x15, x0, 12
Insns: 00000000000100000000011110010011 at PC_x=01000044

--------------------------------------
01000048:  	00e7c663    	BLT    x15, x14, 1000049

--------------------------------------
0100004c:  	00c12783    	LW     x15, 12(x2)
Insns: 00000000110000010010011110000011 at PC_x=0100004c

--------------------------------------
01000050:  	0300006f    	JAL    x0, 100005c

--------------------------------------
01000080:  	00078513    	ADDI   x10, x15, 48
Insns: 00000000000001111000010100010011 at PC_x=01000080

--------------------------------------
01000084:  	01c12083    	LW     x1, 0(x2)
Insns: 00000001110000010010000010000011 at PC_x=01000084

--------------------------------------
01000088:  	01812403    	LW     x8, 28(x2)
Insns: 00000001100000010010010000000011 at PC_x=01000088

--------------------------------------
0100008c:  	02010113    	ADDI   x2, x2, 24
Insns: 00000010000000010000000100010011 at PC_x=0100008c

--------------------------------------
01000090:  	00008067    	JALR   x0, 32(x1)
Insns: 00000000000000001000000001100111 at PC_x=01000090

--------------------------------------
01000064:  	00050413    	ADDI   x8, x10, 0
Insns: 00000000000001010000010000010011 at PC_x=01000064

--------------------------------------
01000068:  	00c12783    	LW     x15, 0(x2)
Insns: 00000000110000010010011110000011 at PC_x=01000068

--------------------------------------
0100006c:  	ffe78793    	ADDI   x15, x15, 12
Insns: 11111111111001111000011110010011 at PC_x=0100006c

--------------------------------------
01000070:  	00078513    	ADDI   x10, x15, 4294967294
Insns: 00000000000001111000010100010011 at PC_x=01000070

--------------------------------------
01000074:  	fbdff0ef    	JAL    x1, 1000074

--------------------------------------
01000030:  	fe010113    	ADDI   x2, x2, 4294967229
Insns: 11111110000000010000000100010011 at PC_x=01000030

--------------------------------------
01000034:  	00112e23    	SW     x1, 4294967264(x2)

--------------------------------------
01000038:  	00812c23    	SW     x8, 28(x2)

--------------------------------------
0100003c:  	00a12623    	SW     x10, 24(x2)

--------------------------------------
01000040:  	00c12703    	LW     x14, 12(x2)
Insns: 00000000110000010010011100000011 at PC_x=01000040

--------------------------------------
01000044:  	00100793    	ADDI   x15, x0, 12
Insns: 00000000000100000000011110010011 at PC_x=01000044

--------------------------------------
01000048:  	00e7c663    	BLT    x15, x14, 1000049

--------------------------------------
0100004c:  	00c12783    	LW     x15, 12(x2)
Insns: 00000000110000010010011110000011 at PC_x=0100004c

--------------------------------------
01000050:  	0300006f    	JAL    x0, 100005c

--------------------------------------
01000080:  	00078513    	ADDI   x10, x15, 48
Insns: 00000000000001111000010100010011 at PC_x=01000080

--------------------------------------
01000084:  	01c12083    	LW     x1, 0(x2)
Insns: 00000001110000010010000010000011 at PC_x=01000084

--------------------------------------
01000088:  	01812403    	LW     x8, 28(x2)
Insns: 00000001100000010010010000000011 at PC_x=01000088

--------------------------------------
0100008c:  	02010113    	ADDI   x2, x2, 24
Insns: 00000010000000010000000100010011 at PC_x=0100008c

--------------------------------------
01000090:  	00008067    	JALR   x0, 32(x1)
Insns: 00000000000000001000000001100111 at PC_x=01000090

--------------------------------------
01000078:  	00050793    	ADDI   x15, x10, 0
Insns: 00000000000001010000011110010011 at PC_x=01000078

--------------------------------------
0100007c:  	00f407b3    	ADD    x15, x8, x15

--------------------------------------
01000080:  	00078513    	ADDI   x10, x15, 15
Insns: 00000000000001111000010100010011 at PC_x=01000080

--------------------------------------
01000084:  	01c12083    	LW     x1, 0(x2)
Insns: 00000001110000010010000010000011 at PC_x=01000084

--------------------------------------
01000088:  	01812403    	LW     x8, 28(x2)
Insns: 00000001100000010010010000000011 at PC_x=01000088

--------------------------------------
0100008c:  	02010113    	ADDI   x2, x2, 24
Insns: 00000010000000010000000100010011 at PC_x=0100008c

--------------------------------------
01000090:  	00008067    	JALR   x0, 32(x1)
Insns: 00000000000000001000000001100111 at PC_x=01000090

--------------------------------------
01000078:  	00050793    	ADDI   x15, x10, 0
Insns: 00000000000001010000011110010011 at PC_x=01000078

--------------------------------------
0100007c:  	00f407b3    	ADD    x15, x8, x15

--------------------------------------
01000080:  	00078513    	ADDI   x10, x15, 0
Insns: 00000000000001111000010100010011 at PC_x=01000080

--------------------------------------
01000084:  	01c12083    	LW     x1, 0(x2)
Insns: 00000001110000010010000010000011 at PC_x=01000084

--------------------------------------
01000088:  	01812403    	LW     x8, 28(x2)
Insns: 00000001100000010010010000000011 at PC_x=01000088

--------------------------------------
0100008c:  	02010113    	ADDI   x2, x2, 24
Insns: 00000010000000010000000100010011 at PC_x=0100008c

--------------------------------------
01000090:  	00008067    	JALR   x0, 32(x1)
Insns: 00000000000000001000000001100111 at PC_x=01000090

--------------------------------------
01000078:  	00050793    	ADDI   x15, x10, 0
Insns: 00000000000001010000011110010011 at PC_x=01000078

--------------------------------------
0100007c:  	00f407b3    	ADD    x15, x8, x15

--------------------------------------
01000080:  	00078513    	ADDI   x10, x15, 15
Insns: 00000000000001111000010100010011 at PC_x=01000080

--------------------------------------
01000084:  	01c12083    	LW     x1, 0(x2)
Insns: 00000001110000010010000010000011 at PC_x=01000084

--------------------------------------
01000088:  	01812403    	LW     x8, 28(x2)
Insns: 00000001100000010010010000000011 at PC_x=01000088

--------------------------------------
0100008c:  	02010113    	ADDI   x2, x2, 24
Insns: 00000010000000010000000100010011 at PC_x=0100008c

--------------------------------------
01000090:  	00008067    	JALR   x0, 32(x1)
Insns: 00000000000000001000000001100111 at PC_x=01000090

--------------------------------------
01000064:  	00050413    	ADDI   x8, x10, 0
Insns: 00000000000001010000010000010011 at PC_x=01000064

--------------------------------------
01000068:  	00c12783    	LW     x15, 0(x2)
Insns: 00000000110000010010011110000011 at PC_x=01000068

--------------------------------------
0100006c:  	ffe78793    	ADDI   x15, x15, 12
Insns: 11111111111001111000011110010011 at PC_x=0100006c

--------------------------------------
01000070:  	00078513    	ADDI   x10, x15, 4294967294
Insns: 00000000000001111000010100010011 at PC_x=01000070

--------------------------------------
01000074:  	fbdff0ef    	JAL    x1, 1000074

--------------------------------------
01000030:  	fe010113    	ADDI   x2, x2, 4294967229
Insns: 11111110000000010000000100010011 at PC_x=01000030

--------------------------------------
01000034:  	00112e23    	SW     x1, 4294967264(x2)

--------------------------------------
01000038:  	00812c23    	SW     x8, 28(x2)

--------------------------------------
0100003c:  	00a12623    	SW     x10, 24(x2)

--------------------------------------
01000040:  	00c12703    	LW     x14, 12(x2)
Insns: 00000000110000010010011100000011 at PC_x=01000040

--------------------------------------
01000044:  	00100793    	ADDI   x15, x0, 12
Insns: 00000000000100000000011110010011 at PC_x=01000044

--------------------------------------
01000048:  	00e7c663    	BLT    x15, x14, 1000049

--------------------------------------
01000054:  	00c12783    	LW     x15, 12(x2)
Insns: 00000000110000010010011110000011 at PC_x=01000054

--------------------------------------
01000058:  	fff78793    	ADDI   x15, x15, 12
Insns: 11111111111101111000011110010011 at PC_x=01000058

--------------------------------------
0100005c:  	00078513    	ADDI   x10, x15, 4294967295
Insns: 00000000000001111000010100010011 at PC_x=0100005c

--------------------------------------
01000060:  	fd1ff0ef    	JAL    x1, 1000060

--------------------------------------
01000030:  	fe010113    	ADDI   x2, x2, 4294967248
Insns: 11111110000000010000000100010011 at PC_x=01000030

--------------------------------------
01000034:  	00112e23    	SW     x1, 4294967264(x2)

--------------------------------------
01000038:  	00812c23    	SW     x8, 28(x2)

--------------------------------------
0100003c:  	00a12623    	SW     x10, 24(x2)

--------------------------------------
01000040:  	00c12703    	LW     x14, 12(x2)
Insns: 00000000110000010010011100000011 at PC_x=01000040

--------------------------------------
01000044:  	00100793    	ADDI   x15, x0, 12
Insns: 00000000000100000000011110010011 at PC_x=01000044

--------------------------------------
01000048:  	00e7c663    	BLT    x15, x14, 1000049

--------------------------------------
01000054:  	00c12783    	LW     x15, 12(x2)
Insns: 00000000110000010010011110000011 at PC_x=01000054

--------------------------------------
01000058:  	fff78793    	ADDI   x15, x15, 12
Insns: 11111111111101111000011110010011 at PC_x=01000058

--------------------------------------
0100005c:  	00078513    	ADDI   x10, x15, 4294967295
Insns: 00000000000001111000010100010011 at PC_x=0100005c

--------------------------------------
01000060:  	fd1ff0ef    	JAL    x1, 1000060

--------------------------------------
01000030:  	fe010113    	ADDI   x2, x2, 4294967249
Insns: 11111110000000010000000100010011 at PC_x=01000030

--------------------------------------
01000034:  	00112e23    	SW     x1, 4294967264(x2)

--------------------------------------
01000038:  	00812c23    	SW     x8, 28(x2)

--------------------------------------
0100003c:  	00a12623    	SW     x10, 24(x2)

--------------------------------------
01000040:  	00c12703    	LW     x14, 12(x2)
Insns: 00000000110000010010011100000011 at PC_x=01000040

--------------------------------------
01000044:  	00100793    	ADDI   x15, x0, 12
Insns: 00000000000100000000011110010011 at PC_x=01000044

--------------------------------------
01000048:  	00e7c663    	BLT    x15, x14, 1000049

--------------------------------------
01000054:  	00c12783    	LW     x15, 12(x2)
Insns: 00000000110000010010011110000011 at PC_x=01000054

--------------------------------------
01000058:  	fff78793    	ADDI   x15, x15, 12
Insns: 11111111111101111000011110010011 at PC_x=01000058

--------------------------------------
0100005c:  	00078513    	ADDI   x10, x15, 4294967295
Insns: 00000000000001111000010100010011 at PC_x=0100005c

--------------------------------------
01000060:  	fd1ff0ef    	JAL    x1, 1000060

--------------------------------------
01000030:  	fe010113    	ADDI   x2, x2, 4294967248
Insns: 11111110000000010000000100010011 at PC_x=01000030

--------------------------------------
01000034:  	00112e23    	SW     x1, 4294967264(x2)

--------------------------------------
01000038:  	00812c23    	SW     x8, 28(x2)

--------------------------------------
0100003c:  	00a12623    	SW     x10, 24(x2)

--------------------------------------
01000040:  	00c12703    	LW     x14, 12(x2)
Insns: 00000000110000010010011100000011 at PC_x=01000040

--------------------------------------
01000044:  	00100793    	ADDI   x15, x0, 12
Insns: 00000000000100000000011110010011 at PC_x=01000044

--------------------------------------
01000048:  	00e7c663    	BLT    x15, x14, 1000049

--------------------------------------
01000054:  	00c12783    	LW     x15, 12(x2)
Insns: 00000000110000010010011110000011 at PC_x=01000054

--------------------------------------
01000058:  	fff78793    	ADDI   x15, x15, 12
Insns: 11111111111101111000011110010011 at PC_x=01000058

--------------------------------------
0100005c:  	00078513    	ADDI   x10, x15, 4294967295
Insns: 00000000000001111000010100010011 at PC_x=0100005c

--------------------------------------
01000060:  	fd1ff0ef    	JAL    x1, 1000060

--------------------------------------
01000030:  	fe010113    	ADDI   x2, x2, 4294967249
Insns: 11111110000000010000000100010011 at PC_x=01000030

--------------------------------------
01000034:  	00112e23    	SW     x1, 4294967264(x2)

--------------------------------------
01000038:  	00812c23    	SW     x8, 28(x2)

--------------------------------------
0100003c:  	00a12623    	SW     x10, 24(x2)

--------------------------------------
01000040:  	00c12703    	LW     x14, 12(x2)
Insns: 00000000110000010010011100000011 at PC_x=01000040

--------------------------------------
01000044:  	00100793    	ADDI   x15, x0, 12
Insns: 00000000000100000000011110010011 at PC_x=01000044

--------------------------------------
01000048:  	00e7c663    	BLT    x15, x14, 1000049

--------------------------------------
0100004c:  	00c12783    	LW     x15, 12(x2)
Insns: 00000000110000010010011110000011 at PC_x=0100004c

--------------------------------------
01000050:  	0300006f    	JAL    x0, 100005c

--------------------------------------
01000080:  	00078513    	ADDI   x10, x15, 48
Insns: 00000000000001111000010100010011 at PC_x=01000080

--------------------------------------
01000084:  	01c12083    	LW     x1, 0(x2)
Insns: 00000001110000010010000010000011 at PC_x=01000084

--------------------------------------
01000088:  	01812403    	LW     x8, 28(x2)
Insns: 00000001100000010010010000000011 at PC_x=01000088

--------------------------------------
0100008c:  	02010113    	ADDI   x2, x2, 24
Insns: 00000010000000010000000100010011 at PC_x=0100008c

--------------------------------------
01000090:  	00008067    	JALR   x0, 32(x1)
Insns: 00000000000000001000000001100111 at PC_x=01000090

--------------------------------------
01000064:  	00050413    	ADDI   x8, x10, 0
Insns: 00000000000001010000010000010011 at PC_x=01000064

--------------------------------------
01000068:  	00c12783    	LW     x15, 0(x2)
Insns: 00000000110000010010011110000011 at PC_x=01000068

--------------------------------------
0100006c:  	ffe78793    	ADDI   x15, x15, 12
Insns: 11111111111001111000011110010011 at PC_x=0100006c

--------------------------------------
01000070:  	00078513    	ADDI   x10, x15, 4294967294
Insns: 00000000000001111000010100010011 at PC_x=01000070

--------------------------------------
01000074:  	fbdff0ef    	JAL    x1, 1000074

--------------------------------------
01000030:  	fe010113    	ADDI   x2, x2, 4294967228
Insns: 11111110000000010000000100010011 at PC_x=01000030

--------------------------------------
01000034:  	00112e23    	SW     x1, 4294967264(x2)

--------------------------------------
01000038:  	00812c23    	SW     x8, 28(x2)

--------------------------------------
0100003c:  	00a12623    	SW     x10, 24(x2)

--------------------------------------
01000040:  	00c12703    	LW     x14, 12(x2)
Insns: 00000000110000010010011100000011 at PC_x=01000040

--------------------------------------
01000044:  	00100793    	ADDI   x15, x0, 12
Insns: 00000000000100000000011110010011 at PC_x=01000044

--------------------------------------
01000048:  	00e7c663    	BLT    x15, x14, 1000049

--------------------------------------
0100004c:  	00c12783    	LW     x15, 12(x2)
Insns: 00000000110000010010011110000011 at PC_x=0100004c

--------------------------------------
01000050:  	0300006f    	JAL    x0, 100005c

--------------------------------------
01000080:  	00078513    	ADDI   x10, x15, 48
Insns: 00000000000001111000010100010011 at PC_x=01000080

--------------------------------------
01000084:  	01c12083    	LW     x1, 0(x2)
Insns: 00000001110000010010000010000011 at PC_x=01000084

--------------------------------------
01000088:  	01812403    	LW     x8, 28(x2)
Insns: 00000001100000010010010000000011 at PC_x=01000088

--------------------------------------
0100008c:  	02010113    	ADDI   x2, x2, 24
Insns: 00000010000000010000000100010011 at PC_x=0100008c

--------------------------------------
01000090:  	00008067    	JALR   x0, 32(x1)
Insns: 00000000000000001000000001100111 at PC_x=01000090

--------------------------------------
01000078:  	00050793    	ADDI   x15, x10, 0
Insns: 00000000000001010000011110010011 at PC_x=01000078

--------------------------------------
0100007c:  	00f407b3    	ADD    x15, x8, x15

--------------------------------------
01000080:  	00078513    	ADDI   x10, x15, 0
Insns: 00000000000001111000010100010011 at PC_x=01000080

--------------------------------------
01000084:  	01c12083    	LW     x1, 0(x2)
Insns: 00000001110000010010000010000011 at PC_x=01000084

--------------------------------------
01000088:  	01812403    	LW     x8, 28(x2)
Insns: 00000001100000010010010000000011 at PC_x=01000088

--------------------------------------
0100008c:  	02010113    	ADDI   x2, x2, 24
Insns: 00000010000000010000000100010011 at PC_x=0100008c

--------------------------------------
01000090:  	00008067    	JALR   x0, 32(x1)
Insns: 00000000000000001000000001100111 at PC_x=01000090

--------------------------------------
01000064:  	00050413    	ADDI   x8, x10, 0
Insns: 00000000000001010000010000010011 at PC_x=01000064

--------------------------------------
01000068:  	00c12783    	LW     x15, 0(x2)
Insns: 00000000110000010010011110000011 at PC_x=01000068

--------------------------------------
0100006c:  	ffe78793    	ADDI   x15, x15, 12
Insns: 11111111111001111000011110010011 at PC_x=0100006c

--------------------------------------
01000070:  	00078513    	ADDI   x10, x15, 4294967294
Insns: 00000000000001111000010100010011 at PC_x=01000070

--------------------------------------
01000074:  	fbdff0ef    	JAL    x1, 1000074

--------------------------------------
01000030:  	fe010113    	ADDI   x2, x2, 4294967228
Insns: 11111110000000010000000100010011 at PC_x=01000030

--------------------------------------
01000034:  	00112e23    	SW     x1, 4294967264(x2)

--------------------------------------
01000038:  	00812c23    	SW     x8, 28(x2)

--------------------------------------
0100003c:  	00a12623    	SW     x10, 24(x2)

--------------------------------------
01000040:  	00c12703    	LW     x14, 12(x2)
Insns: 00000000110000010010011100000011 at PC_x=01000040

--------------------------------------
01000044:  	00100793    	ADDI   x15, x0, 12
Insns: 00000000000100000000011110010011 at PC_x=01000044

--------------------------------------
01000048:  	00e7c663    	BLT    x15, x14, 1000049

--------------------------------------
0100004c:  	00c12783    	LW     x15, 12(x2)
Insns: 00000000110000010010011110000011 at PC_x=0100004c

--------------------------------------
01000050:  	0300006f    	JAL    x0, 100005c

--------------------------------------
01000080:  	00078513    	ADDI   x10, x15, 48
Insns: 00000000000001111000010100010011 at PC_x=01000080

--------------------------------------
01000084:  	01c12083    	LW     x1, 0(x2)
Insns: 00000001110000010010000010000011 at PC_x=01000084

--------------------------------------
01000088:  	01812403    	LW     x8, 28(x2)
Insns: 00000001100000010010010000000011 at PC_x=01000088

--------------------------------------
0100008c:  	02010113    	ADDI   x2, x2, 24
Insns: 00000010000000010000000100010011 at PC_x=0100008c

--------------------------------------
01000090:  	00008067    	JALR   x0, 32(x1)
Insns: 00000000000000001000000001100111 at PC_x=01000090

--------------------------------------
01000078:  	00050793    	ADDI   x15, x10, 0
Insns: 00000000000001010000011110010011 at PC_x=01000078

--------------------------------------
0100007c:  	00f407b3    	ADD    x15, x8, x15

--------------------------------------
01000080:  	00078513    	ADDI   x10, x15, 0
Insns: 00000000000001111000010100010011 at PC_x=01000080

--------------------------------------
01000084:  	01c12083    	LW     x1, 0(x2)
Insns: 00000001110000010010000010000011 at PC_x=01000084

--------------------------------------
01000088:  	01812403    	LW     x8, 28(x2)
Insns: 00000001100000010010010000000011 at PC_x=01000088

--------------------------------------
0100008c:  	02010113    	ADDI   x2, x2, 24
Insns: 00000010000000010000000100010011 at PC_x=0100008c

--------------------------------------
01000090:  	00008067    	JALR   x0, 32(x1)
Insns: 00000000000000001000000001100111 at PC_x=01000090

--------------------------------------
01000064:  	00050413    	ADDI   x8, x10, 0
Insns: 00000000000001010000010000010011 at PC_x=01000064

--------------------------------------
01000068:  	00c12783    	LW     x15, 0(x2)
Insns: 00000000110000010010011110000011 at PC_x=01000068

--------------------------------------
0100006c:  	ffe78793    	ADDI   x15, x15, 12
Insns: 11111111111001111000011110010011 at PC_x=0100006c

--------------------------------------
01000070:  	00078513    	ADDI   x10, x15, 4294967294
Insns: 00000000000001111000010100010011 at PC_x=01000070

--------------------------------------
01000074:  	fbdff0ef    	JAL    x1, 1000074

--------------------------------------
01000030:  	fe010113    	ADDI   x2, x2, 4294967228
Insns: 11111110000000010000000100010011 at PC_x=01000030

--------------------------------------
01000034:  	00112e23    	SW     x1, 4294967264(x2)

--------------------------------------
01000038:  	00812c23    	SW     x8, 28(x2)

--------------------------------------
0100003c:  	00a12623    	SW     x10, 24(x2)

--------------------------------------
01000040:  	00c12703    	LW     x14, 12(x2)
Insns: 00000000110000010010011100000011 at PC_x=01000040

--------------------------------------
01000044:  	00100793    	ADDI   x15, x0, 12
Insns: 00000000000100000000011110010011 at PC_x=01000044

--------------------------------------
01000048:  	00e7c663    	BLT    x15, x14, 1000049

--------------------------------------
01000054:  	00c12783    	LW     x15, 12(x2)
Insns: 00000000110000010010011110000011 at PC_x=01000054

--------------------------------------
01000058:  	fff78793    	ADDI   x15, x15, 12
Insns: 11111111111101111000011110010011 at PC_x=01000058

--------------------------------------
0100005c:  	00078513    	ADDI   x10, x15, 4294967295
Insns: 00000000000001111000010100010011 at PC_x=0100005c

--------------------------------------
01000060:  	fd1ff0ef    	JAL    x1, 1000060

--------------------------------------
01000030:  	fe010113    	ADDI   x2, x2, 4294967249
Insns: 11111110000000010000000100010011 at PC_x=01000030

--------------------------------------
01000034:  	00112e23    	SW     x1, 4294967264(x2)

--------------------------------------
01000038:  	00812c23    	SW     x8, 28(x2)

--------------------------------------
0100003c:  	00a12623    	SW     x10, 24(x2)

--------------------------------------
01000040:  	00c12703    	LW     x14, 12(x2)
Insns: 00000000110000010010011100000011 at PC_x=01000040

--------------------------------------
01000044:  	00100793    	ADDI   x15, x0, 12
Insns: 00000000000100000000011110010011 at PC_x=01000044

--------------------------------------
01000048:  	00e7c663    	BLT    x15, x14, 1000049

--------------------------------------
0100004c:  	00c12783    	LW     x15, 12(x2)
Insns: 00000000110000010010011110000011 at PC_x=0100004c

--------------------------------------
01000050:  	0300006f    	JAL    x0, 100005c

--------------------------------------
01000080:  	00078513    	ADDI   x10, x15, 48
Insns: 00000000000001111000010100010011 at PC_x=01000080

--------------------------------------
01000084:  	01c12083    	LW     x1, 0(x2)
Insns: 00000001110000010010000010000011 at PC_x=01000084

--------------------------------------
01000088:  	01812403    	LW     x8, 28(x2)
Insns: 00000001100000010010010000000011 at PC_x=01000088

--------------------------------------
0100008c:  	02010113    	ADDI   x2, x2, 24
Insns: 00000010000000010000000100010011 at PC_x=0100008c

--------------------------------------
01000090:  	00008067    	JALR   x0, 32(x1)
Insns: 00000000000000001000000001100111 at PC_x=01000090

--------------------------------------
01000064:  	00050413    	ADDI   x8, x10, 0
Insns: 00000000000001010000010000010011 at PC_x=01000064

--------------------------------------
01000068:  	00c12783    	LW     x15, 0(x2)
Insns: 00000000110000010010011110000011 at PC_x=01000068

--------------------------------------
0100006c:  	ffe78793    	ADDI   x15, x15, 12
Insns: 11111111111001111000011110010011 at PC_x=0100006c

--------------------------------------
01000070:  	00078513    	ADDI   x10, x15, 4294967294
Insns: 00000000000001111000010100010011 at PC_x=01000070

--------------------------------------
01000074:  	fbdff0ef    	JAL    x1, 1000074

--------------------------------------
01000030:  	fe010113    	ADDI   x2, x2, 4294967228
Insns: 11111110000000010000000100010011 at PC_x=01000030

--------------------------------------
01000034:  	00112e23    	SW     x1, 4294967264(x2)

--------------------------------------
01000038:  	00812c23    	SW     x8, 28(x2)

--------------------------------------
0100003c:  	00a12623    	SW     x10, 24(x2)

--------------------------------------
01000040:  	00c12703    	LW     x14, 12(x2)
Insns: 00000000110000010010011100000011 at PC_x=01000040

--------------------------------------
01000044:  	00100793    	ADDI   x15, x0, 12
Insns: 00000000000100000000011110010011 at PC_x=01000044

--------------------------------------
01000048:  	00e7c663    	BLT    x15, x14, 1000049

--------------------------------------
0100004c:  	00c12783    	LW     x15, 12(x2)
Insns: 00000000110000010010011110000011 at PC_x=0100004c

--------------------------------------
01000050:  	0300006f    	JAL    x0, 100005c

--------------------------------------
01000080:  	00078513    	ADDI   x10, x15, 48
Insns: 00000000000001111000010100010011 at PC_x=01000080

--------------------------------------
01000084:  	01c12083    	LW     x1, 0(x2)
Insns: 00000001110000010010000010000011 at PC_x=01000084

--------------------------------------
01000088:  	01812403    	LW     x8, 28(x2)
Insns: 00000001100000010010010000000011 at PC_x=01000088

--------------------------------------
0100008c:  	02010113    	ADDI   x2, x2, 24
Insns: 00000010000000010000000100010011 at PC_x=0100008c

--------------------------------------
01000090:  	00008067    	JALR   x0, 32(x1)
Insns: 00000000000000001000000001100111 at PC_x=01000090

--------------------------------------
01000078:  	00050793    	ADDI   x15, x10, 0
Insns: 00000000000001010000011110010011 at PC_x=01000078

--------------------------------------
0100007c:  	00f407b3    	ADD    x15, x8, x15

--------------------------------------
01000080:  	00078513    	ADDI   x10, x15, 0
Insns: 00000000000001111000010100010011 at PC_x=01000080

--------------------------------------
01000084:  	01c12083    	LW     x1, 0(x2)
Insns: 00000001110000010010000010000011 at PC_x=01000084

--------------------------------------
01000088:  	01812403    	LW     x8, 28(x2)
Insns: 00000001100000010010010000000011 at PC_x=01000088

--------------------------------------
0100008c:  	02010113    	ADDI   x2, x2, 24
Insns: 00000010000000010000000100010011 at PC_x=0100008c

--------------------------------------
01000090:  	00008067    	JALR   x0, 32(x1)
Insns: 00000000000000001000000001100111 at PC_x=01000090

--------------------------------------
01000078:  	00050793    	ADDI   x15, x10, 0
Insns: 00000000000001010000011110010011 at PC_x=01000078

--------------------------------------
0100007c:  	00f407b3    	ADD    x15, x8, x15

--------------------------------------
01000080:  	00078513    	ADDI   x10, x15, 15
Insns: 00000000000001111000010100010011 at PC_x=01000080

--------------------------------------
01000084:  	01c12083    	LW     x1, 0(x2)
Insns: 00000001110000010010000010000011 at PC_x=01000084

--------------------------------------
01000088:  	01812403    	LW     x8, 28(x2)
Insns: 00000001100000010010010000000011 at PC_x=01000088

--------------------------------------
0100008c:  	02010113    	ADDI   x2, x2, 24
Insns: 00000010000000010000000100010011 at PC_x=0100008c

--------------------------------------
01000090:  	00008067    	JALR   x0, 32(x1)
Insns: 00000000000000001000000001100111 at PC_x=01000090

--------------------------------------
01000064:  	00050413    	ADDI   x8, x10, 0
Insns: 00000000000001010000010000010011 at PC_x=01000064

--------------------------------------
01000068:  	00c12783    	LW     x15, 0(x2)
Insns: 00000000110000010010011110000011 at PC_x=01000068

--------------------------------------
0100006c:  	ffe78793    	ADDI   x15, x15, 12
Insns: 11111111111001111000011110010011 at PC_x=0100006c

--------------------------------------
01000070:  	00078513    	ADDI   x10, x15, 4294967294
Insns: 00000000000001111000010100010011 at PC_x=01000070

--------------------------------------
01000074:  	fbdff0ef    	JAL    x1, 1000074

--------------------------------------
01000030:  	fe010113    	ADDI   x2, x2, 4294967229
Insns: 11111110000000010000000100010011 at PC_x=01000030

--------------------------------------
01000034:  	00112e23    	SW     x1, 4294967264(x2)

--------------------------------------
01000038:  	00812c23    	SW     x8, 28(x2)

--------------------------------------
0100003c:  	00a12623    	SW     x10, 24(x2)

--------------------------------------
01000040:  	00c12703    	LW     x14, 12(x2)
Insns: 00000000110000010010011100000011 at PC_x=01000040

--------------------------------------
01000044:  	00100793    	ADDI   x15, x0, 12
Insns: 00000000000100000000011110010011 at PC_x=01000044

--------------------------------------
01000048:  	00e7c663    	BLT    x15, x14, 1000049

--------------------------------------
01000054:  	00c12783    	LW     x15, 12(x2)
Insns: 00000000110000010010011110000011 at PC_x=01000054

--------------------------------------
01000058:  	fff78793    	ADDI   x15, x15, 12
Insns: 11111111111101111000011110010011 at PC_x=01000058

--------------------------------------
0100005c:  	00078513    	ADDI   x10, x15, 4294967295
Insns: 00000000000001111000010100010011 at PC_x=0100005c

--------------------------------------
01000060:  	fd1ff0ef    	JAL    x1, 1000060

--------------------------------------
01000030:  	fe010113    	ADDI   x2, x2, 4294967248
Insns: 11111110000000010000000100010011 at PC_x=01000030

--------------------------------------
01000034:  	00112e23    	SW     x1, 4294967264(x2)

--------------------------------------
01000038:  	00812c23    	SW     x8, 28(x2)

--------------------------------------
0100003c:  	00a12623    	SW     x10, 24(x2)

--------------------------------------
01000040:  	00c12703    	LW     x14, 12(x2)
Insns: 00000000110000010010011100000011 at PC_x=01000040

--------------------------------------
01000044:  	00100793    	ADDI   x15, x0, 12
Insns: 00000000000100000000011110010011 at PC_x=01000044

--------------------------------------
01000048:  	00e7c663    	BLT    x15, x14, 1000049

--------------------------------------
01000054:  	00c12783    	LW     x15, 12(x2)
Insns: 00000000110000010010011110000011 at PC_x=01000054

--------------------------------------
01000058:  	fff78793    	ADDI   x15, x15, 12
Insns: 11111111111101111000011110010011 at PC_x=01000058

--------------------------------------
0100005c:  	00078513    	ADDI   x10, x15, 4294967295
Insns: 00000000000001111000010100010011 at PC_x=0100005c

--------------------------------------
01000060:  	fd1ff0ef    	JAL    x1, 1000060

--------------------------------------
01000030:  	fe010113    	ADDI   x2, x2, 4294967249
Insns: 11111110000000010000000100010011 at PC_x=01000030

--------------------------------------
01000034:  	00112e23    	SW     x1, 4294967264(x2)

--------------------------------------
01000038:  	00812c23    	SW     x8, 28(x2)

--------------------------------------
0100003c:  	00a12623    	SW     x10, 24(x2)

--------------------------------------
01000040:  	00c12703    	LW     x14, 12(x2)
Insns: 00000000110000010010011100000011 at PC_x=01000040

--------------------------------------
01000044:  	00100793    	ADDI   x15, x0, 12
Insns: 00000000000100000000011110010011 at PC_x=01000044

--------------------------------------
01000048:  	00e7c663    	BLT    x15, x14, 1000049

--------------------------------------
0100004c:  	00c12783    	LW     x15, 12(x2)
Insns: 00000000110000010010011110000011 at PC_x=0100004c

--------------------------------------
01000050:  	0300006f    	JAL    x0, 100005c

--------------------------------------
01000080:  	00078513    	ADDI   x10, x15, 48
Insns: 00000000000001111000010100010011 at PC_x=01000080

--------------------------------------
01000084:  	01c12083    	LW     x1, 0(x2)
Insns: 00000001110000010010000010000011 at PC_x=01000084

--------------------------------------
01000088:  	01812403    	LW     x8, 28(x2)
Insns: 00000001100000010010010000000011 at PC_x=01000088

--------------------------------------
0100008c:  	02010113    	ADDI   x2, x2, 24
Insns: 00000010000000010000000100010011 at PC_x=0100008c

--------------------------------------
01000090:  	00008067    	JALR   x0, 32(x1)
Insns: 00000000000000001000000001100111 at PC_x=01000090

--------------------------------------
01000064:  	00050413    	ADDI   x8, x10, 0
Insns: 00000000000001010000010000010011 at PC_x=01000064

--------------------------------------
01000068:  	00c12783    	LW     x15, 0(x2)
Insns: 00000000110000010010011110000011 at PC_x=01000068

--------------------------------------
0100006c:  	ffe78793    	ADDI   x15, x15, 12
Insns: 11111111111001111000011110010011 at PC_x=0100006c

--------------------------------------
01000070:  	00078513    	ADDI   x10, x15, 4294967294
Insns: 00000000000001111000010100010011 at PC_x=01000070

--------------------------------------
01000074:  	fbdff0ef    	JAL    x1, 1000074

--------------------------------------
01000030:  	fe010113    	ADDI   x2, x2, 4294967228
Insns: 11111110000000010000000100010011 at PC_x=01000030

--------------------------------------
01000034:  	00112e23    	SW     x1, 4294967264(x2)

--------------------------------------
01000038:  	00812c23    	SW     x8, 28(x2)

--------------------------------------
0100003c:  	00a12623    	SW     x10, 24(x2)

--------------------------------------
01000040:  	00c12703    	LW     x14, 12(x2)
Insns: 00000000110000010010011100000011 at PC_x=01000040

--------------------------------------
01000044:  	00100793    	ADDI   x15, x0, 12
Insns: 00000000000100000000011110010011 at PC_x=01000044

--------------------------------------
01000048:  	00e7c663    	BLT    x15, x14, 1000049

--------------------------------------
0100004c:  	00c12783    	LW     x15, 12(x2)
Insns: 00000000110000010010011110000011 at PC_x=0100004c

--------------------------------------
01000050:  	0300006f    	JAL    x0, 100005c

--------------------------------------
01000080:  	00078513    	ADDI   x10, x15, 48
Insns: 00000000000001111000010100010011 at PC_x=01000080

--------------------------------------
01000084:  	01c12083    	LW     x1, 0(x2)
Insns: 00000001110000010010000010000011 at PC_x=01000084

--------------------------------------
01000088:  	01812403    	LW     x8, 28(x2)
Insns: 00000001100000010010010000000011 at PC_x=01000088

--------------------------------------
0100008c:  	02010113    	ADDI   x2, x2, 24
Insns: 00000010000000010000000100010011 at PC_x=0100008c

--------------------------------------
01000090:  	00008067    	JALR   x0, 32(x1)
Insns: 00000000000000001000000001100111 at PC_x=01000090

--------------------------------------
01000078:  	00050793    	ADDI   x15, x10, 0
Insns: 00000000000001010000011110010011 at PC_x=01000078

--------------------------------------
0100007c:  	00f407b3    	ADD    x15, x8, x15

--------------------------------------
01000080:  	00078513    	ADDI   x10, x15, 0
Insns: 00000000000001111000010100010011 at PC_x=01000080

--------------------------------------
01000084:  	01c12083    	LW     x1, 0(x2)
Insns: 00000001110000010010000010000011 at PC_x=01000084

--------------------------------------
01000088:  	01812403    	LW     x8, 28(x2)
Insns: 00000001100000010010010000000011 at PC_x=01000088

--------------------------------------
0100008c:  	02010113    	ADDI   x2, x2, 24
Insns: 00000010000000010000000100010011 at PC_x=0100008c

--------------------------------------
01000090:  	00008067    	JALR   x0, 32(x1)
Insns: 00000000000000001000000001100111 at PC_x=01000090

--------------------------------------
01000064:  	00050413    	ADDI   x8, x10, 0
Insns: 00000000000001010000010000010011 at PC_x=01000064

--------------------------------------
01000068:  	00c12783    	LW     x15, 0(x2)
Insns: 00000000110000010010011110000011 at PC_x=01000068

--------------------------------------
0100006c:  	ffe78793    	ADDI   x15, x15, 12
Insns: 11111111111001111000011110010011 at PC_x=0100006c

--------------------------------------
01000070:  	00078513    	ADDI   x10, x15, 4294967294
Insns: 00000000000001111000010100010011 at PC_x=01000070

--------------------------------------
01000074:  	fbdff0ef    	JAL    x1, 1000074

--------------------------------------
01000030:  	fe010113    	ADDI   x2, x2, 4294967228
Insns: 11111110000000010000000100010011 at PC_x=01000030

--------------------------------------
01000034:  	00112e23    	SW     x1, 4294967264(x2)

--------------------------------------
01000038:  	00812c23    	SW     x8, 28(x2)

--------------------------------------
0100003c:  	00a12623    	SW     x10, 24(x2)

--------------------------------------
01000040:  	00c12703    	LW     x14, 12(x2)
Insns: 00000000110000010010011100000011 at PC_x=01000040

--------------------------------------
01000044:  	00100793    	ADDI   x15, x0, 12
Insns: 00000000000100000000011110010011 at PC_x=01000044

--------------------------------------
01000048:  	00e7c663    	BLT    x15, x14, 1000049

--------------------------------------
0100004c:  	00c12783    	LW     x15, 12(x2)
Insns: 00000000110000010010011110000011 at PC_x=0100004c

--------------------------------------
01000050:  	0300006f    	JAL    x0, 100005c

--------------------------------------
01000080:  	00078513    	ADDI   x10, x15, 48
Insns: 00000000000001111000010100010011 at PC_x=01000080

--------------------------------------
01000084:  	01c12083    	LW     x1, 0(x2)
Insns: 00000001110000010010000010000011 at PC_x=01000084

--------------------------------------
01000088:  	01812403    	LW     x8, 28(x2)
Insns: 00000001100000010010010000000011 at PC_x=01000088

--------------------------------------
0100008c:  	02010113    	ADDI   x2, x2, 24
Insns: 00000010000000010000000100010011 at PC_x=0100008c

--------------------------------------
01000090:  	00008067    	JALR   x0, 32(x1)
Insns: 00000000000000001000000001100111 at PC_x=01000090

--------------------------------------
01000078:  	00050793    	ADDI   x15, x10, 0
Insns: 00000000000001010000011110010011 at PC_x=01000078

--------------------------------------
0100007c:  	00f407b3    	ADD    x15, x8, x15

--------------------------------------
01000080:  	00078513    	ADDI   x10, x15, 0
Insns: 00000000000001111000010100010011 at PC_x=01000080

--------------------------------------
01000084:  	01c12083    	LW     x1, 0(x2)
Insns: 00000001110000010010000010000011 at PC_x=01000084

--------------------------------------
01000088:  	01812403    	LW     x8, 28(x2)
Insns: 00000001100000010010010000000011 at PC_x=01000088

--------------------------------------
0100008c:  	02010113    	ADDI   x2, x2, 24
Insns: 00000010000000010000000100010011 at PC_x=0100008c

--------------------------------------
01000090:  	00008067    	JALR   x0, 32(x1)
Insns: 00000000000000001000000001100111 at PC_x=01000090

--------------------------------------
01000078:  	00050793    	ADDI   x15, x10, 0
Insns: 00000000000001010000011110010011 at PC_x=01000078

--------------------------------------
0100007c:  	00f407b3    	ADD    x15, x8, x15

--------------------------------------
01000080:  	00078513    	ADDI   x10, x15, 15
Insns: 00000000000001111000010100010011 at PC_x=01000080

--------------------------------------
01000084:  	01c12083    	LW     x1, 0(x2)
Insns: 00000001110000010010000010000011 at PC_x=01000084

--------------------------------------
01000088:  	01812403    	LW     x8, 28(x2)
Insns: 00000001100000010010010000000011 at PC_x=01000088

--------------------------------------
0100008c:  	02010113    	ADDI   x2, x2, 24
Insns: 00000010000000010000000100010011 at PC_x=0100008c

--------------------------------------
01000090:  	00008067    	JALR   x0, 32(x1)
Insns: 00000000000000001000000001100111 at PC_x=01000090

--------------------------------------
01000078:  	00050793    	ADDI   x15, x10, 0
Insns: 00000000000001010000011110010011 at PC_x=01000078

--------------------------------------
0100007c:  	00f407b3    	ADD    x15, x8, x15

--------------------------------------
01000080:  	00078513    	ADDI   x10, x15, 0
Insns: 00000000000001111000010100010011 at PC_x=01000080

--------------------------------------
01000084:  	01c12083    	LW     x1, 0(x2)
Insns: 00000001110000010010000010000011 at PC_x=01000084

--------------------------------------
01000088:  	01812403    	LW     x8, 28(x2)
Insns: 00000001100000010010010000000011 at PC_x=01000088

--------------------------------------
0100008c:  	02010113    	ADDI   x2, x2, 24
Insns: 00000010000000010000000100010011 at PC_x=0100008c

--------------------------------------
01000090:  	00008067    	JALR   x0, 32(x1)
Insns: 00000000000000001000000001100111 at PC_x=01000090

--------------------------------------
01000078:  	00050793    	ADDI   x15, x10, 0
Insns: 00000000000001010000011110010011 at PC_x=01000078

--------------------------------------
0100007c:  	00f407b3    	ADD    x15, x8, x15

--------------------------------------
01000080:  	00078513    	ADDI   x10, x15, 15
Insns: 00000000000001111000010100010011 at PC_x=01000080

--------------------------------------
01000084:  	01c12083    	LW     x1, 0(x2)
Insns: 00000001110000010010000010000011 at PC_x=01000084

--------------------------------------
01000088:  	01812403    	LW     x8, 28(x2)
Insns: 00000001100000010010010000000011 at PC_x=01000088

--------------------------------------
0100008c:  	02010113    	ADDI   x2, x2, 24
Insns: 00000010000000010000000100010011 at PC_x=0100008c

--------------------------------------
01000090:  	00008067    	JALR   x0, 32(x1)
Insns: 00000000000000001000000001100111 at PC_x=01000090

--------------------------------------
01000064:  	00050413    	ADDI   x8, x10, 0
Insns: 00000000000001010000010000010011 at PC_x=01000064

--------------------------------------
01000068:  	00c12783    	LW     x15, 0(x2)
Insns: 00000000110000010010011110000011 at PC_x=01000068

--------------------------------------
0100006c:  	ffe78793    	ADDI   x15, x15, 12
Insns: 11111111111001111000011110010011 at PC_x=0100006c

--------------------------------------
01000070:  	00078513    	ADDI   x10, x15, 4294967294
Insns: 00000000000001111000010100010011 at PC_x=01000070

--------------------------------------
01000074:  	fbdff0ef    	JAL    x1, 1000074

--------------------------------------
01000030:  	fe010113    	ADDI   x2, x2, 4294967229
Insns: 11111110000000010000000100010011 at PC_x=01000030

--------------------------------------
01000034:  	00112e23    	SW     x1, 4294967264(x2)

--------------------------------------
01000038:  	00812c23    	SW     x8, 28(x2)

--------------------------------------
0100003c:  	00a12623    	SW     x10, 24(x2)

--------------------------------------
01000040:  	00c12703    	LW     x14, 12(x2)
Insns: 00000000110000010010011100000011 at PC_x=01000040

--------------------------------------
01000044:  	00100793    	ADDI   x15, x0, 12
Insns: 00000000000100000000011110010011 at PC_x=01000044

--------------------------------------
01000048:  	00e7c663    	BLT    x15, x14, 1000049

--------------------------------------
01000054:  	00c12783    	LW     x15, 12(x2)
Insns: 00000000110000010010011110000011 at PC_x=01000054

--------------------------------------
01000058:  	fff78793    	ADDI   x15, x15, 12
Insns: 11111111111101111000011110010011 at PC_x=01000058

--------------------------------------
0100005c:  	00078513    	ADDI   x10, x15, 4294967295
Insns: 00000000000001111000010100010011 at PC_x=0100005c

--------------------------------------
01000060:  	fd1ff0ef    	JAL    x1, 1000060

--------------------------------------
01000030:  	fe010113    	ADDI   x2, x2, 4294967248
Insns: 11111110000000010000000100010011 at PC_x=01000030

--------------------------------------
01000034:  	00112e23    	SW     x1, 4294967264(x2)

--------------------------------------
01000038:  	00812c23    	SW     x8, 28(x2)

--------------------------------------
0100003c:  	00a12623    	SW     x10, 24(x2)

--------------------------------------
01000040:  	00c12703    	LW     x14, 12(x2)
Insns: 00000000110000010010011100000011 at PC_x=01000040

--------------------------------------
01000044:  	00100793    	ADDI   x15, x0, 12
Insns: 00000000000100000000011110010011 at PC_x=01000044

--------------------------------------
01000048:  	00e7c663    	BLT    x15, x14, 1000049

--------------------------------------
01000054:  	00c12783    	LW     x15, 12(x2)
Insns: 00000000110000010010011110000011 at PC_x=01000054

--------------------------------------
01000058:  	fff78793    	ADDI   x15, x15, 12
Insns: 11111111111101111000011110010011 at PC_x=01000058

--------------------------------------
0100005c:  	00078513    	ADDI   x10, x15, 4294967295
Insns: 00000000000001111000010100010011 at PC_x=0100005c

--------------------------------------
01000060:  	fd1ff0ef    	JAL    x1, 1000060

--------------------------------------
01000030:  	fe010113    	ADDI   x2, x2, 4294967249
Insns: 11111110000000010000000100010011 at PC_x=01000030

--------------------------------------
01000034:  	00112e23    	SW     x1, 4294967264(x2)

--------------------------------------
01000038:  	00812c23    	SW     x8, 28(x2)

--------------------------------------
0100003c:  	00a12623    	SW     x10, 24(x2)

--------------------------------------
01000040:  	00c12703    	LW     x14, 12(x2)
Insns: 00000000110000010010011100000011 at PC_x=01000040

--------------------------------------
01000044:  	00100793    	ADDI   x15, x0, 12
Insns: 00000000000100000000011110010011 at PC_x=01000044

--------------------------------------
01000048:  	00e7c663    	BLT    x15, x14, 1000049

--------------------------------------
01000054:  	00c12783    	LW     x15, 12(x2)
Insns: 00000000110000010010011110000011 at PC_x=01000054

--------------------------------------
01000058:  	fff78793    	ADDI   x15, x15, 12
Insns: 11111111111101111000011110010011 at PC_x=01000058

--------------------------------------
0100005c:  	00078513    	ADDI   x10, x15, 4294967295
Insns: 00000000000001111000010100010011 at PC_x=0100005c

--------------------------------------
01000060:  	fd1ff0ef    	JAL    x1, 1000060

--------------------------------------
01000030:  	fe010113    	ADDI   x2, x2, 4294967248
Insns: 11111110000000010000000100010011 at PC_x=01000030

--------------------------------------
01000034:  	00112e23    	SW     x1, 4294967264(x2)

--------------------------------------
01000038:  	00812c23    	SW     x8, 28(x2)

--------------------------------------
0100003c:  	00a12623    	SW     x10, 24(x2)

--------------------------------------
01000040:  	00c12703    	LW     x14, 12(x2)
Insns: 00000000110000010010011100000011 at PC_x=01000040

--------------------------------------
01000044:  	00100793    	ADDI   x15, x0, 12
Insns: 00000000000100000000011110010011 at PC_x=01000044

--------------------------------------
01000048:  	00e7c663    	BLT    x15, x14, 1000049

--------------------------------------
01000054:  	00c12783    	LW     x15, 12(x2)
Insns: 00000000110000010010011110000011 at PC_x=01000054

--------------------------------------
01000058:  	fff78793    	ADDI   x15, x15, 12
Insns: 11111111111101111000011110010011 at PC_x=01000058

--------------------------------------
0100005c:  	00078513    	ADDI   x10, x15, 4294967295
Insns: 00000000000001111000010100010011 at PC_x=0100005c

--------------------------------------
01000060:  	fd1ff0ef    	JAL    x1, 1000060

--------------------------------------
01000030:  	fe010113    	ADDI   x2, x2, 4294967249
Insns: 11111110000000010000000100010011 at PC_x=01000030

--------------------------------------
01000034:  	00112e23    	SW     x1, 4294967264(x2)

--------------------------------------
01000038:  	00812c23    	SW     x8, 28(x2)

--------------------------------------
0100003c:  	00a12623    	SW     x10, 24(x2)

--------------------------------------
01000040:  	00c12703    	LW     x14, 12(x2)
Insns: 00000000110000010010011100000011 at PC_x=01000040

--------------------------------------
01000044:  	00100793    	ADDI   x15, x0, 12
Insns: 00000000000100000000011110010011 at PC_x=01000044

--------------------------------------
01000048:  	00e7c663    	BLT    x15, x14, 1000049

--------------------------------------
01000054:  	00c12783    	LW     x15, 12(x2)
Insns: 00000000110000010010011110000011 at PC_x=01000054

--------------------------------------
01000058:  	fff78793    	ADDI   x15, x15, 12
Insns: 11111111111101111000011110010011 at PC_x=01000058

--------------------------------------
0100005c:  	00078513    	ADDI   x10, x15, 4294967295
Insns: 00000000000001111000010100010011 at PC_x=0100005c

--------------------------------------
01000060:  	fd1ff0ef    	JAL    x1, 1000060

--------------------------------------
01000030:  	fe010113    	ADDI   x2, x2, 4294967248
Insns: 11111110000000010000000100010011 at PC_x=01000030

--------------------------------------
01000034:  	00112e23    	SW     x1, 4294967264(x2)

--------------------------------------
01000038:  	00812c23    	SW     x8, 28(x2)

--------------------------------------
0100003c:  	00a12623    	SW     x10, 24(x2)

--------------------------------------
01000040:  	00c12703    	LW     x14, 12(x2)
Insns: 00000000110000010010011100000011 at PC_x=01000040

--------------------------------------
01000044:  	00100793    	ADDI   x15, x0, 12
Insns: 00000000000100000000011110010011 at PC_x=01000044

--------------------------------------
01000048:  	00e7c663    	BLT    x15, x14, 1000049

--------------------------------------
01000054:  	00c12783    	LW     x15, 12(x2)
Insns: 00000000110000010010011110000011 at PC_x=01000054

--------------------------------------
01000058:  	fff78793    	ADDI   x15, x15, 12
Insns: 11111111111101111000011110010011 at PC_x=01000058

--------------------------------------
0100005c:  	00078513    	ADDI   x10, x15, 4294967295
Insns: 00000000000001111000010100010011 at PC_x=0100005c

--------------------------------------
01000060:  	fd1ff0ef    	JAL    x1, 1000060

--------------------------------------
01000030:  	fe010113    	ADDI   x2, x2, 4294967249
Insns: 11111110000000010000000100010011 at PC_x=01000030

--------------------------------------
01000034:  	00112e23    	SW     x1, 4294967264(x2)

--------------------------------------
01000038:  	00812c23    	SW     x8, 28(x2)

--------------------------------------
0100003c:  	00a12623    	SW     x10, 24(x2)

--------------------------------------
01000040:  	00c12703    	LW     x14, 12(x2)
Insns: 00000000110000010010011100000011 at PC_x=01000040

--------------------------------------
01000044:  	00100793    	ADDI   x15, x0, 12
Insns: 00000000000100000000011110010011 at PC_x=01000044

--------------------------------------
01000048:  	00e7c663    	BLT    x15, x14, 1000049

--------------------------------------
01000054:  	00c12783    	LW     x15, 12(x2)
Insns: 00000000110000010010011110000011 at PC_x=01000054

--------------------------------------
01000058:  	fff78793    	ADDI   x15, x15, 12
Insns: 11111111111101111000011110010011 at PC_x=01000058

--------------------------------------
0100005c:  	00078513    	ADDI   x10, x15, 4294967295
Insns: 00000000000001111000010100010011 at PC_x=0100005c

--------------------------------------
01000060:  	fd1ff0ef    	JAL    x1, 1000060

--------------------------------------
01000030:  	fe010113    	ADDI   x2, x2, 4294967248
Insns: 11111110000000010000000100010011 at PC_x=01000030

--------------------------------------
01000034:  	00112e23    	SW     x1, 4294967264(x2)

--------------------------------------
01000038:  	00812c23    	SW     x8, 28(x2)

--------------------------------------
0100003c:  	00a12623    	SW     x10, 24(x2)

--------------------------------------
01000040:  	00c12703    	LW     x14, 12(x2)
Insns: 00000000110000010010011100000011 at PC_x=01000040

--------------------------------------
01000044:  	00100793    	ADDI   x15, x0, 12
Insns: 00000000000100000000011110010011 at PC_x=01000044

--------------------------------------
01000048:  	00e7c663    	BLT    x15, x14, 1000049

--------------------------------------
0100004c:  	00c12783    	LW     x15, 12(x2)
Insns: 00000000110000010010011110000011 at PC_x=0100004c

--------------------------------------
01000050:  	0300006f    	JAL    x0, 100005c

--------------------------------------
01000080:  	00078513    	ADDI   x10, x15, 48
Insns: 00000000000001111000010100010011 at PC_x=01000080

--------------------------------------
01000084:  	01c12083    	LW     x1, 0(x2)
Insns: 00000001110000010010000010000011 at PC_x=01000084

--------------------------------------
01000088:  	01812403    	LW     x8, 28(x2)
Insns: 00000001100000010010010000000011 at PC_x=01000088

--------------------------------------
0100008c:  	02010113    	ADDI   x2, x2, 24
Insns: 00000010000000010000000100010011 at PC_x=0100008c

--------------------------------------
01000090:  	00008067    	JALR   x0, 32(x1)
Insns: 00000000000000001000000001100111 at PC_x=01000090

--------------------------------------
01000064:  	00050413    	ADDI   x8, x10, 0
Insns: 00000000000001010000010000010011 at PC_x=01000064

--------------------------------------
01000068:  	00c12783    	LW     x15, 0(x2)
Insns: 00000000110000010010011110000011 at PC_x=01000068

--------------------------------------
0100006c:  	ffe78793    	ADDI   x15, x15, 12
Insns: 11111111111001111000011110010011 at PC_x=0100006c

--------------------------------------
01000070:  	00078513    	ADDI   x10, x15, 4294967294
Insns: 00000000000001111000010100010011 at PC_x=01000070

--------------------------------------
01000074:  	fbdff0ef    	JAL    x1, 1000074

--------------------------------------
01000030:  	fe010113    	ADDI   x2, x2, 4294967229
Insns: 11111110000000010000000100010011 at PC_x=01000030

--------------------------------------
01000034:  	00112e23    	SW     x1, 4294967264(x2)

--------------------------------------
01000038:  	00812c23    	SW     x8, 28(x2)

--------------------------------------
0100003c:  	00a12623    	SW     x10, 24(x2)

--------------------------------------
01000040:  	00c12703    	LW     x14, 12(x2)
Insns: 00000000110000010010011100000011 at PC_x=01000040

--------------------------------------
01000044:  	00100793    	ADDI   x15, x0, 12
Insns: 00000000000100000000011110010011 at PC_x=01000044

--------------------------------------
01000048:  	00e7c663    	BLT    x15, x14, 1000049

--------------------------------------
0100004c:  	00c12783    	LW     x15, 12(x2)
Insns: 00000000110000010010011110000011 at PC_x=0100004c

--------------------------------------
01000050:  	0300006f    	JAL    x0, 100005c

--------------------------------------
01000080:  	00078513    	ADDI   x10, x15, 48
Insns: 00000000000001111000010100010011 at PC_x=01000080

--------------------------------------
01000084:  	01c12083    	LW     x1, 0(x2)
Insns: 00000001110000010010000010000011 at PC_x=01000084

--------------------------------------
01000088:  	01812403    	LW     x8, 28(x2)
Insns: 00000001100000010010010000000011 at PC_x=01000088

--------------------------------------
0100008c:  	02010113    	ADDI   x2, x2, 24
Insns: 00000010000000010000000100010011 at PC_x=0100008c

--------------------------------------
01000090:  	00008067    	JALR   x0, 32(x1)
Insns: 00000000000000001000000001100111 at PC_x=01000090

--------------------------------------
01000078:  	00050793    	ADDI   x15, x10, 0
Insns: 00000000000001010000011110010011 at PC_x=01000078

--------------------------------------
0100007c:  	00f407b3    	ADD    x15, x8, x15

--------------------------------------
01000080:  	00078513    	ADDI   x10, x15, 15
Insns: 00000000000001111000010100010011 at PC_x=01000080

--------------------------------------
01000084:  	01c12083    	LW     x1, 0(x2)
Insns: 00000001110000010010000010000011 at PC_x=01000084

--------------------------------------
01000088:  	01812403    	LW     x8, 28(x2)
Insns: 00000001100000010010010000000011 at PC_x=01000088

--------------------------------------
0100008c:  	02010113    	ADDI   x2, x2, 24
Insns: 00000010000000010000000100010011 at PC_x=0100008c

--------------------------------------
01000090:  	00008067    	JALR   x0, 32(x1)
Insns: 00000000000000001000000001100111 at PC_x=01000090

--------------------------------------
01000064:  	00050413    	ADDI   x8, x10, 0
Insns: 00000000000001010000010000010011 at PC_x=01000064

--------------------------------------
01000068:  	00c12783    	LW     x15, 0(x2)
Insns: 00000000110000010010011110000011 at PC_x=01000068

--------------------------------------
0100006c:  	ffe78793    	ADDI   x15, x15, 12
Insns: 11111111111001111000011110010011 at PC_x=0100006c

--------------------------------------
01000070:  	00078513    	ADDI   x10, x15, 4294967294
Insns: 00000000000001111000010100010011 at PC_x=01000070

--------------------------------------
01000074:  	fbdff0ef    	JAL    x1, 1000074

--------------------------------------
01000030:  	fe010113    	ADDI   x2, x2, 4294967229
Insns: 11111110000000010000000100010011 at PC_x=01000030

--------------------------------------
01000034:  	00112e23    	SW     x1, 4294967264(x2)

--------------------------------------
01000038:  	00812c23    	SW     x8, 28(x2)

--------------------------------------
0100003c:  	00a12623    	SW     x10, 24(x2)

--------------------------------------
01000040:  	00c12703    	LW     x14, 12(x2)
Insns: 00000000110000010010011100000011 at PC_x=01000040

--------------------------------------
01000044:  	00100793    	ADDI   x15, x0, 12
Insns: 00000000000100000000011110010011 at PC_x=01000044

--------------------------------------
01000048:  	00e7c663    	BLT    x15, x14, 1000049

--------------------------------------
0100004c:  	00c12783    	LW     x15, 12(x2)
Insns: 00000000110000010010011110000011 at PC_x=0100004c

--------------------------------------
01000050:  	0300006f    	JAL    x0, 100005c

--------------------------------------
01000080:  	00078513    	ADDI   x10, x15, 48
Insns: 00000000000001111000010100010011 at PC_x=01000080

--------------------------------------
01000084:  	01c12083    	LW     x1, 0(x2)
Insns: 00000001110000010010000010000011 at PC_x=01000084

--------------------------------------
01000088:  	01812403    	LW     x8, 28(x2)
Insns: 00000001100000010010010000000011 at PC_x=01000088

--------------------------------------
0100008c:  	02010113    	ADDI   x2, x2, 24
Insns: 00000010000000010000000100010011 at PC_x=0100008c

--------------------------------------
01000090:  	00008067    	JALR   x0, 32(x1)
Insns: 00000000000000001000000001100111 at PC_x=01000090

--------------------------------------
01000078:  	00050793    	ADDI   x15, x10, 0
Insns: 00000000000001010000011110010011 at PC_x=01000078

--------------------------------------
0100007c:  	00f407b3    	ADD    x15, x8, x15

--------------------------------------
01000080:  	00078513    	ADDI   x10, x15, 15
Insns: 00000000000001111000010100010011 at PC_x=01000080

--------------------------------------
01000084:  	01c12083    	LW     x1, 0(x2)
Insns: 00000001110000010010000010000011 at PC_x=01000084

--------------------------------------
01000088:  	01812403    	LW     x8, 28(x2)
Insns: 00000001100000010010010000000011 at PC_x=01000088

--------------------------------------
0100008c:  	02010113    	ADDI   x2, x2, 24
Insns: 00000010000000010000000100010011 at PC_x=0100008c

--------------------------------------
01000090:  	00008067    	JALR   x0, 32(x1)
Insns: 00000000000000001000000001100111 at PC_x=01000090

--------------------------------------
01000064:  	00050413    	ADDI   x8, x10, 0
Insns: 00000000000001010000010000010011 at PC_x=01000064

--------------------------------------
01000068:  	00c12783    	LW     x15, 0(x2)
Insns: 00000000110000010010011110000011 at PC_x=01000068

--------------------------------------
0100006c:  	ffe78793    	ADDI   x15, x15, 12
Insns: 11111111111001111000011110010011 at PC_x=0100006c

--------------------------------------
01000070:  	00078513    	ADDI   x10, x15, 4294967294
Insns: 00000000000001111000010100010011 at PC_x=01000070

--------------------------------------
01000074:  	fbdff0ef    	JAL    x1, 1000074

--------------------------------------
01000030:  	fe010113    	ADDI   x2, x2, 4294967229
Insns: 11111110000000010000000100010011 at PC_x=01000030

--------------------------------------
01000034:  	00112e23    	SW     x1, 4294967264(x2)

--------------------------------------
01000038:  	00812c23    	SW     x8, 28(x2)

--------------------------------------
0100003c:  	00a12623    	SW     x10, 24(x2)

--------------------------------------
01000040:  	00c12703    	LW     x14, 12(x2)
Insns: 00000000110000010010011100000011 at PC_x=01000040

--------------------------------------
01000044:  	00100793    	ADDI   x15, x0, 12
Insns: 00000000000100000000011110010011 at PC_x=01000044

--------------------------------------
01000048:  	00e7c663    	BLT    x15, x14, 1000049

--------------------------------------
01000054:  	00c12783    	LW     x15, 12(x2)
Insns: 00000000110000010010011110000011 at PC_x=01000054

--------------------------------------
01000058:  	fff78793    	ADDI   x15, x15, 12
Insns: 11111111111101111000011110010011 at PC_x=01000058

--------------------------------------
0100005c:  	00078513    	ADDI   x10, x15, 4294967295
Insns: 00000000000001111000010100010011 at PC_x=0100005c

--------------------------------------
01000060:  	fd1ff0ef    	JAL    x1, 1000060

--------------------------------------
01000030:  	fe010113    	ADDI   x2, x2, 4294967248
Insns: 11111110000000010000000100010011 at PC_x=01000030

--------------------------------------
01000034:  	00112e23    	SW     x1, 4294967264(x2)

--------------------------------------
01000038:  	00812c23    	SW     x8, 28(x2)

--------------------------------------
0100003c:  	00a12623    	SW     x10, 24(x2)

--------------------------------------
01000040:  	00c12703    	LW     x14, 12(x2)
Insns: 00000000110000010010011100000011 at PC_x=01000040

--------------------------------------
01000044:  	00100793    	ADDI   x15, x0, 12
Insns: 00000000000100000000011110010011 at PC_x=01000044

--------------------------------------
01000048:  	00e7c663    	BLT    x15, x14, 1000049

--------------------------------------
0100004c:  	00c12783    	LW     x15, 12(x2)
Insns: 00000000110000010010011110000011 at PC_x=0100004c

--------------------------------------
01000050:  	0300006f    	JAL    x0, 100005c

--------------------------------------
01000080:  	00078513    	ADDI   x10, x15, 48
Insns: 00000000000001111000010100010011 at PC_x=01000080

--------------------------------------
01000084:  	01c12083    	LW     x1, 0(x2)
Insns: 00000001110000010010000010000011 at PC_x=01000084

--------------------------------------
01000088:  	01812403    	LW     x8, 28(x2)
Insns: 00000001100000010010010000000011 at PC_x=01000088

--------------------------------------
0100008c:  	02010113    	ADDI   x2, x2, 24
Insns: 00000010000000010000000100010011 at PC_x=0100008c

--------------------------------------
01000090:  	00008067    	JALR   x0, 32(x1)
Insns: 00000000000000001000000001100111 at PC_x=01000090

--------------------------------------
01000064:  	00050413    	ADDI   x8, x10, 0
Insns: 00000000000001010000010000010011 at PC_x=01000064

--------------------------------------
01000068:  	00c12783    	LW     x15, 0(x2)
Insns: 00000000110000010010011110000011 at PC_x=01000068

--------------------------------------
0100006c:  	ffe78793    	ADDI   x15, x15, 12
Insns: 11111111111001111000011110010011 at PC_x=0100006c

--------------------------------------
01000070:  	00078513    	ADDI   x10, x15, 4294967294
Insns: 00000000000001111000010100010011 at PC_x=01000070

--------------------------------------
01000074:  	fbdff0ef    	JAL    x1, 1000074

--------------------------------------
01000030:  	fe010113    	ADDI   x2, x2, 4294967229
Insns: 11111110000000010000000100010011 at PC_x=01000030

--------------------------------------
01000034:  	00112e23    	SW     x1, 4294967264(x2)

--------------------------------------
01000038:  	00812c23    	SW     x8, 28(x2)

--------------------------------------
0100003c:  	00a12623    	SW     x10, 24(x2)

--------------------------------------
01000040:  	00c12703    	LW     x14, 12(x2)
Insns: 00000000110000010010011100000011 at PC_x=01000040

--------------------------------------
01000044:  	00100793    	ADDI   x15, x0, 12
Insns: 00000000000100000000011110010011 at PC_x=01000044

--------------------------------------
01000048:  	00e7c663    	BLT    x15, x14, 1000049

--------------------------------------
0100004c:  	00c12783    	LW     x15, 12(x2)
Insns: 00000000110000010010011110000011 at PC_x=0100004c

--------------------------------------
01000050:  	0300006f    	JAL    x0, 100005c

--------------------------------------
01000080:  	00078513    	ADDI   x10, x15, 48
Insns: 00000000000001111000010100010011 at PC_x=01000080

--------------------------------------
01000084:  	01c12083    	LW     x1, 0(x2)
Insns: 00000001110000010010000010000011 at PC_x=01000084

--------------------------------------
01000088:  	01812403    	LW     x8, 28(x2)
Insns: 00000001100000010010010000000011 at PC_x=01000088

--------------------------------------
0100008c:  	02010113    	ADDI   x2, x2, 24
Insns: 00000010000000010000000100010011 at PC_x=0100008c

--------------------------------------
01000090:  	00008067    	JALR   x0, 32(x1)
Insns: 00000000000000001000000001100111 at PC_x=01000090

--------------------------------------
01000078:  	00050793    	ADDI   x15, x10, 0
Insns: 00000000000001010000011110010011 at PC_x=01000078

--------------------------------------
0100007c:  	00f407b3    	ADD    x15, x8, x15

--------------------------------------
01000080:  	00078513    	ADDI   x10, x15, 15
Insns: 00000000000001111000010100010011 at PC_x=01000080

--------------------------------------
01000084:  	01c12083    	LW     x1, 0(x2)
Insns: 00000001110000010010000010000011 at PC_x=01000084

--------------------------------------
01000088:  	01812403    	LW     x8, 28(x2)
Insns: 00000001100000010010010000000011 at PC_x=01000088

--------------------------------------
0100008c:  	02010113    	ADDI   x2, x2, 24
Insns: 00000010000000010000000100010011 at PC_x=0100008c

--------------------------------------
01000090:  	00008067    	JALR   x0, 32(x1)
Insns: 00000000000000001000000001100111 at PC_x=01000090

--------------------------------------
01000078:  	00050793    	ADDI   x15, x10, 0
Insns: 00000000000001010000011110010011 at PC_x=01000078

--------------------------------------
0100007c:  	00f407b3    	ADD    x15, x8, x15

--------------------------------------
01000080:  	00078513    	ADDI   x10, x15, 0
Insns: 00000000000001111000010100010011 at PC_x=01000080

--------------------------------------
01000084:  	01c12083    	LW     x1, 0(x2)
Insns: 00000001110000010010000010000011 at PC_x=01000084

--------------------------------------
01000088:  	01812403    	LW     x8, 28(x2)
Insns: 00000001100000010010010000000011 at PC_x=01000088

--------------------------------------
0100008c:  	02010113    	ADDI   x2, x2, 24
Insns: 00000010000000010000000100010011 at PC_x=0100008c

--------------------------------------
01000090:  	00008067    	JALR   x0, 32(x1)
Insns: 00000000000000001000000001100111 at PC_x=01000090

--------------------------------------
01000064:  	00050413    	ADDI   x8, x10, 0
Insns: 00000000000001010000010000010011 at PC_x=01000064

--------------------------------------
01000068:  	00c12783    	LW     x15, 0(x2)
Insns: 00000000110000010010011110000011 at PC_x=01000068

--------------------------------------
0100006c:  	ffe78793    	ADDI   x15, x15, 12
Insns: 11111111111001111000011110010011 at PC_x=0100006c

--------------------------------------
01000070:  	00078513    	ADDI   x10, x15, 4294967294
Insns: 00000000000001111000010100010011 at PC_x=01000070

--------------------------------------
01000074:  	fbdff0ef    	JAL    x1, 1000074

--------------------------------------
01000030:  	fe010113    	ADDI   x2, x2, 4294967228
Insns: 11111110000000010000000100010011 at PC_x=01000030

--------------------------------------
01000034:  	00112e23    	SW     x1, 4294967264(x2)

--------------------------------------
01000038:  	00812c23    	SW     x8, 28(x2)

--------------------------------------
0100003c:  	00a12623    	SW     x10, 24(x2)

--------------------------------------
01000040:  	00c12703    	LW     x14, 12(x2)
Insns: 00000000110000010010011100000011 at PC_x=01000040

--------------------------------------
01000044:  	00100793    	ADDI   x15, x0, 12
Insns: 00000000000100000000011110010011 at PC_x=01000044

--------------------------------------
01000048:  	00e7c663    	BLT    x15, x14, 1000049

--------------------------------------
01000054:  	00c12783    	LW     x15, 12(x2)
Insns: 00000000110000010010011110000011 at PC_x=01000054

--------------------------------------
01000058:  	fff78793    	ADDI   x15, x15, 12
Insns: 11111111111101111000011110010011 at PC_x=01000058

--------------------------------------
0100005c:  	00078513    	ADDI   x10, x15, 4294967295
Insns: 00000000000001111000010100010011 at PC_x=0100005c

--------------------------------------
01000060:  	fd1ff0ef    	JAL    x1, 1000060

--------------------------------------
01000030:  	fe010113    	ADDI   x2, x2, 4294967249
Insns: 11111110000000010000000100010011 at PC_x=01000030

--------------------------------------
01000034:  	00112e23    	SW     x1, 4294967264(x2)

--------------------------------------
01000038:  	00812c23    	SW     x8, 28(x2)

--------------------------------------
0100003c:  	00a12623    	SW     x10, 24(x2)

--------------------------------------
01000040:  	00c12703    	LW     x14, 12(x2)
Insns: 00000000110000010010011100000011 at PC_x=01000040

--------------------------------------
01000044:  	00100793    	ADDI   x15, x0, 12
Insns: 00000000000100000000011110010011 at PC_x=01000044

--------------------------------------
01000048:  	00e7c663    	BLT    x15, x14, 1000049

--------------------------------------
01000054:  	00c12783    	LW     x15, 12(x2)
Insns: 00000000110000010010011110000011 at PC_x=01000054

--------------------------------------
01000058:  	fff78793    	ADDI   x15, x15, 12
Insns: 11111111111101111000011110010011 at PC_x=01000058

--------------------------------------
0100005c:  	00078513    	ADDI   x10, x15, 4294967295
Insns: 00000000000001111000010100010011 at PC_x=0100005c

--------------------------------------
01000060:  	fd1ff0ef    	JAL    x1, 1000060

--------------------------------------
01000030:  	fe010113    	ADDI   x2, x2, 4294967248
Insns: 11111110000000010000000100010011 at PC_x=01000030

--------------------------------------
01000034:  	00112e23    	SW     x1, 4294967264(x2)

--------------------------------------
01000038:  	00812c23    	SW     x8, 28(x2)

--------------------------------------
0100003c:  	00a12623    	SW     x10, 24(x2)

--------------------------------------
01000040:  	00c12703    	LW     x14, 12(x2)
Insns: 00000000110000010010011100000011 at PC_x=01000040

--------------------------------------
01000044:  	00100793    	ADDI   x15, x0, 12
Insns: 00000000000100000000011110010011 at PC_x=01000044

--------------------------------------
01000048:  	00e7c663    	BLT    x15, x14, 1000049

--------------------------------------
0100004c:  	00c12783    	LW     x15, 12(x2)
Insns: 00000000110000010010011110000011 at PC_x=0100004c

--------------------------------------
01000050:  	0300006f    	JAL    x0, 100005c

--------------------------------------
01000080:  	00078513    	ADDI   x10, x15, 48
Insns: 00000000000001111000010100010011 at PC_x=01000080

--------------------------------------
01000084:  	01c12083    	LW     x1, 0(x2)
Insns: 00000001110000010010000010000011 at PC_x=01000084

--------------------------------------
01000088:  	01812403    	LW     x8, 28(x2)
Insns: 00000001100000010010010000000011 at PC_x=01000088

--------------------------------------
0100008c:  	02010113    	ADDI   x2, x2, 24
Insns: 00000010000000010000000100010011 at PC_x=0100008c

--------------------------------------
01000090:  	00008067    	JALR   x0, 32(x1)
Insns: 00000000000000001000000001100111 at PC_x=01000090

--------------------------------------
01000064:  	00050413    	ADDI   x8, x10, 0
Insns: 00000000000001010000010000010011 at PC_x=01000064

--------------------------------------
01000068:  	00c12783    	LW     x15, 0(x2)
Insns: 00000000110000010010011110000011 at PC_x=01000068

--------------------------------------
0100006c:  	ffe78793    	ADDI   x15, x15, 12
Insns: 11111111111001111000011110010011 at PC_x=0100006c

--------------------------------------
01000070:  	00078513    	ADDI   x10, x15, 4294967294
Insns: 00000000000001111000010100010011 at PC_x=01000070

--------------------------------------
01000074:  	fbdff0ef    	JAL    x1, 1000074

--------------------------------------
01000030:  	fe010113    	ADDI   x2, x2, 4294967229
Insns: 11111110000000010000000100010011 at PC_x=01000030

--------------------------------------
01000034:  	00112e23    	SW     x1, 4294967264(x2)

--------------------------------------
01000038:  	00812c23    	SW     x8, 28(x2)

--------------------------------------
0100003c:  	00a12623    	SW     x10, 24(x2)

--------------------------------------
01000040:  	00c12703    	LW     x14, 12(x2)
Insns: 00000000110000010010011100000011 at PC_x=01000040

--------------------------------------
01000044:  	00100793    	ADDI   x15, x0, 12
Insns: 00000000000100000000011110010011 at PC_x=01000044

--------------------------------------
01000048:  	00e7c663    	BLT    x15, x14, 1000049

--------------------------------------
0100004c:  	00c12783    	LW     x15, 12(x2)
Insns: 00000000110000010010011110000011 at PC_x=0100004c

--------------------------------------
01000050:  	0300006f    	JAL    x0, 100005c

--------------------------------------
01000080:  	00078513    	ADDI   x10, x15, 48
Insns: 00000000000001111000010100010011 at PC_x=01000080

--------------------------------------
01000084:  	01c12083    	LW     x1, 0(x2)
Insns: 00000001110000010010000010000011 at PC_x=01000084

--------------------------------------
01000088:  	01812403    	LW     x8, 28(x2)
Insns: 00000001100000010010010000000011 at PC_x=01000088

--------------------------------------
0100008c:  	02010113    	ADDI   x2, x2, 24
Insns: 00000010000000010000000100010011 at PC_x=0100008c

--------------------------------------
01000090:  	00008067    	JALR   x0, 32(x1)
Insns: 00000000000000001000000001100111 at PC_x=01000090

--------------------------------------
01000078:  	00050793    	ADDI   x15, x10, 0
Insns: 00000000000001010000011110010011 at PC_x=01000078

--------------------------------------
0100007c:  	00f407b3    	ADD    x15, x8, x15

--------------------------------------
01000080:  	00078513    	ADDI   x10, x15, 15
Insns: 00000000000001111000010100010011 at PC_x=01000080

--------------------------------------
01000084:  	01c12083    	LW     x1, 0(x2)
Insns: 00000001110000010010000010000011 at PC_x=01000084

--------------------------------------
01000088:  	01812403    	LW     x8, 28(x2)
Insns: 00000001100000010010010000000011 at PC_x=01000088

--------------------------------------
0100008c:  	02010113    	ADDI   x2, x2, 24
Insns: 00000010000000010000000100010011 at PC_x=0100008c

--------------------------------------
01000090:  	00008067    	JALR   x0, 32(x1)
Insns: 00000000000000001000000001100111 at PC_x=01000090

--------------------------------------
01000064:  	00050413    	ADDI   x8, x10, 0
Insns: 00000000000001010000010000010011 at PC_x=01000064

--------------------------------------
01000068:  	00c12783    	LW     x15, 0(x2)
Insns: 00000000110000010010011110000011 at PC_x=01000068

--------------------------------------
0100006c:  	ffe78793    	ADDI   x15, x15, 12
Insns: 11111111111001111000011110010011 at PC_x=0100006c

--------------------------------------
01000070:  	00078513    	ADDI   x10, x15, 4294967294
Insns: 00000000000001111000010100010011 at PC_x=01000070

--------------------------------------
01000074:  	fbdff0ef    	JAL    x1, 1000074

--------------------------------------
01000030:  	fe010113    	ADDI   x2, x2, 4294967229
Insns: 11111110000000010000000100010011 at PC_x=01000030

--------------------------------------
01000034:  	00112e23    	SW     x1, 4294967264(x2)

--------------------------------------
01000038:  	00812c23    	SW     x8, 28(x2)

--------------------------------------
0100003c:  	00a12623    	SW     x10, 24(x2)

--------------------------------------
01000040:  	00c12703    	LW     x14, 12(x2)
Insns: 00000000110000010010011100000011 at PC_x=01000040

--------------------------------------
01000044:  	00100793    	ADDI   x15, x0, 12
Insns: 00000000000100000000011110010011 at PC_x=01000044

--------------------------------------
01000048:  	00e7c663    	BLT    x15, x14, 1000049

--------------------------------------
0100004c:  	00c12783    	LW     x15, 12(x2)
Insns: 00000000110000010010011110000011 at PC_x=0100004c

--------------------------------------
01000050:  	0300006f    	JAL    x0, 100005c

--------------------------------------
01000080:  	00078513    	ADDI   x10, x15, 48
Insns: 00000000000001111000010100010011 at PC_x=01000080

--------------------------------------
01000084:  	01c12083    	LW     x1, 0(x2)
Insns: 00000001110000010010000010000011 at PC_x=01000084

--------------------------------------
01000088:  	01812403    	LW     x8, 28(x2)
Insns: 00000001100000010010010000000011 at PC_x=01000088

--------------------------------------
0100008c:  	02010113    	ADDI   x2, x2, 24
Insns: 00000010000000010000000100010011 at PC_x=0100008c

--------------------------------------
01000090:  	00008067    	JALR   x0, 32(x1)
Insns: 00000000000000001000000001100111 at PC_x=01000090

--------------------------------------
01000078:  	00050793    	ADDI   x15, x10, 0
Insns: 00000000000001010000011110010011 at PC_x=01000078

--------------------------------------
0100007c:  	00f407b3    	ADD    x15, x8, x15

--------------------------------------
01000080:  	00078513    	ADDI   x10, x15, 15
Insns: 00000000000001111000010100010011 at PC_x=01000080

--------------------------------------
01000084:  	01c12083    	LW     x1, 0(x2)
Insns: 00000001110000010010000010000011 at PC_x=01000084

--------------------------------------
01000088:  	01812403    	LW     x8, 28(x2)
Insns: 00000001100000010010010000000011 at PC_x=01000088

--------------------------------------
0100008c:  	02010113    	ADDI   x2, x2, 24
Insns: 00000010000000010000000100010011 at PC_x=0100008c

--------------------------------------
01000090:  	00008067    	JALR   x0, 32(x1)
Insns: 00000000000000001000000001100111 at PC_x=01000090

--------------------------------------
01000078:  	00050793    	ADDI   x15, x10, 0
Insns: 00000000000001010000011110010011 at PC_x=01000078

--------------------------------------
0100007c:  	00f407b3    	ADD    x15, x8, x15

--------------------------------------
01000080:  	00078513    	ADDI   x10, x15, 0
Insns: 00000000000001111000010100010011 at PC_x=01000080

--------------------------------------
01000084:  	01c12083    	LW     x1, 0(x2)
Insns: 00000001110000010010000010000011 at PC_x=01000084

--------------------------------------
01000088:  	01812403    	LW     x8, 28(x2)
Insns: 00000001100000010010010000000011 at PC_x=01000088

--------------------------------------
0100008c:  	02010113    	ADDI   x2, x2, 24
Insns: 00000010000000010000000100010011 at PC_x=0100008c

--------------------------------------
01000090:  	00008067    	JALR   x0, 32(x1)
Insns: 00000000000000001000000001100111 at PC_x=01000090

--------------------------------------
01000064:  	00050413    	ADDI   x8, x10, 0
Insns: 00000000000001010000010000010011 at PC_x=01000064

--------------------------------------
01000068:  	00c12783    	LW     x15, 0(x2)
Insns: 00000000110000010010011110000011 at PC_x=01000068

--------------------------------------
0100006c:  	ffe78793    	ADDI   x15, x15, 12
Insns: 11111111111001111000011110010011 at PC_x=0100006c

--------------------------------------
01000070:  	00078513    	ADDI   x10, x15, 4294967294
Insns: 00000000000001111000010100010011 at PC_x=01000070

--------------------------------------
01000074:  	fbdff0ef    	JAL    x1, 1000074

--------------------------------------
01000030:  	fe010113    	ADDI   x2, x2, 4294967228
Insns: 11111110000000010000000100010011 at PC_x=01000030

--------------------------------------
01000034:  	00112e23    	SW     x1, 4294967264(x2)

--------------------------------------
01000038:  	00812c23    	SW     x8, 28(x2)

--------------------------------------
0100003c:  	00a12623    	SW     x10, 24(x2)

--------------------------------------
01000040:  	00c12703    	LW     x14, 12(x2)
Insns: 00000000110000010010011100000011 at PC_x=01000040

--------------------------------------
01000044:  	00100793    	ADDI   x15, x0, 12
Insns: 00000000000100000000011110010011 at PC_x=01000044

--------------------------------------
01000048:  	00e7c663    	BLT    x15, x14, 1000049

--------------------------------------
01000054:  	00c12783    	LW     x15, 12(x2)
Insns: 00000000110000010010011110000011 at PC_x=01000054

--------------------------------------
01000058:  	fff78793    	ADDI   x15, x15, 12
Insns: 11111111111101111000011110010011 at PC_x=01000058

--------------------------------------
0100005c:  	00078513    	ADDI   x10, x15, 4294967295
Insns: 00000000000001111000010100010011 at PC_x=0100005c

--------------------------------------
01000060:  	fd1ff0ef    	JAL    x1, 1000060

--------------------------------------
01000030:  	fe010113    	ADDI   x2, x2, 4294967249
Insns: 11111110000000010000000100010011 at PC_x=01000030

--------------------------------------
01000034:  	00112e23    	SW     x1, 4294967264(x2)

--------------------------------------
01000038:  	00812c23    	SW     x8, 28(x2)

--------------------------------------
0100003c:  	00a12623    	SW     x10, 24(x2)

--------------------------------------
01000040:  	00c12703    	LW     x14, 12(x2)
Insns: 00000000110000010010011100000011 at PC_x=01000040

--------------------------------------
01000044:  	00100793    	ADDI   x15, x0, 12
Insns: 00000000000100000000011110010011 at PC_x=01000044

--------------------------------------
01000048:  	00e7c663    	BLT    x15, x14, 1000049

--------------------------------------
01000054:  	00c12783    	LW     x15, 12(x2)
Insns: 00000000110000010010011110000011 at PC_x=01000054

--------------------------------------
01000058:  	fff78793    	ADDI   x15, x15, 12
Insns: 11111111111101111000011110010011 at PC_x=01000058

--------------------------------------
0100005c:  	00078513    	ADDI   x10, x15, 4294967295
Insns: 00000000000001111000010100010011 at PC_x=0100005c

--------------------------------------
01000060:  	fd1ff0ef    	JAL    x1, 1000060

--------------------------------------
01000030:  	fe010113    	ADDI   x2, x2, 4294967248
Insns: 11111110000000010000000100010011 at PC_x=01000030

--------------------------------------
01000034:  	00112e23    	SW     x1, 4294967264(x2)

--------------------------------------
01000038:  	00812c23    	SW     x8, 28(x2)

--------------------------------------
0100003c:  	00a12623    	SW     x10, 24(x2)

--------------------------------------
01000040:  	00c12703    	LW     x14, 12(x2)
Insns: 00000000110000010010011100000011 at PC_x=01000040

--------------------------------------
01000044:  	00100793    	ADDI   x15, x0, 12
Insns: 00000000000100000000011110010011 at PC_x=01000044

--------------------------------------
01000048:  	00e7c663    	BLT    x15, x14, 1000049

--------------------------------------
01000054:  	00c12783    	LW     x15, 12(x2)
Insns: 00000000110000010010011110000011 at PC_x=01000054

--------------------------------------
01000058:  	fff78793    	ADDI   x15, x15, 12
Insns: 11111111111101111000011110010011 at PC_x=01000058

--------------------------------------
0100005c:  	00078513    	ADDI   x10, x15, 4294967295
Insns: 00000000000001111000010100010011 at PC_x=0100005c

--------------------------------------
01000060:  	fd1ff0ef    	JAL    x1, 1000060

--------------------------------------
01000030:  	fe010113    	ADDI   x2, x2, 4294967249
Insns: 11111110000000010000000100010011 at PC_x=01000030

--------------------------------------
01000034:  	00112e23    	SW     x1, 4294967264(x2)

--------------------------------------
01000038:  	00812c23    	SW     x8, 28(x2)

--------------------------------------
0100003c:  	00a12623    	SW     x10, 24(x2)

--------------------------------------
01000040:  	00c12703    	LW     x14, 12(x2)
Insns: 00000000110000010010011100000011 at PC_x=01000040

--------------------------------------
01000044:  	00100793    	ADDI   x15, x0, 12
Insns: 00000000000100000000011110010011 at PC_x=01000044

--------------------------------------
01000048:  	00e7c663    	BLT    x15, x14, 1000049

--------------------------------------
0100004c:  	00c12783    	LW     x15, 12(x2)
Insns: 00000000110000010010011110000011 at PC_x=0100004c

--------------------------------------
01000050:  	0300006f    	JAL    x0, 100005c

--------------------------------------
01000080:  	00078513    	ADDI   x10, x15, 48
Insns: 00000000000001111000010100010011 at PC_x=01000080

--------------------------------------
01000084:  	01c12083    	LW     x1, 0(x2)
Insns: 00000001110000010010000010000011 at PC_x=01000084

--------------------------------------
01000088:  	01812403    	LW     x8, 28(x2)
Insns: 00000001100000010010010000000011 at PC_x=01000088

--------------------------------------
0100008c:  	02010113    	ADDI   x2, x2, 24
Insns: 00000010000000010000000100010011 at PC_x=0100008c

--------------------------------------
01000090:  	00008067    	JALR   x0, 32(x1)
Insns: 00000000000000001000000001100111 at PC_x=01000090

--------------------------------------
01000064:  	00050413    	ADDI   x8, x10, 0
Insns: 00000000000001010000010000010011 at PC_x=01000064

--------------------------------------
01000068:  	00c12783    	LW     x15, 0(x2)
Insns: 00000000110000010010011110000011 at PC_x=01000068

--------------------------------------
0100006c:  	ffe78793    	ADDI   x15, x15, 12
Insns: 11111111111001111000011110010011 at PC_x=0100006c

--------------------------------------
01000070:  	00078513    	ADDI   x10, x15, 4294967294
Insns: 00000000000001111000010100010011 at PC_x=01000070

--------------------------------------
01000074:  	fbdff0ef    	JAL    x1, 1000074

--------------------------------------
01000030:  	fe010113    	ADDI   x2, x2, 4294967228
Insns: 11111110000000010000000100010011 at PC_x=01000030

--------------------------------------
01000034:  	00112e23    	SW     x1, 4294967264(x2)

--------------------------------------
01000038:  	00812c23    	SW     x8, 28(x2)

--------------------------------------
0100003c:  	00a12623    	SW     x10, 24(x2)

--------------------------------------
01000040:  	00c12703    	LW     x14, 12(x2)
Insns: 00000000110000010010011100000011 at PC_x=01000040

--------------------------------------
01000044:  	00100793    	ADDI   x15, x0, 12
Insns: 00000000000100000000011110010011 at PC_x=01000044

--------------------------------------
01000048:  	00e7c663    	BLT    x15, x14, 1000049

--------------------------------------
0100004c:  	00c12783    	LW     x15, 12(x2)
Insns: 00000000110000010010011110000011 at PC_x=0100004c

--------------------------------------
01000050:  	0300006f    	JAL    x0, 100005c

--------------------------------------
01000080:  	00078513    	ADDI   x10, x15, 48
Insns: 00000000000001111000010100010011 at PC_x=01000080

--------------------------------------
01000084:  	01c12083    	LW     x1, 0(x2)
Insns: 00000001110000010010000010000011 at PC_x=01000084

--------------------------------------
01000088:  	01812403    	LW     x8, 28(x2)
Insns: 00000001100000010010010000000011 at PC_x=01000088

--------------------------------------
0100008c:  	02010113    	ADDI   x2, x2, 24
Insns: 00000010000000010000000100010011 at PC_x=0100008c

--------------------------------------
01000090:  	00008067    	JALR   x0, 32(x1)
Insns: 00000000000000001000000001100111 at PC_x=01000090

--------------------------------------
01000078:  	00050793    	ADDI   x15, x10, 0
Insns: 00000000000001010000011110010011 at PC_x=01000078

--------------------------------------
0100007c:  	00f407b3    	ADD    x15, x8, x15

--------------------------------------
01000080:  	00078513    	ADDI   x10, x15, 0
Insns: 00000000000001111000010100010011 at PC_x=01000080

--------------------------------------
01000084:  	01c12083    	LW     x1, 0(x2)
Insns: 00000001110000010010000010000011 at PC_x=01000084

--------------------------------------
01000088:  	01812403    	LW     x8, 28(x2)
Insns: 00000001100000010010010000000011 at PC_x=01000088

--------------------------------------
0100008c:  	02010113    	ADDI   x2, x2, 24
Insns: 00000010000000010000000100010011 at PC_x=0100008c

--------------------------------------
01000090:  	00008067    	JALR   x0, 32(x1)
Insns: 00000000000000001000000001100111 at PC_x=01000090

--------------------------------------
01000064:  	00050413    	ADDI   x8, x10, 0
Insns: 00000000000001010000010000010011 at PC_x=01000064

--------------------------------------
01000068:  	00c12783    	LW     x15, 0(x2)
Insns: 00000000110000010010011110000011 at PC_x=01000068

--------------------------------------
0100006c:  	ffe78793    	ADDI   x15, x15, 12
Insns: 11111111111001111000011110010011 at PC_x=0100006c

--------------------------------------
01000070:  	00078513    	ADDI   x10, x15, 4294967294
Insns: 00000000000001111000010100010011 at PC_x=01000070

--------------------------------------
01000074:  	fbdff0ef    	JAL    x1, 1000074

--------------------------------------
01000030:  	fe010113    	ADDI   x2, x2, 4294967228
Insns: 11111110000000010000000100010011 at PC_x=01000030

--------------------------------------
01000034:  	00112e23    	SW     x1, 4294967264(x2)

--------------------------------------
01000038:  	00812c23    	SW     x8, 28(x2)

--------------------------------------
0100003c:  	00a12623    	SW     x10, 24(x2)

--------------------------------------
01000040:  	00c12703    	LW     x14, 12(x2)
Insns: 00000000110000010010011100000011 at PC_x=01000040

--------------------------------------
01000044:  	00100793    	ADDI   x15, x0, 12
Insns: 00000000000100000000011110010011 at PC_x=01000044

--------------------------------------
01000048:  	00e7c663    	BLT    x15, x14, 1000049

--------------------------------------
0100004c:  	00c12783    	LW     x15, 12(x2)
Insns: 00000000110000010010011110000011 at PC_x=0100004c

--------------------------------------
01000050:  	0300006f    	JAL    x0, 100005c

--------------------------------------
01000080:  	00078513    	ADDI   x10, x15, 48
Insns: 00000000000001111000010100010011 at PC_x=01000080

--------------------------------------
01000084:  	01c12083    	LW     x1, 0(x2)
Insns: 00000001110000010010000010000011 at PC_x=01000084

--------------------------------------
01000088:  	01812403    	LW     x8, 28(x2)
Insns: 00000001100000010010010000000011 at PC_x=01000088

--------------------------------------
0100008c:  	02010113    	ADDI   x2, x2, 24
Insns: 00000010000000010000000100010011 at PC_x=0100008c

--------------------------------------
01000090:  	00008067    	JALR   x0, 32(x1)
Insns: 00000000000000001000000001100111 at PC_x=01000090

--------------------------------------
01000078:  	00050793    	ADDI   x15, x10, 0
Insns: 00000000000001010000011110010011 at PC_x=01000078

--------------------------------------
0100007c:  	00f407b3    	ADD    x15, x8, x15

--------------------------------------
01000080:  	00078513    	ADDI   x10, x15, 0
Insns: 00000000000001111000010100010011 at PC_x=01000080

--------------------------------------
01000084:  	01c12083    	LW     x1, 0(x2)
Insns: 00000001110000010010000010000011 at PC_x=01000084

--------------------------------------
01000088:  	01812403    	LW     x8, 28(x2)
Insns: 00000001100000010010010000000011 at PC_x=01000088

--------------------------------------
0100008c:  	02010113    	ADDI   x2, x2, 24
Insns: 00000010000000010000000100010011 at PC_x=0100008c

--------------------------------------
01000090:  	00008067    	JALR   x0, 32(x1)
Insns: 00000000000000001000000001100111 at PC_x=01000090

--------------------------------------
01000064:  	00050413    	ADDI   x8, x10, 0
Insns: 00000000000001010000010000010011 at PC_x=01000064

--------------------------------------
01000068:  	00c12783    	LW     x15, 0(x2)
Insns: 00000000110000010010011110000011 at PC_x=01000068

--------------------------------------
0100006c:  	ffe78793    	ADDI   x15, x15, 12
Insns: 11111111111001111000011110010011 at PC_x=0100006c

--------------------------------------
01000070:  	00078513    	ADDI   x10, x15, 4294967294
Insns: 00000000000001111000010100010011 at PC_x=01000070

--------------------------------------
01000074:  	fbdff0ef    	JAL    x1, 1000074

--------------------------------------
01000030:  	fe010113    	ADDI   x2, x2, 4294967228
Insns: 11111110000000010000000100010011 at PC_x=01000030

--------------------------------------
01000034:  	00112e23    	SW     x1, 4294967264(x2)

--------------------------------------
01000038:  	00812c23    	SW     x8, 28(x2)

--------------------------------------
0100003c:  	00a12623    	SW     x10, 24(x2)

--------------------------------------
01000040:  	00c12703    	LW     x14, 12(x2)
Insns: 00000000110000010010011100000011 at PC_x=01000040

--------------------------------------
01000044:  	00100793    	ADDI   x15, x0, 12
Insns: 00000000000100000000011110010011 at PC_x=01000044

--------------------------------------
01000048:  	00e7c663    	BLT    x15, x14, 1000049

--------------------------------------
01000054:  	00c12783    	LW     x15, 12(x2)
Insns: 00000000110000010010011110000011 at PC_x=01000054

--------------------------------------
01000058:  	fff78793    	ADDI   x15, x15, 12
Insns: 11111111111101111000011110010011 at PC_x=01000058

--------------------------------------
0100005c:  	00078513    	ADDI   x10, x15, 4294967295
Insns: 00000000000001111000010100010011 at PC_x=0100005c

--------------------------------------
01000060:  	fd1ff0ef    	JAL    x1, 1000060

--------------------------------------
01000030:  	fe010113    	ADDI   x2, x2, 4294967249
Insns: 11111110000000010000000100010011 at PC_x=01000030

--------------------------------------
01000034:  	00112e23    	SW     x1, 4294967264(x2)

--------------------------------------
01000038:  	00812c23    	SW     x8, 28(x2)

--------------------------------------
0100003c:  	00a12623    	SW     x10, 24(x2)

--------------------------------------
01000040:  	00c12703    	LW     x14, 12(x2)
Insns: 00000000110000010010011100000011 at PC_x=01000040

--------------------------------------
01000044:  	00100793    	ADDI   x15, x0, 12
Insns: 00000000000100000000011110010011 at PC_x=01000044

--------------------------------------
01000048:  	00e7c663    	BLT    x15, x14, 1000049

--------------------------------------
0100004c:  	00c12783    	LW     x15, 12(x2)
Insns: 00000000110000010010011110000011 at PC_x=0100004c

--------------------------------------
01000050:  	0300006f    	JAL    x0, 100005c

--------------------------------------
01000080:  	00078513    	ADDI   x10, x15, 48
Insns: 00000000000001111000010100010011 at PC_x=01000080

--------------------------------------
01000084:  	01c12083    	LW     x1, 0(x2)
Insns: 00000001110000010010000010000011 at PC_x=01000084

--------------------------------------
01000088:  	01812403    	LW     x8, 28(x2)
Insns: 00000001100000010010010000000011 at PC_x=01000088

--------------------------------------
0100008c:  	02010113    	ADDI   x2, x2, 24
Insns: 00000010000000010000000100010011 at PC_x=0100008c

--------------------------------------
01000090:  	00008067    	JALR   x0, 32(x1)
Insns: 00000000000000001000000001100111 at PC_x=01000090

--------------------------------------
01000064:  	00050413    	ADDI   x8, x10, 0
Insns: 00000000000001010000010000010011 at PC_x=01000064

--------------------------------------
01000068:  	00c12783    	LW     x15, 0(x2)
Insns: 00000000110000010010011110000011 at PC_x=01000068

--------------------------------------
0100006c:  	ffe78793    	ADDI   x15, x15, 12
Insns: 11111111111001111000011110010011 at PC_x=0100006c

--------------------------------------
01000070:  	00078513    	ADDI   x10, x15, 4294967294
Insns: 00000000000001111000010100010011 at PC_x=01000070

--------------------------------------
01000074:  	fbdff0ef    	JAL    x1, 1000074

--------------------------------------
01000030:  	fe010113    	ADDI   x2, x2, 4294967228
Insns: 11111110000000010000000100010011 at PC_x=01000030

--------------------------------------
01000034:  	00112e23    	SW     x1, 4294967264(x2)

--------------------------------------
01000038:  	00812c23    	SW     x8, 28(x2)

--------------------------------------
0100003c:  	00a12623    	SW     x10, 24(x2)

--------------------------------------
01000040:  	00c12703    	LW     x14, 12(x2)
Insns: 00000000110000010010011100000011 at PC_x=01000040

--------------------------------------
01000044:  	00100793    	ADDI   x15, x0, 12
Insns: 00000000000100000000011110010011 at PC_x=01000044

--------------------------------------
01000048:  	00e7c663    	BLT    x15, x14, 1000049

--------------------------------------
0100004c:  	00c12783    	LW     x15, 12(x2)
Insns: 00000000110000010010011110000011 at PC_x=0100004c

--------------------------------------
01000050:  	0300006f    	JAL    x0, 100005c

--------------------------------------
01000080:  	00078513    	ADDI   x10, x15, 48
Insns: 00000000000001111000010100010011 at PC_x=01000080

--------------------------------------
01000084:  	01c12083    	LW     x1, 0(x2)
Insns: 00000001110000010010000010000011 at PC_x=01000084

--------------------------------------
01000088:  	01812403    	LW     x8, 28(x2)
Insns: 00000001100000010010010000000011 at PC_x=01000088

--------------------------------------
0100008c:  	02010113    	ADDI   x2, x2, 24
Insns: 00000010000000010000000100010011 at PC_x=0100008c

--------------------------------------
01000090:  	00008067    	JALR   x0, 32(x1)
Insns: 00000000000000001000000001100111 at PC_x=01000090

--------------------------------------
01000078:  	00050793    	ADDI   x15, x10, 0
Insns: 00000000000001010000011110010011 at PC_x=01000078

--------------------------------------
0100007c:  	00f407b3    	ADD    x15, x8, x15

--------------------------------------
01000080:  	00078513    	ADDI   x10, x15, 0
Insns: 00000000000001111000010100010011 at PC_x=01000080

--------------------------------------
01000084:  	01c12083    	LW     x1, 0(x2)
Insns: 00000001110000010010000010000011 at PC_x=01000084

--------------------------------------
01000088:  	01812403    	LW     x8, 28(x2)
Insns: 00000001100000010010010000000011 at PC_x=01000088

--------------------------------------
0100008c:  	02010113    	ADDI   x2, x2, 24
Insns: 00000010000000010000000100010011 at PC_x=0100008c

--------------------------------------
01000090:  	00008067    	JALR   x0, 32(x1)
Insns: 00000000000000001000000001100111 at PC_x=01000090

--------------------------------------
01000078:  	00050793    	ADDI   x15, x10, 0
Insns: 00000000000001010000011110010011 at PC_x=01000078

--------------------------------------
0100007c:  	00f407b3    	ADD    x15, x8, x15

--------------------------------------
01000080:  	00078513    	ADDI   x10, x15, 15
Insns: 00000000000001111000010100010011 at PC_x=01000080

--------------------------------------
01000084:  	01c12083    	LW     x1, 0(x2)
Insns: 00000001110000010010000010000011 at PC_x=01000084

--------------------------------------
01000088:  	01812403    	LW     x8, 28(x2)
Insns: 00000001100000010010010000000011 at PC_x=01000088

--------------------------------------
0100008c:  	02010113    	ADDI   x2, x2, 24
Insns: 00000010000000010000000100010011 at PC_x=0100008c

--------------------------------------
01000090:  	00008067    	JALR   x0, 32(x1)
Insns: 00000000000000001000000001100111 at PC_x=01000090

--------------------------------------
01000078:  	00050793    	ADDI   x15, x10, 0
Insns: 00000000000001010000011110010011 at PC_x=01000078

--------------------------------------
0100007c:  	00f407b3    	ADD    x15, x8, x15

--------------------------------------
01000080:  	00078513    	ADDI   x10, x15, 0
Insns: 00000000000001111000010100010011 at PC_x=01000080

--------------------------------------
01000084:  	01c12083    	LW     x1, 0(x2)
Insns: 00000001110000010010000010000011 at PC_x=01000084

--------------------------------------
01000088:  	01812403    	LW     x8, 28(x2)
Insns: 00000001100000010010010000000011 at PC_x=01000088

--------------------------------------
0100008c:  	02010113    	ADDI   x2, x2, 24
Insns: 00000010000000010000000100010011 at PC_x=0100008c

--------------------------------------
01000090:  	00008067    	JALR   x0, 32(x1)
Insns: 00000000000000001000000001100111 at PC_x=01000090

--------------------------------------
01000064:  	00050413    	ADDI   x8, x10, 0
Insns: 00000000000001010000010000010011 at PC_x=01000064

--------------------------------------
01000068:  	00c12783    	LW     x15, 0(x2)
Insns: 00000000110000010010011110000011 at PC_x=01000068

--------------------------------------
0100006c:  	ffe78793    	ADDI   x15, x15, 12
Insns: 11111111111001111000011110010011 at PC_x=0100006c

--------------------------------------
01000070:  	00078513    	ADDI   x10, x15, 4294967294
Insns: 00000000000001111000010100010011 at PC_x=01000070

--------------------------------------
01000074:  	fbdff0ef    	JAL    x1, 1000074

--------------------------------------
01000030:  	fe010113    	ADDI   x2, x2, 4294967228
Insns: 11111110000000010000000100010011 at PC_x=01000030

--------------------------------------
01000034:  	00112e23    	SW     x1, 4294967264(x2)

--------------------------------------
01000038:  	00812c23    	SW     x8, 28(x2)

--------------------------------------
0100003c:  	00a12623    	SW     x10, 24(x2)

--------------------------------------
01000040:  	00c12703    	LW     x14, 12(x2)
Insns: 00000000110000010010011100000011 at PC_x=01000040

--------------------------------------
01000044:  	00100793    	ADDI   x15, x0, 12
Insns: 00000000000100000000011110010011 at PC_x=01000044

--------------------------------------
01000048:  	00e7c663    	BLT    x15, x14, 1000049

--------------------------------------
01000054:  	00c12783    	LW     x15, 12(x2)
Insns: 00000000110000010010011110000011 at PC_x=01000054

--------------------------------------
01000058:  	fff78793    	ADDI   x15, x15, 12
Insns: 11111111111101111000011110010011 at PC_x=01000058

--------------------------------------
0100005c:  	00078513    	ADDI   x10, x15, 4294967295
Insns: 00000000000001111000010100010011 at PC_x=0100005c

--------------------------------------
01000060:  	fd1ff0ef    	JAL    x1, 1000060

--------------------------------------
01000030:  	fe010113    	ADDI   x2, x2, 4294967249
Insns: 11111110000000010000000100010011 at PC_x=01000030

--------------------------------------
01000034:  	00112e23    	SW     x1, 4294967264(x2)

--------------------------------------
01000038:  	00812c23    	SW     x8, 28(x2)

--------------------------------------
0100003c:  	00a12623    	SW     x10, 24(x2)

--------------------------------------
01000040:  	00c12703    	LW     x14, 12(x2)
Insns: 00000000110000010010011100000011 at PC_x=01000040

--------------------------------------
01000044:  	00100793    	ADDI   x15, x0, 12
Insns: 00000000000100000000011110010011 at PC_x=01000044

--------------------------------------
01000048:  	00e7c663    	BLT    x15, x14, 1000049

--------------------------------------
01000054:  	00c12783    	LW     x15, 12(x2)
Insns: 00000000110000010010011110000011 at PC_x=01000054

--------------------------------------
01000058:  	fff78793    	ADDI   x15, x15, 12
Insns: 11111111111101111000011110010011 at PC_x=01000058

--------------------------------------
0100005c:  	00078513    	ADDI   x10, x15, 4294967295
Insns: 00000000000001111000010100010011 at PC_x=0100005c

--------------------------------------
01000060:  	fd1ff0ef    	JAL    x1, 1000060

--------------------------------------
01000030:  	fe010113    	ADDI   x2, x2, 4294967248
Insns: 11111110000000010000000100010011 at PC_x=01000030

--------------------------------------
01000034:  	00112e23    	SW     x1, 4294967264(x2)

--------------------------------------
01000038:  	00812c23    	SW     x8, 28(x2)

--------------------------------------
0100003c:  	00a12623    	SW     x10, 24(x2)

--------------------------------------
01000040:  	00c12703    	LW     x14, 12(x2)
Insns: 00000000110000010010011100000011 at PC_x=01000040

--------------------------------------
01000044:  	00100793    	ADDI   x15, x0, 12
Insns: 00000000000100000000011110010011 at PC_x=01000044

--------------------------------------
01000048:  	00e7c663    	BLT    x15, x14, 1000049

--------------------------------------
01000054:  	00c12783    	LW     x15, 12(x2)
Insns: 00000000110000010010011110000011 at PC_x=01000054

--------------------------------------
01000058:  	fff78793    	ADDI   x15, x15, 12
Insns: 11111111111101111000011110010011 at PC_x=01000058

--------------------------------------
0100005c:  	00078513    	ADDI   x10, x15, 4294967295
Insns: 00000000000001111000010100010011 at PC_x=0100005c

--------------------------------------
01000060:  	fd1ff0ef    	JAL    x1, 1000060

--------------------------------------
01000030:  	fe010113    	ADDI   x2, x2, 4294967249
Insns: 11111110000000010000000100010011 at PC_x=01000030

--------------------------------------
01000034:  	00112e23    	SW     x1, 4294967264(x2)

--------------------------------------
01000038:  	00812c23    	SW     x8, 28(x2)

--------------------------------------
0100003c:  	00a12623    	SW     x10, 24(x2)

--------------------------------------
01000040:  	00c12703    	LW     x14, 12(x2)
Insns: 00000000110000010010011100000011 at PC_x=01000040

--------------------------------------
01000044:  	00100793    	ADDI   x15, x0, 12
Insns: 00000000000100000000011110010011 at PC_x=01000044

--------------------------------------
01000048:  	00e7c663    	BLT    x15, x14, 1000049

--------------------------------------
01000054:  	00c12783    	LW     x15, 12(x2)
Insns: 00000000110000010010011110000011 at PC_x=01000054

--------------------------------------
01000058:  	fff78793    	ADDI   x15, x15, 12
Insns: 11111111111101111000011110010011 at PC_x=01000058

--------------------------------------
0100005c:  	00078513    	ADDI   x10, x15, 4294967295
Insns: 00000000000001111000010100010011 at PC_x=0100005c

--------------------------------------
01000060:  	fd1ff0ef    	JAL    x1, 1000060

--------------------------------------
01000030:  	fe010113    	ADDI   x2, x2, 4294967248
Insns: 11111110000000010000000100010011 at PC_x=01000030

--------------------------------------
01000034:  	00112e23    	SW     x1, 4294967264(x2)

--------------------------------------
01000038:  	00812c23    	SW     x8, 28(x2)

--------------------------------------
0100003c:  	00a12623    	SW     x10, 24(x2)

--------------------------------------
01000040:  	00c12703    	LW     x14, 12(x2)
Insns: 00000000110000010010011100000011 at PC_x=01000040

--------------------------------------
01000044:  	00100793    	ADDI   x15, x0, 12
Insns: 00000000000100000000011110010011 at PC_x=01000044

--------------------------------------
01000048:  	00e7c663    	BLT    x15, x14, 1000049

--------------------------------------
0100004c:  	00c12783    	LW     x15, 12(x2)
Insns: 00000000110000010010011110000011 at PC_x=0100004c

--------------------------------------
01000050:  	0300006f    	JAL    x0, 100005c

--------------------------------------
01000080:  	00078513    	ADDI   x10, x15, 48
Insns: 00000000000001111000010100010011 at PC_x=01000080

--------------------------------------
01000084:  	01c12083    	LW     x1, 0(x2)
Insns: 00000001110000010010000010000011 at PC_x=01000084

--------------------------------------
01000088:  	01812403    	LW     x8, 28(x2)
Insns: 00000001100000010010010000000011 at PC_x=01000088

--------------------------------------
0100008c:  	02010113    	ADDI   x2, x2, 24
Insns: 00000010000000010000000100010011 at PC_x=0100008c

--------------------------------------
01000090:  	00008067    	JALR   x0, 32(x1)
Insns: 00000000000000001000000001100111 at PC_x=01000090

--------------------------------------
01000064:  	00050413    	ADDI   x8, x10, 0
Insns: 00000000000001010000010000010011 at PC_x=01000064

--------------------------------------
01000068:  	00c12783    	LW     x15, 0(x2)
Insns: 00000000110000010010011110000011 at PC_x=01000068

--------------------------------------
0100006c:  	ffe78793    	ADDI   x15, x15, 12
Insns: 11111111111001111000011110010011 at PC_x=0100006c

--------------------------------------
01000070:  	00078513    	ADDI   x10, x15, 4294967294
Insns: 00000000000001111000010100010011 at PC_x=01000070

--------------------------------------
01000074:  	fbdff0ef    	JAL    x1, 1000074

--------------------------------------
01000030:  	fe010113    	ADDI   x2, x2, 4294967229
Insns: 11111110000000010000000100010011 at PC_x=01000030

--------------------------------------
01000034:  	00112e23    	SW     x1, 4294967264(x2)

--------------------------------------
01000038:  	00812c23    	SW     x8, 28(x2)

--------------------------------------
0100003c:  	00a12623    	SW     x10, 24(x2)

--------------------------------------
01000040:  	00c12703    	LW     x14, 12(x2)
Insns: 00000000110000010010011100000011 at PC_x=01000040

--------------------------------------
01000044:  	00100793    	ADDI   x15, x0, 12
Insns: 00000000000100000000011110010011 at PC_x=01000044

--------------------------------------
01000048:  	00e7c663    	BLT    x15, x14, 1000049

--------------------------------------
0100004c:  	00c12783    	LW     x15, 12(x2)
Insns: 00000000110000010010011110000011 at PC_x=0100004c

--------------------------------------
01000050:  	0300006f    	JAL    x0, 100005c

--------------------------------------
01000080:  	00078513    	ADDI   x10, x15, 48
Insns: 00000000000001111000010100010011 at PC_x=01000080

--------------------------------------
01000084:  	01c12083    	LW     x1, 0(x2)
Insns: 00000001110000010010000010000011 at PC_x=01000084

--------------------------------------
01000088:  	01812403    	LW     x8, 28(x2)
Insns: 00000001100000010010010000000011 at PC_x=01000088

--------------------------------------
0100008c:  	02010113    	ADDI   x2, x2, 24
Insns: 00000010000000010000000100010011 at PC_x=0100008c

--------------------------------------
01000090:  	00008067    	JALR   x0, 32(x1)
Insns: 00000000000000001000000001100111 at PC_x=01000090

--------------------------------------
01000078:  	00050793    	ADDI   x15, x10, 0
Insns: 00000000000001010000011110010011 at PC_x=01000078

--------------------------------------
0100007c:  	00f407b3    	ADD    x15, x8, x15

--------------------------------------
01000080:  	00078513    	ADDI   x10, x15, 15
Insns: 00000000000001111000010100010011 at PC_x=01000080

--------------------------------------
01000084:  	01c12083    	LW     x1, 0(x2)
Insns: 00000001110000010010000010000011 at PC_x=01000084

--------------------------------------
01000088:  	01812403    	LW     x8, 28(x2)
Insns: 00000001100000010010010000000011 at PC_x=01000088

--------------------------------------
0100008c:  	02010113    	ADDI   x2, x2, 24
Insns: 00000010000000010000000100010011 at PC_x=0100008c

--------------------------------------
01000090:  	00008067    	JALR   x0, 32(x1)
Insns: 00000000000000001000000001100111 at PC_x=01000090

--------------------------------------
01000064:  	00050413    	ADDI   x8, x10, 0
Insns: 00000000000001010000010000010011 at PC_x=01000064

--------------------------------------
01000068:  	00c12783    	LW     x15, 0(x2)
Insns: 00000000110000010010011110000011 at PC_x=01000068

--------------------------------------
0100006c:  	ffe78793    	ADDI   x15, x15, 12
Insns: 11111111111001111000011110010011 at PC_x=0100006c

--------------------------------------
01000070:  	00078513    	ADDI   x10, x15, 4294967294
Insns: 00000000000001111000010100010011 at PC_x=01000070

--------------------------------------
01000074:  	fbdff0ef    	JAL    x1, 1000074

--------------------------------------
01000030:  	fe010113    	ADDI   x2, x2, 4294967229
Insns: 11111110000000010000000100010011 at PC_x=01000030

--------------------------------------
01000034:  	00112e23    	SW     x1, 4294967264(x2)

--------------------------------------
01000038:  	00812c23    	SW     x8, 28(x2)

--------------------------------------
0100003c:  	00a12623    	SW     x10, 24(x2)

--------------------------------------
01000040:  	00c12703    	LW     x14, 12(x2)
Insns: 00000000110000010010011100000011 at PC_x=01000040

--------------------------------------
01000044:  	00100793    	ADDI   x15, x0, 12
Insns: 00000000000100000000011110010011 at PC_x=01000044

--------------------------------------
01000048:  	00e7c663    	BLT    x15, x14, 1000049

--------------------------------------
0100004c:  	00c12783    	LW     x15, 12(x2)
Insns: 00000000110000010010011110000011 at PC_x=0100004c

--------------------------------------
01000050:  	0300006f    	JAL    x0, 100005c

--------------------------------------
01000080:  	00078513    	ADDI   x10, x15, 48
Insns: 00000000000001111000010100010011 at PC_x=01000080

--------------------------------------
01000084:  	01c12083    	LW     x1, 0(x2)
Insns: 00000001110000010010000010000011 at PC_x=01000084

--------------------------------------
01000088:  	01812403    	LW     x8, 28(x2)
Insns: 00000001100000010010010000000011 at PC_x=01000088

--------------------------------------
0100008c:  	02010113    	ADDI   x2, x2, 24
Insns: 00000010000000010000000100010011 at PC_x=0100008c

--------------------------------------
01000090:  	00008067    	JALR   x0, 32(x1)
Insns: 00000000000000001000000001100111 at PC_x=01000090

--------------------------------------
01000078:  	00050793    	ADDI   x15, x10, 0
Insns: 00000000000001010000011110010011 at PC_x=01000078

--------------------------------------
0100007c:  	00f407b3    	ADD    x15, x8, x15

--------------------------------------
01000080:  	00078513    	ADDI   x10, x15, 15
Insns: 00000000000001111000010100010011 at PC_x=01000080

--------------------------------------
01000084:  	01c12083    	LW     x1, 0(x2)
Insns: 00000001110000010010000010000011 at PC_x=01000084

--------------------------------------
01000088:  	01812403    	LW     x8, 28(x2)
Insns: 00000001100000010010010000000011 at PC_x=01000088

--------------------------------------
0100008c:  	02010113    	ADDI   x2, x2, 24
Insns: 00000010000000010000000100010011 at PC_x=0100008c

--------------------------------------
01000090:  	00008067    	JALR   x0, 32(x1)
Insns: 00000000000000001000000001100111 at PC_x=01000090

--------------------------------------
01000064:  	00050413    	ADDI   x8, x10, 0
Insns: 00000000000001010000010000010011 at PC_x=01000064

--------------------------------------
01000068:  	00c12783    	LW     x15, 0(x2)
Insns: 00000000110000010010011110000011 at PC_x=01000068

--------------------------------------
0100006c:  	ffe78793    	ADDI   x15, x15, 12
Insns: 11111111111001111000011110010011 at PC_x=0100006c

--------------------------------------
01000070:  	00078513    	ADDI   x10, x15, 4294967294
Insns: 00000000000001111000010100010011 at PC_x=01000070

--------------------------------------
01000074:  	fbdff0ef    	JAL    x1, 1000074

--------------------------------------
01000030:  	fe010113    	ADDI   x2, x2, 4294967229
Insns: 11111110000000010000000100010011 at PC_x=01000030

--------------------------------------
01000034:  	00112e23    	SW     x1, 4294967264(x2)

--------------------------------------
01000038:  	00812c23    	SW     x8, 28(x2)

--------------------------------------
0100003c:  	00a12623    	SW     x10, 24(x2)

--------------------------------------
01000040:  	00c12703    	LW     x14, 12(x2)
Insns: 00000000110000010010011100000011 at PC_x=01000040

--------------------------------------
01000044:  	00100793    	ADDI   x15, x0, 12
Insns: 00000000000100000000011110010011 at PC_x=01000044

--------------------------------------
01000048:  	00e7c663    	BLT    x15, x14, 1000049

--------------------------------------
01000054:  	00c12783    	LW     x15, 12(x2)
Insns: 00000000110000010010011110000011 at PC_x=01000054

--------------------------------------
01000058:  	fff78793    	ADDI   x15, x15, 12
Insns: 11111111111101111000011110010011 at PC_x=01000058

--------------------------------------
0100005c:  	00078513    	ADDI   x10, x15, 4294967295
Insns: 00000000000001111000010100010011 at PC_x=0100005c

--------------------------------------
01000060:  	fd1ff0ef    	JAL    x1, 1000060

--------------------------------------
01000030:  	fe010113    	ADDI   x2, x2, 4294967248
Insns: 11111110000000010000000100010011 at PC_x=01000030

--------------------------------------
01000034:  	00112e23    	SW     x1, 4294967264(x2)

--------------------------------------
01000038:  	00812c23    	SW     x8, 28(x2)

--------------------------------------
0100003c:  	00a12623    	SW     x10, 24(x2)

--------------------------------------
01000040:  	00c12703    	LW     x14, 12(x2)
Insns: 00000000110000010010011100000011 at PC_x=01000040

--------------------------------------
01000044:  	00100793    	ADDI   x15, x0, 12
Insns: 00000000000100000000011110010011 at PC_x=01000044

--------------------------------------
01000048:  	00e7c663    	BLT    x15, x14, 1000049

--------------------------------------
0100004c:  	00c12783    	LW     x15, 12(x2)
Insns: 00000000110000010010011110000011 at PC_x=0100004c

--------------------------------------
01000050:  	0300006f    	JAL    x0, 100005c

--------------------------------------
01000080:  	00078513    	ADDI   x10, x15, 48
Insns: 00000000000001111000010100010011 at PC_x=01000080

--------------------------------------
01000084:  	01c12083    	LW     x1, 0(x2)
Insns: 00000001110000010010000010000011 at PC_x=01000084

--------------------------------------
01000088:  	01812403    	LW     x8, 28(x2)
Insns: 00000001100000010010010000000011 at PC_x=01000088

--------------------------------------
0100008c:  	02010113    	ADDI   x2, x2, 24
Insns: 00000010000000010000000100010011 at PC_x=0100008c

--------------------------------------
01000090:  	00008067    	JALR   x0, 32(x1)
Insns: 00000000000000001000000001100111 at PC_x=01000090

--------------------------------------
01000064:  	00050413    	ADDI   x8, x10, 0
Insns: 00000000000001010000010000010011 at PC_x=01000064

--------------------------------------
01000068:  	00c12783    	LW     x15, 0(x2)
Insns: 00000000110000010010011110000011 at PC_x=01000068

--------------------------------------
0100006c:  	ffe78793    	ADDI   x15, x15, 12
Insns: 11111111111001111000011110010011 at PC_x=0100006c

--------------------------------------
01000070:  	00078513    	ADDI   x10, x15, 4294967294
Insns: 00000000000001111000010100010011 at PC_x=01000070

--------------------------------------
01000074:  	fbdff0ef    	JAL    x1, 1000074

--------------------------------------
01000030:  	fe010113    	ADDI   x2, x2, 4294967229
Insns: 11111110000000010000000100010011 at PC_x=01000030

--------------------------------------
01000034:  	00112e23    	SW     x1, 4294967264(x2)

--------------------------------------
01000038:  	00812c23    	SW     x8, 28(x2)

--------------------------------------
0100003c:  	00a12623    	SW     x10, 24(x2)

--------------------------------------
01000040:  	00c12703    	LW     x14, 12(x2)
Insns: 00000000110000010010011100000011 at PC_x=01000040

--------------------------------------
01000044:  	00100793    	ADDI   x15, x0, 12
Insns: 00000000000100000000011110010011 at PC_x=01000044

--------------------------------------
01000048:  	00e7c663    	BLT    x15, x14, 1000049

--------------------------------------
0100004c:  	00c12783    	LW     x15, 12(x2)
Insns: 00000000110000010010011110000011 at PC_x=0100004c

--------------------------------------
01000050:  	0300006f    	JAL    x0, 100005c

--------------------------------------
01000080:  	00078513    	ADDI   x10, x15, 48
Insns: 00000000000001111000010100010011 at PC_x=01000080

--------------------------------------
01000084:  	01c12083    	LW     x1, 0(x2)
Insns: 00000001110000010010000010000011 at PC_x=01000084

--------------------------------------
01000088:  	01812403    	LW     x8, 28(x2)
Insns: 00000001100000010010010000000011 at PC_x=01000088

--------------------------------------
0100008c:  	02010113    	ADDI   x2, x2, 24
Insns: 00000010000000010000000100010011 at PC_x=0100008c

--------------------------------------
01000090:  	00008067    	JALR   x0, 32(x1)
Insns: 00000000000000001000000001100111 at PC_x=01000090

--------------------------------------
01000078:  	00050793    	ADDI   x15, x10, 0
Insns: 00000000000001010000011110010011 at PC_x=01000078

--------------------------------------
0100007c:  	00f407b3    	ADD    x15, x8, x15

--------------------------------------
01000080:  	00078513    	ADDI   x10, x15, 15
Insns: 00000000000001111000010100010011 at PC_x=01000080

--------------------------------------
01000084:  	01c12083    	LW     x1, 0(x2)
Insns: 00000001110000010010000010000011 at PC_x=01000084

--------------------------------------
01000088:  	01812403    	LW     x8, 28(x2)
Insns: 00000001100000010010010000000011 at PC_x=01000088

--------------------------------------
0100008c:  	02010113    	ADDI   x2, x2, 24
Insns: 00000010000000010000000100010011 at PC_x=0100008c

--------------------------------------
01000090:  	00008067    	JALR   x0, 32(x1)
Insns: 00000000000000001000000001100111 at PC_x=01000090

--------------------------------------
01000078:  	00050793    	ADDI   x15, x10, 0
Insns: 00000000000001010000011110010011 at PC_x=01000078

--------------------------------------
0100007c:  	00f407b3    	ADD    x15, x8, x15

--------------------------------------
01000080:  	00078513    	ADDI   x10, x15, 0
Insns: 00000000000001111000010100010011 at PC_x=01000080

--------------------------------------
01000084:  	01c12083    	LW     x1, 0(x2)
Insns: 00000001110000010010000010000011 at PC_x=01000084

--------------------------------------
01000088:  	01812403    	LW     x8, 28(x2)
Insns: 00000001100000010010010000000011 at PC_x=01000088

--------------------------------------
0100008c:  	02010113    	ADDI   x2, x2, 24
Insns: 00000010000000010000000100010011 at PC_x=0100008c

--------------------------------------
01000090:  	00008067    	JALR   x0, 32(x1)
Insns: 00000000000000001000000001100111 at PC_x=01000090

--------------------------------------
01000064:  	00050413    	ADDI   x8, x10, 0
Insns: 00000000000001010000010000010011 at PC_x=01000064

--------------------------------------
01000068:  	00c12783    	LW     x15, 0(x2)
Insns: 00000000110000010010011110000011 at PC_x=01000068

--------------------------------------
0100006c:  	ffe78793    	ADDI   x15, x15, 12
Insns: 11111111111001111000011110010011 at PC_x=0100006c

--------------------------------------
01000070:  	00078513    	ADDI   x10, x15, 4294967294
Insns: 00000000000001111000010100010011 at PC_x=01000070

--------------------------------------
01000074:  	fbdff0ef    	JAL    x1, 1000074

--------------------------------------
01000030:  	fe010113    	ADDI   x2, x2, 4294967228
Insns: 11111110000000010000000100010011 at PC_x=01000030

--------------------------------------
01000034:  	00112e23    	SW     x1, 4294967264(x2)

--------------------------------------
01000038:  	00812c23    	SW     x8, 28(x2)

--------------------------------------
0100003c:  	00a12623    	SW     x10, 24(x2)

--------------------------------------
01000040:  	00c12703    	LW     x14, 12(x2)
Insns: 00000000110000010010011100000011 at PC_x=01000040

--------------------------------------
01000044:  	00100793    	ADDI   x15, x0, 12
Insns: 00000000000100000000011110010011 at PC_x=01000044

--------------------------------------
01000048:  	00e7c663    	BLT    x15, x14, 1000049

--------------------------------------
01000054:  	00c12783    	LW     x15, 12(x2)
Insns: 00000000110000010010011110000011 at PC_x=01000054

--------------------------------------
01000058:  	fff78793    	ADDI   x15, x15, 12
Insns: 11111111111101111000011110010011 at PC_x=01000058

--------------------------------------
0100005c:  	00078513    	ADDI   x10, x15, 4294967295
Insns: 00000000000001111000010100010011 at PC_x=0100005c

--------------------------------------
01000060:  	fd1ff0ef    	JAL    x1, 1000060

--------------------------------------
01000030:  	fe010113    	ADDI   x2, x2, 4294967249
Insns: 11111110000000010000000100010011 at PC_x=01000030

--------------------------------------
01000034:  	00112e23    	SW     x1, 4294967264(x2)

--------------------------------------
01000038:  	00812c23    	SW     x8, 28(x2)

--------------------------------------
0100003c:  	00a12623    	SW     x10, 24(x2)

--------------------------------------
01000040:  	00c12703    	LW     x14, 12(x2)
Insns: 00000000110000010010011100000011 at PC_x=01000040

--------------------------------------
01000044:  	00100793    	ADDI   x15, x0, 12
Insns: 00000000000100000000011110010011 at PC_x=01000044

--------------------------------------
01000048:  	00e7c663    	BLT    x15, x14, 1000049

--------------------------------------
01000054:  	00c12783    	LW     x15, 12(x2)
Insns: 00000000110000010010011110000011 at PC_x=01000054

--------------------------------------
01000058:  	fff78793    	ADDI   x15, x15, 12
Insns: 11111111111101111000011110010011 at PC_x=01000058

--------------------------------------
0100005c:  	00078513    	ADDI   x10, x15, 4294967295
Insns: 00000000000001111000010100010011 at PC_x=0100005c

--------------------------------------
01000060:  	fd1ff0ef    	JAL    x1, 1000060

--------------------------------------
01000030:  	fe010113    	ADDI   x2, x2, 4294967248
Insns: 11111110000000010000000100010011 at PC_x=01000030

--------------------------------------
01000034:  	00112e23    	SW     x1, 4294967264(x2)

--------------------------------------
01000038:  	00812c23    	SW     x8, 28(x2)

--------------------------------------
0100003c:  	00a12623    	SW     x10, 24(x2)

--------------------------------------
01000040:  	00c12703    	LW     x14, 12(x2)
Insns: 00000000110000010010011100000011 at PC_x=01000040

--------------------------------------
01000044:  	00100793    	ADDI   x15, x0, 12
Insns: 00000000000100000000011110010011 at PC_x=01000044

--------------------------------------
01000048:  	00e7c663    	BLT    x15, x14, 1000049

--------------------------------------
0100004c:  	00c12783    	LW     x15, 12(x2)
Insns: 00000000110000010010011110000011 at PC_x=0100004c

--------------------------------------
01000050:  	0300006f    	JAL    x0, 100005c

--------------------------------------
01000080:  	00078513    	ADDI   x10, x15, 48
Insns: 00000000000001111000010100010011 at PC_x=01000080

--------------------------------------
01000084:  	01c12083    	LW     x1, 0(x2)
Insns: 00000001110000010010000010000011 at PC_x=01000084

--------------------------------------
01000088:  	01812403    	LW     x8, 28(x2)
Insns: 00000001100000010010010000000011 at PC_x=01000088

--------------------------------------
0100008c:  	02010113    	ADDI   x2, x2, 24
Insns: 00000010000000010000000100010011 at PC_x=0100008c

--------------------------------------
01000090:  	00008067    	JALR   x0, 32(x1)
Insns: 00000000000000001000000001100111 at PC_x=01000090

--------------------------------------
01000064:  	00050413    	ADDI   x8, x10, 0
Insns: 00000000000001010000010000010011 at PC_x=01000064

--------------------------------------
01000068:  	00c12783    	LW     x15, 0(x2)
Insns: 00000000110000010010011110000011 at PC_x=01000068

--------------------------------------
0100006c:  	ffe78793    	ADDI   x15, x15, 12
Insns: 11111111111001111000011110010011 at PC_x=0100006c

--------------------------------------
01000070:  	00078513    	ADDI   x10, x15, 4294967294
Insns: 00000000000001111000010100010011 at PC_x=01000070

--------------------------------------
01000074:  	fbdff0ef    	JAL    x1, 1000074

--------------------------------------
01000030:  	fe010113    	ADDI   x2, x2, 4294967229
Insns: 11111110000000010000000100010011 at PC_x=01000030

--------------------------------------
01000034:  	00112e23    	SW     x1, 4294967264(x2)

--------------------------------------
01000038:  	00812c23    	SW     x8, 28(x2)

--------------------------------------
0100003c:  	00a12623    	SW     x10, 24(x2)

--------------------------------------
01000040:  	00c12703    	LW     x14, 12(x2)
Insns: 00000000110000010010011100000011 at PC_x=01000040

--------------------------------------
01000044:  	00100793    	ADDI   x15, x0, 12
Insns: 00000000000100000000011110010011 at PC_x=01000044

--------------------------------------
01000048:  	00e7c663    	BLT    x15, x14, 1000049

--------------------------------------
0100004c:  	00c12783    	LW     x15, 12(x2)
Insns: 00000000110000010010011110000011 at PC_x=0100004c

--------------------------------------
01000050:  	0300006f    	JAL    x0, 100005c

--------------------------------------
01000080:  	00078513    	ADDI   x10, x15, 48
Insns: 00000000000001111000010100010011 at PC_x=01000080

--------------------------------------
01000084:  	01c12083    	LW     x1, 0(x2)
Insns: 00000001110000010010000010000011 at PC_x=01000084

--------------------------------------
01000088:  	01812403    	LW     x8, 28(x2)
Insns: 00000001100000010010010000000011 at PC_x=01000088

--------------------------------------
0100008c:  	02010113    	ADDI   x2, x2, 24
Insns: 00000010000000010000000100010011 at PC_x=0100008c

--------------------------------------
01000090:  	00008067    	JALR   x0, 32(x1)
Insns: 00000000000000001000000001100111 at PC_x=01000090

--------------------------------------
01000078:  	00050793    	ADDI   x15, x10, 0
Insns: 00000000000001010000011110010011 at PC_x=01000078

--------------------------------------
0100007c:  	00f407b3    	ADD    x15, x8, x15

--------------------------------------
01000080:  	00078513    	ADDI   x10, x15, 15
Insns: 00000000000001111000010100010011 at PC_x=01000080

--------------------------------------
01000084:  	01c12083    	LW     x1, 0(x2)
Insns: 00000001110000010010000010000011 at PC_x=01000084

--------------------------------------
01000088:  	01812403    	LW     x8, 28(x2)
Insns: 00000001100000010010010000000011 at PC_x=01000088

--------------------------------------
0100008c:  	02010113    	ADDI   x2, x2, 24
Insns: 00000010000000010000000100010011 at PC_x=0100008c

--------------------------------------
01000090:  	00008067    	JALR   x0, 32(x1)
Insns: 00000000000000001000000001100111 at PC_x=01000090

--------------------------------------
01000064:  	00050413    	ADDI   x8, x10, 0
Insns: 00000000000001010000010000010011 at PC_x=01000064

--------------------------------------
01000068:  	00c12783    	LW     x15, 0(x2)
Insns: 00000000110000010010011110000011 at PC_x=01000068

--------------------------------------
0100006c:  	ffe78793    	ADDI   x15, x15, 12
Insns: 11111111111001111000011110010011 at PC_x=0100006c

--------------------------------------
01000070:  	00078513    	ADDI   x10, x15, 4294967294
Insns: 00000000000001111000010100010011 at PC_x=01000070

--------------------------------------
01000074:  	fbdff0ef    	JAL    x1, 1000074

--------------------------------------
01000030:  	fe010113    	ADDI   x2, x2, 4294967229
Insns: 11111110000000010000000100010011 at PC_x=01000030

--------------------------------------
01000034:  	00112e23    	SW     x1, 4294967264(x2)

--------------------------------------
01000038:  	00812c23    	SW     x8, 28(x2)

--------------------------------------
0100003c:  	00a12623    	SW     x10, 24(x2)

--------------------------------------
01000040:  	00c12703    	LW     x14, 12(x2)
Insns: 00000000110000010010011100000011 at PC_x=01000040

--------------------------------------
01000044:  	00100793    	ADDI   x15, x0, 12
Insns: 00000000000100000000011110010011 at PC_x=01000044

--------------------------------------
01000048:  	00e7c663    	BLT    x15, x14, 1000049

--------------------------------------
0100004c:  	00c12783    	LW     x15, 12(x2)
Insns: 00000000110000010010011110000011 at PC_x=0100004c

--------------------------------------
01000050:  	0300006f    	JAL    x0, 100005c

--------------------------------------
01000080:  	00078513    	ADDI   x10, x15, 48
Insns: 00000000000001111000010100010011 at PC_x=01000080

--------------------------------------
01000084:  	01c12083    	LW     x1, 0(x2)
Insns: 00000001110000010010000010000011 at PC_x=01000084

--------------------------------------
01000088:  	01812403    	LW     x8, 28(x2)
Insns: 00000001100000010010010000000011 at PC_x=01000088

--------------------------------------
0100008c:  	02010113    	ADDI   x2, x2, 24
Insns: 00000010000000010000000100010011 at PC_x=0100008c

--------------------------------------
01000090:  	00008067    	JALR   x0, 32(x1)
Insns: 00000000000000001000000001100111 at PC_x=01000090

--------------------------------------
01000078:  	00050793    	ADDI   x15, x10, 0
Insns: 00000000000001010000011110010011 at PC_x=01000078

--------------------------------------
0100007c:  	00f407b3    	ADD    x15, x8, x15

--------------------------------------
01000080:  	00078513    	ADDI   x10, x15, 15
Insns: 00000000000001111000010100010011 at PC_x=01000080

--------------------------------------
01000084:  	01c12083    	LW     x1, 0(x2)
Insns: 00000001110000010010000010000011 at PC_x=01000084

--------------------------------------
01000088:  	01812403    	LW     x8, 28(x2)
Insns: 00000001100000010010010000000011 at PC_x=01000088

--------------------------------------
0100008c:  	02010113    	ADDI   x2, x2, 24
Insns: 00000010000000010000000100010011 at PC_x=0100008c

--------------------------------------
01000090:  	00008067    	JALR   x0, 32(x1)
Insns: 00000000000000001000000001100111 at PC_x=01000090

--------------------------------------
01000078:  	00050793    	ADDI   x15, x10, 0
Insns: 00000000000001010000011110010011 at PC_x=01000078

--------------------------------------
0100007c:  	00f407b3    	ADD    x15, x8, x15

--------------------------------------
01000080:  	00078513    	ADDI   x10, x15, 0
Insns: 00000000000001111000010100010011 at PC_x=01000080

--------------------------------------
01000084:  	01c12083    	LW     x1, 0(x2)
Insns: 00000001110000010010000010000011 at PC_x=01000084

--------------------------------------
01000088:  	01812403    	LW     x8, 28(x2)
Insns: 00000001100000010010010000000011 at PC_x=01000088

--------------------------------------
0100008c:  	02010113    	ADDI   x2, x2, 24
Insns: 00000010000000010000000100010011 at PC_x=0100008c

--------------------------------------
01000090:  	00008067    	JALR   x0, 32(x1)
Insns: 00000000000000001000000001100111 at PC_x=01000090

--------------------------------------
01000078:  	00050793    	ADDI   x15, x10, 0
Insns: 00000000000001010000011110010011 at PC_x=01000078

--------------------------------------
0100007c:  	00f407b3    	ADD    x15, x8, x15

--------------------------------------
01000080:  	00078513    	ADDI   x10, x15, 15
Insns: 00000000000001111000010100010011 at PC_x=01000080

--------------------------------------
01000084:  	01c12083    	LW     x1, 0(x2)
Insns: 00000001110000010010000010000011 at PC_x=01000084

--------------------------------------
01000088:  	01812403    	LW     x8, 28(x2)
Insns: 00000001100000010010010000000011 at PC_x=01000088

--------------------------------------
0100008c:  	02010113    	ADDI   x2, x2, 24
Insns: 00000010000000010000000100010011 at PC_x=0100008c

--------------------------------------
01000090:  	00008067    	JALR   x0, 32(x1)
Insns: 00000000000000001000000001100111 at PC_x=01000090

--------------------------------------
01000064:  	00050413    	ADDI   x8, x10, 0
Insns: 00000000000001010000010000010011 at PC_x=01000064

--------------------------------------
01000068:  	00c12783    	LW     x15, 0(x2)
Insns: 00000000110000010010011110000011 at PC_x=01000068

--------------------------------------
0100006c:  	ffe78793    	ADDI   x15, x15, 12
Insns: 11111111111001111000011110010011 at PC_x=0100006c

--------------------------------------
01000070:  	00078513    	ADDI   x10, x15, 4294967294
Insns: 00000000000001111000010100010011 at PC_x=01000070

--------------------------------------
01000074:  	fbdff0ef    	JAL    x1, 1000074

--------------------------------------
01000030:  	fe010113    	ADDI   x2, x2, 4294967229
Insns: 11111110000000010000000100010011 at PC_x=01000030

--------------------------------------
01000034:  	00112e23    	SW     x1, 4294967264(x2)

--------------------------------------
01000038:  	00812c23    	SW     x8, 28(x2)

--------------------------------------
0100003c:  	00a12623    	SW     x10, 24(x2)

--------------------------------------
01000040:  	00c12703    	LW     x14, 12(x2)
Insns: 00000000110000010010011100000011 at PC_x=01000040

--------------------------------------
01000044:  	00100793    	ADDI   x15, x0, 12
Insns: 00000000000100000000011110010011 at PC_x=01000044

--------------------------------------
01000048:  	00e7c663    	BLT    x15, x14, 1000049

--------------------------------------
01000054:  	00c12783    	LW     x15, 12(x2)
Insns: 00000000110000010010011110000011 at PC_x=01000054

--------------------------------------
01000058:  	fff78793    	ADDI   x15, x15, 12
Insns: 11111111111101111000011110010011 at PC_x=01000058

--------------------------------------
0100005c:  	00078513    	ADDI   x10, x15, 4294967295
Insns: 00000000000001111000010100010011 at PC_x=0100005c

--------------------------------------
01000060:  	fd1ff0ef    	JAL    x1, 1000060

--------------------------------------
01000030:  	fe010113    	ADDI   x2, x2, 4294967248
Insns: 11111110000000010000000100010011 at PC_x=01000030

--------------------------------------
01000034:  	00112e23    	SW     x1, 4294967264(x2)

--------------------------------------
01000038:  	00812c23    	SW     x8, 28(x2)

--------------------------------------
0100003c:  	00a12623    	SW     x10, 24(x2)

--------------------------------------
01000040:  	00c12703    	LW     x14, 12(x2)
Insns: 00000000110000010010011100000011 at PC_x=01000040

--------------------------------------
01000044:  	00100793    	ADDI   x15, x0, 12
Insns: 00000000000100000000011110010011 at PC_x=01000044

--------------------------------------
01000048:  	00e7c663    	BLT    x15, x14, 1000049

--------------------------------------
01000054:  	00c12783    	LW     x15, 12(x2)
Insns: 00000000110000010010011110000011 at PC_x=01000054

--------------------------------------
01000058:  	fff78793    	ADDI   x15, x15, 12
Insns: 11111111111101111000011110010011 at PC_x=01000058

--------------------------------------
0100005c:  	00078513    	ADDI   x10, x15, 4294967295
Insns: 00000000000001111000010100010011 at PC_x=0100005c

--------------------------------------
01000060:  	fd1ff0ef    	JAL    x1, 1000060

--------------------------------------
01000030:  	fe010113    	ADDI   x2, x2, 4294967249
Insns: 11111110000000010000000100010011 at PC_x=01000030

--------------------------------------
01000034:  	00112e23    	SW     x1, 4294967264(x2)

--------------------------------------
01000038:  	00812c23    	SW     x8, 28(x2)

--------------------------------------
0100003c:  	00a12623    	SW     x10, 24(x2)

--------------------------------------
01000040:  	00c12703    	LW     x14, 12(x2)
Insns: 00000000110000010010011100000011 at PC_x=01000040

--------------------------------------
01000044:  	00100793    	ADDI   x15, x0, 12
Insns: 00000000000100000000011110010011 at PC_x=01000044

--------------------------------------
01000048:  	00e7c663    	BLT    x15, x14, 1000049

--------------------------------------
01000054:  	00c12783    	LW     x15, 12(x2)
Insns: 00000000110000010010011110000011 at PC_x=01000054

--------------------------------------
01000058:  	fff78793    	ADDI   x15, x15, 12
Insns: 11111111111101111000011110010011 at PC_x=01000058

--------------------------------------
0100005c:  	00078513    	ADDI   x10, x15, 4294967295
Insns: 00000000000001111000010100010011 at PC_x=0100005c

--------------------------------------
01000060:  	fd1ff0ef    	JAL    x1, 1000060

--------------------------------------
01000030:  	fe010113    	ADDI   x2, x2, 4294967248
Insns: 11111110000000010000000100010011 at PC_x=01000030

--------------------------------------
01000034:  	00112e23    	SW     x1, 4294967264(x2)

--------------------------------------
01000038:  	00812c23    	SW     x8, 28(x2)

--------------------------------------
0100003c:  	00a12623    	SW     x10, 24(x2)

--------------------------------------
01000040:  	00c12703    	LW     x14, 12(x2)
Insns: 00000000110000010010011100000011 at PC_x=01000040

--------------------------------------
01000044:  	00100793    	ADDI   x15, x0, 12
Insns: 00000000000100000000011110010011 at PC_x=01000044

--------------------------------------
01000048:  	00e7c663    	BLT    x15, x14, 1000049

--------------------------------------
01000054:  	00c12783    	LW     x15, 12(x2)
Insns: 00000000110000010010011110000011 at PC_x=01000054

--------------------------------------
01000058:  	fff78793    	ADDI   x15, x15, 12
Insns: 11111111111101111000011110010011 at PC_x=01000058

--------------------------------------
0100005c:  	00078513    	ADDI   x10, x15, 4294967295
Insns: 00000000000001111000010100010011 at PC_x=0100005c

--------------------------------------
01000060:  	fd1ff0ef    	JAL    x1, 1000060

--------------------------------------
01000030:  	fe010113    	ADDI   x2, x2, 4294967249
Insns: 11111110000000010000000100010011 at PC_x=01000030

--------------------------------------
01000034:  	00112e23    	SW     x1, 4294967264(x2)

--------------------------------------
01000038:  	00812c23    	SW     x8, 28(x2)

--------------------------------------
0100003c:  	00a12623    	SW     x10, 24(x2)

--------------------------------------
01000040:  	00c12703    	LW     x14, 12(x2)
Insns: 00000000110000010010011100000011 at PC_x=01000040

--------------------------------------
01000044:  	00100793    	ADDI   x15, x0, 12
Insns: 00000000000100000000011110010011 at PC_x=01000044

--------------------------------------
01000048:  	00e7c663    	BLT    x15, x14, 1000049

--------------------------------------
01000054:  	00c12783    	LW     x15, 12(x2)
Insns: 00000000110000010010011110000011 at PC_x=01000054

--------------------------------------
01000058:  	fff78793    	ADDI   x15, x15, 12
Insns: 11111111111101111000011110010011 at PC_x=01000058

--------------------------------------
0100005c:  	00078513    	ADDI   x10, x15, 4294967295
Insns: 00000000000001111000010100010011 at PC_x=0100005c

--------------------------------------
01000060:  	fd1ff0ef    	JAL    x1, 1000060

--------------------------------------
01000030:  	fe010113    	ADDI   x2, x2, 4294967248
Insns: 11111110000000010000000100010011 at PC_x=01000030

--------------------------------------
01000034:  	00112e23    	SW     x1, 4294967264(x2)

--------------------------------------
01000038:  	00812c23    	SW     x8, 28(x2)

--------------------------------------
0100003c:  	00a12623    	SW     x10, 24(x2)

--------------------------------------
01000040:  	00c12703    	LW     x14, 12(x2)
Insns: 00000000110000010010011100000011 at PC_x=01000040

--------------------------------------
01000044:  	00100793    	ADDI   x15, x0, 12
Insns: 00000000000100000000011110010011 at PC_x=01000044

--------------------------------------
01000048:  	00e7c663    	BLT    x15, x14, 1000049

--------------------------------------
0100004c:  	00c12783    	LW     x15, 12(x2)
Insns: 00000000110000010010011110000011 at PC_x=0100004c

--------------------------------------
01000050:  	0300006f    	JAL    x0, 100005c

--------------------------------------
01000080:  	00078513    	ADDI   x10, x15, 48
Insns: 00000000000001111000010100010011 at PC_x=01000080

--------------------------------------
01000084:  	01c12083    	LW     x1, 0(x2)
Insns: 00000001110000010010000010000011 at PC_x=01000084

--------------------------------------
01000088:  	01812403    	LW     x8, 28(x2)
Insns: 00000001100000010010010000000011 at PC_x=01000088

--------------------------------------
0100008c:  	02010113    	ADDI   x2, x2, 24
Insns: 00000010000000010000000100010011 at PC_x=0100008c

--------------------------------------
01000090:  	00008067    	JALR   x0, 32(x1)
Insns: 00000000000000001000000001100111 at PC_x=01000090

--------------------------------------
01000064:  	00050413    	ADDI   x8, x10, 0
Insns: 00000000000001010000010000010011 at PC_x=01000064

--------------------------------------
01000068:  	00c12783    	LW     x15, 0(x2)
Insns: 00000000110000010010011110000011 at PC_x=01000068

--------------------------------------
0100006c:  	ffe78793    	ADDI   x15, x15, 12
Insns: 11111111111001111000011110010011 at PC_x=0100006c

--------------------------------------
01000070:  	00078513    	ADDI   x10, x15, 4294967294
Insns: 00000000000001111000010100010011 at PC_x=01000070

--------------------------------------
01000074:  	fbdff0ef    	JAL    x1, 1000074

--------------------------------------
01000030:  	fe010113    	ADDI   x2, x2, 4294967229
Insns: 11111110000000010000000100010011 at PC_x=01000030

--------------------------------------
01000034:  	00112e23    	SW     x1, 4294967264(x2)

--------------------------------------
01000038:  	00812c23    	SW     x8, 28(x2)

--------------------------------------
0100003c:  	00a12623    	SW     x10, 24(x2)

--------------------------------------
01000040:  	00c12703    	LW     x14, 12(x2)
Insns: 00000000110000010010011100000011 at PC_x=01000040

--------------------------------------
01000044:  	00100793    	ADDI   x15, x0, 12
Insns: 00000000000100000000011110010011 at PC_x=01000044

--------------------------------------
01000048:  	00e7c663    	BLT    x15, x14, 1000049

--------------------------------------
0100004c:  	00c12783    	LW     x15, 12(x2)
Insns: 00000000110000010010011110000011 at PC_x=0100004c

--------------------------------------
01000050:  	0300006f    	JAL    x0, 100005c

--------------------------------------
01000080:  	00078513    	ADDI   x10, x15, 48
Insns: 00000000000001111000010100010011 at PC_x=01000080

--------------------------------------
01000084:  	01c12083    	LW     x1, 0(x2)
Insns: 00000001110000010010000010000011 at PC_x=01000084

--------------------------------------
01000088:  	01812403    	LW     x8, 28(x2)
Insns: 00000001100000010010010000000011 at PC_x=01000088

--------------------------------------
0100008c:  	02010113    	ADDI   x2, x2, 24
Insns: 00000010000000010000000100010011 at PC_x=0100008c

--------------------------------------
01000090:  	00008067    	JALR   x0, 32(x1)
Insns: 00000000000000001000000001100111 at PC_x=01000090

--------------------------------------
01000078:  	00050793    	ADDI   x15, x10, 0
Insns: 00000000000001010000011110010011 at PC_x=01000078

--------------------------------------
0100007c:  	00f407b3    	ADD    x15, x8, x15

--------------------------------------
01000080:  	00078513    	ADDI   x10, x15, 15
Insns: 00000000000001111000010100010011 at PC_x=01000080

--------------------------------------
01000084:  	01c12083    	LW     x1, 0(x2)
Insns: 00000001110000010010000010000011 at PC_x=01000084

--------------------------------------
01000088:  	01812403    	LW     x8, 28(x2)
Insns: 00000001100000010010010000000011 at PC_x=01000088

--------------------------------------
0100008c:  	02010113    	ADDI   x2, x2, 24
Insns: 00000010000000010000000100010011 at PC_x=0100008c

--------------------------------------
01000090:  	00008067    	JALR   x0, 32(x1)
Insns: 00000000000000001000000001100111 at PC_x=01000090

--------------------------------------
01000064:  	00050413    	ADDI   x8, x10, 0
Insns: 00000000000001010000010000010011 at PC_x=01000064

--------------------------------------
01000068:  	00c12783    	LW     x15, 0(x2)
Insns: 00000000110000010010011110000011 at PC_x=01000068

--------------------------------------
0100006c:  	ffe78793    	ADDI   x15, x15, 12
Insns: 11111111111001111000011110010011 at PC_x=0100006c

--------------------------------------
01000070:  	00078513    	ADDI   x10, x15, 4294967294
Insns: 00000000000001111000010100010011 at PC_x=01000070

--------------------------------------
01000074:  	fbdff0ef    	JAL    x1, 1000074

--------------------------------------
01000030:  	fe010113    	ADDI   x2, x2, 4294967229
Insns: 11111110000000010000000100010011 at PC_x=01000030

--------------------------------------
01000034:  	00112e23    	SW     x1, 4294967264(x2)

--------------------------------------
01000038:  	00812c23    	SW     x8, 28(x2)

--------------------------------------
0100003c:  	00a12623    	SW     x10, 24(x2)

--------------------------------------
01000040:  	00c12703    	LW     x14, 12(x2)
Insns: 00000000110000010010011100000011 at PC_x=01000040

--------------------------------------
01000044:  	00100793    	ADDI   x15, x0, 12
Insns: 00000000000100000000011110010011 at PC_x=01000044

--------------------------------------
01000048:  	00e7c663    	BLT    x15, x14, 1000049

--------------------------------------
0100004c:  	00c12783    	LW     x15, 12(x2)
Insns: 00000000110000010010011110000011 at PC_x=0100004c

--------------------------------------
01000050:  	0300006f    	JAL    x0, 100005c

--------------------------------------
01000080:  	00078513    	ADDI   x10, x15, 48
Insns: 00000000000001111000010100010011 at PC_x=01000080

--------------------------------------
01000084:  	01c12083    	LW     x1, 0(x2)
Insns: 00000001110000010010000010000011 at PC_x=01000084

--------------------------------------
01000088:  	01812403    	LW     x8, 28(x2)
Insns: 00000001100000010010010000000011 at PC_x=01000088

--------------------------------------
0100008c:  	02010113    	ADDI   x2, x2, 24
Insns: 00000010000000010000000100010011 at PC_x=0100008c

--------------------------------------
01000090:  	00008067    	JALR   x0, 32(x1)
Insns: 00000000000000001000000001100111 at PC_x=01000090

--------------------------------------
01000078:  	00050793    	ADDI   x15, x10, 0
Insns: 00000000000001010000011110010011 at PC_x=01000078

--------------------------------------
0100007c:  	00f407b3    	ADD    x15, x8, x15

--------------------------------------
01000080:  	00078513    	ADDI   x10, x15, 15
Insns: 00000000000001111000010100010011 at PC_x=01000080

--------------------------------------
01000084:  	01c12083    	LW     x1, 0(x2)
Insns: 00000001110000010010000010000011 at PC_x=01000084

--------------------------------------
01000088:  	01812403    	LW     x8, 28(x2)
Insns: 00000001100000010010010000000011 at PC_x=01000088

--------------------------------------
0100008c:  	02010113    	ADDI   x2, x2, 24
Insns: 00000010000000010000000100010011 at PC_x=0100008c

--------------------------------------
01000090:  	00008067    	JALR   x0, 32(x1)
Insns: 00000000000000001000000001100111 at PC_x=01000090

--------------------------------------
01000064:  	00050413    	ADDI   x8, x10, 0
Insns: 00000000000001010000010000010011 at PC_x=01000064

--------------------------------------
01000068:  	00c12783    	LW     x15, 0(x2)
Insns: 00000000110000010010011110000011 at PC_x=01000068

--------------------------------------
0100006c:  	ffe78793    	ADDI   x15, x15, 12
Insns: 11111111111001111000011110010011 at PC_x=0100006c

--------------------------------------
01000070:  	00078513    	ADDI   x10, x15, 4294967294
Insns: 00000000000001111000010100010011 at PC_x=01000070

--------------------------------------
01000074:  	fbdff0ef    	JAL    x1, 1000074

--------------------------------------
01000030:  	fe010113    	ADDI   x2, x2, 4294967229
Insns: 11111110000000010000000100010011 at PC_x=01000030

--------------------------------------
01000034:  	00112e23    	SW     x1, 4294967264(x2)

--------------------------------------
01000038:  	00812c23    	SW     x8, 28(x2)

--------------------------------------
0100003c:  	00a12623    	SW     x10, 24(x2)

--------------------------------------
01000040:  	00c12703    	LW     x14, 12(x2)
Insns: 00000000110000010010011100000011 at PC_x=01000040

--------------------------------------
01000044:  	00100793    	ADDI   x15, x0, 12
Insns: 00000000000100000000011110010011 at PC_x=01000044

--------------------------------------
01000048:  	00e7c663    	BLT    x15, x14, 1000049

--------------------------------------
01000054:  	00c12783    	LW     x15, 12(x2)
Insns: 00000000110000010010011110000011 at PC_x=01000054

--------------------------------------
01000058:  	fff78793    	ADDI   x15, x15, 12
Insns: 11111111111101111000011110010011 at PC_x=01000058

--------------------------------------
0100005c:  	00078513    	ADDI   x10, x15, 4294967295
Insns: 00000000000001111000010100010011 at PC_x=0100005c

--------------------------------------
01000060:  	fd1ff0ef    	JAL    x1, 1000060

--------------------------------------
01000030:  	fe010113    	ADDI   x2, x2, 4294967248
Insns: 11111110000000010000000100010011 at PC_x=01000030

--------------------------------------
01000034:  	00112e23    	SW     x1, 4294967264(x2)

--------------------------------------
01000038:  	00812c23    	SW     x8, 28(x2)

--------------------------------------
0100003c:  	00a12623    	SW     x10, 24(x2)

--------------------------------------
01000040:  	00c12703    	LW     x14, 12(x2)
Insns: 00000000110000010010011100000011 at PC_x=01000040

--------------------------------------
01000044:  	00100793    	ADDI   x15, x0, 12
Insns: 00000000000100000000011110010011 at PC_x=01000044

--------------------------------------
01000048:  	00e7c663    	BLT    x15, x14, 1000049

--------------------------------------
0100004c:  	00c12783    	LW     x15, 12(x2)
Insns: 00000000110000010010011110000011 at PC_x=0100004c

--------------------------------------
01000050:  	0300006f    	JAL    x0, 100005c

--------------------------------------
01000080:  	00078513    	ADDI   x10, x15, 48
Insns: 00000000000001111000010100010011 at PC_x=01000080

--------------------------------------
01000084:  	01c12083    	LW     x1, 0(x2)
Insns: 00000001110000010010000010000011 at PC_x=01000084

--------------------------------------
01000088:  	01812403    	LW     x8, 28(x2)
Insns: 00000001100000010010010000000011 at PC_x=01000088

--------------------------------------
0100008c:  	02010113    	ADDI   x2, x2, 24
Insns: 00000010000000010000000100010011 at PC_x=0100008c

--------------------------------------
01000090:  	00008067    	JALR   x0, 32(x1)
Insns: 00000000000000001000000001100111 at PC_x=01000090

--------------------------------------
01000064:  	00050413    	ADDI   x8, x10, 0
Insns: 00000000000001010000010000010011 at PC_x=01000064

--------------------------------------
01000068:  	00c12783    	LW     x15, 0(x2)
Insns: 00000000110000010010011110000011 at PC_x=01000068

--------------------------------------
0100006c:  	ffe78793    	ADDI   x15, x15, 12
Insns: 11111111111001111000011110010011 at PC_x=0100006c

--------------------------------------
01000070:  	00078513    	ADDI   x10, x15, 4294967294
Insns: 00000000000001111000010100010011 at PC_x=01000070

--------------------------------------
01000074:  	fbdff0ef    	JAL    x1, 1000074

--------------------------------------
01000030:  	fe010113    	ADDI   x2, x2, 4294967229
Insns: 11111110000000010000000100010011 at PC_x=01000030

--------------------------------------
01000034:  	00112e23    	SW     x1, 4294967264(x2)

--------------------------------------
01000038:  	00812c23    	SW     x8, 28(x2)

--------------------------------------
0100003c:  	00a12623    	SW     x10, 24(x2)

--------------------------------------
01000040:  	00c12703    	LW     x14, 12(x2)
Insns: 00000000110000010010011100000011 at PC_x=01000040

--------------------------------------
01000044:  	00100793    	ADDI   x15, x0, 12
Insns: 00000000000100000000011110010011 at PC_x=01000044

--------------------------------------
01000048:  	00e7c663    	BLT    x15, x14, 1000049

--------------------------------------
0100004c:  	00c12783    	LW     x15, 12(x2)
Insns: 00000000110000010010011110000011 at PC_x=0100004c

--------------------------------------
01000050:  	0300006f    	JAL    x0, 100005c

--------------------------------------
01000080:  	00078513    	ADDI   x10, x15, 48
Insns: 00000000000001111000010100010011 at PC_x=01000080

--------------------------------------
01000084:  	01c12083    	LW     x1, 0(x2)
Insns: 00000001110000010010000010000011 at PC_x=01000084

--------------------------------------
01000088:  	01812403    	LW     x8, 28(x2)
Insns: 00000001100000010010010000000011 at PC_x=01000088

--------------------------------------
0100008c:  	02010113    	ADDI   x2, x2, 24
Insns: 00000010000000010000000100010011 at PC_x=0100008c

--------------------------------------
01000090:  	00008067    	JALR   x0, 32(x1)
Insns: 00000000000000001000000001100111 at PC_x=01000090

--------------------------------------
01000078:  	00050793    	ADDI   x15, x10, 0
Insns: 00000000000001010000011110010011 at PC_x=01000078

--------------------------------------
0100007c:  	00f407b3    	ADD    x15, x8, x15

--------------------------------------
01000080:  	00078513    	ADDI   x10, x15, 15
Insns: 00000000000001111000010100010011 at PC_x=01000080

--------------------------------------
01000084:  	01c12083    	LW     x1, 0(x2)
Insns: 00000001110000010010000010000011 at PC_x=01000084

--------------------------------------
01000088:  	01812403    	LW     x8, 28(x2)
Insns: 00000001100000010010010000000011 at PC_x=01000088

--------------------------------------
0100008c:  	02010113    	ADDI   x2, x2, 24
Insns: 00000010000000010000000100010011 at PC_x=0100008c

--------------------------------------
01000090:  	00008067    	JALR   x0, 32(x1)
Insns: 00000000000000001000000001100111 at PC_x=01000090

--------------------------------------
01000078:  	00050793    	ADDI   x15, x10, 0
Insns: 00000000000001010000011110010011 at PC_x=01000078

--------------------------------------
0100007c:  	00f407b3    	ADD    x15, x8, x15

--------------------------------------
01000080:  	00078513    	ADDI   x10, x15, 0
Insns: 00000000000001111000010100010011 at PC_x=01000080

--------------------------------------
01000084:  	01c12083    	LW     x1, 0(x2)
Insns: 00000001110000010010000010000011 at PC_x=01000084

--------------------------------------
01000088:  	01812403    	LW     x8, 28(x2)
Insns: 00000001100000010010010000000011 at PC_x=01000088

--------------------------------------
0100008c:  	02010113    	ADDI   x2, x2, 24
Insns: 00000010000000010000000100010011 at PC_x=0100008c

--------------------------------------
01000090:  	00008067    	JALR   x0, 32(x1)
Insns: 00000000000000001000000001100111 at PC_x=01000090

--------------------------------------
01000064:  	00050413    	ADDI   x8, x10, 0
Insns: 00000000000001010000010000010011 at PC_x=01000064

--------------------------------------
01000068:  	00c12783    	LW     x15, 0(x2)
Insns: 00000000110000010010011110000011 at PC_x=01000068

--------------------------------------
0100006c:  	ffe78793    	ADDI   x15, x15, 12
Insns: 11111111111001111000011110010011 at PC_x=0100006c

--------------------------------------
01000070:  	00078513    	ADDI   x10, x15, 4294967294
Insns: 00000000000001111000010100010011 at PC_x=01000070

--------------------------------------
01000074:  	fbdff0ef    	JAL    x1, 1000074

--------------------------------------
01000030:  	fe010113    	ADDI   x2, x2, 4294967228
Insns: 11111110000000010000000100010011 at PC_x=01000030

--------------------------------------
01000034:  	00112e23    	SW     x1, 4294967264(x2)

--------------------------------------
01000038:  	00812c23    	SW     x8, 28(x2)

--------------------------------------
0100003c:  	00a12623    	SW     x10, 24(x2)

--------------------------------------
01000040:  	00c12703    	LW     x14, 12(x2)
Insns: 00000000110000010010011100000011 at PC_x=01000040

--------------------------------------
01000044:  	00100793    	ADDI   x15, x0, 12
Insns: 00000000000100000000011110010011 at PC_x=01000044

--------------------------------------
01000048:  	00e7c663    	BLT    x15, x14, 1000049

--------------------------------------
01000054:  	00c12783    	LW     x15, 12(x2)
Insns: 00000000110000010010011110000011 at PC_x=01000054

--------------------------------------
01000058:  	fff78793    	ADDI   x15, x15, 12
Insns: 11111111111101111000011110010011 at PC_x=01000058

--------------------------------------
0100005c:  	00078513    	ADDI   x10, x15, 4294967295
Insns: 00000000000001111000010100010011 at PC_x=0100005c

--------------------------------------
01000060:  	fd1ff0ef    	JAL    x1, 1000060

--------------------------------------
01000030:  	fe010113    	ADDI   x2, x2, 4294967249
Insns: 11111110000000010000000100010011 at PC_x=01000030

--------------------------------------
01000034:  	00112e23    	SW     x1, 4294967264(x2)

--------------------------------------
01000038:  	00812c23    	SW     x8, 28(x2)

--------------------------------------
0100003c:  	00a12623    	SW     x10, 24(x2)

--------------------------------------
01000040:  	00c12703    	LW     x14, 12(x2)
Insns: 00000000110000010010011100000011 at PC_x=01000040

--------------------------------------
01000044:  	00100793    	ADDI   x15, x0, 12
Insns: 00000000000100000000011110010011 at PC_x=01000044

--------------------------------------
01000048:  	00e7c663    	BLT    x15, x14, 1000049

--------------------------------------
01000054:  	00c12783    	LW     x15, 12(x2)
Insns: 00000000110000010010011110000011 at PC_x=01000054

--------------------------------------
01000058:  	fff78793    	ADDI   x15, x15, 12
Insns: 11111111111101111000011110010011 at PC_x=01000058

--------------------------------------
0100005c:  	00078513    	ADDI   x10, x15, 4294967295
Insns: 00000000000001111000010100010011 at PC_x=0100005c

--------------------------------------
01000060:  	fd1ff0ef    	JAL    x1, 1000060

--------------------------------------
01000030:  	fe010113    	ADDI   x2, x2, 4294967248
Insns: 11111110000000010000000100010011 at PC_x=01000030

--------------------------------------
01000034:  	00112e23    	SW     x1, 4294967264(x2)

--------------------------------------
01000038:  	00812c23    	SW     x8, 28(x2)

--------------------------------------
0100003c:  	00a12623    	SW     x10, 24(x2)

--------------------------------------
01000040:  	00c12703    	LW     x14, 12(x2)
Insns: 00000000110000010010011100000011 at PC_x=01000040

--------------------------------------
01000044:  	00100793    	ADDI   x15, x0, 12
Insns: 00000000000100000000011110010011 at PC_x=01000044

--------------------------------------
01000048:  	00e7c663    	BLT    x15, x14, 1000049

--------------------------------------
0100004c:  	00c12783    	LW     x15, 12(x2)
Insns: 00000000110000010010011110000011 at PC_x=0100004c

--------------------------------------
01000050:  	0300006f    	JAL    x0, 100005c

--------------------------------------
01000080:  	00078513    	ADDI   x10, x15, 48
Insns: 00000000000001111000010100010011 at PC_x=01000080

--------------------------------------
01000084:  	01c12083    	LW     x1, 0(x2)
Insns: 00000001110000010010000010000011 at PC_x=01000084

--------------------------------------
01000088:  	01812403    	LW     x8, 28(x2)
Insns: 00000001100000010010010000000011 at PC_x=01000088

--------------------------------------
0100008c:  	02010113    	ADDI   x2, x2, 24
Insns: 00000010000000010000000100010011 at PC_x=0100008c

--------------------------------------
01000090:  	00008067    	JALR   x0, 32(x1)
Insns: 00000000000000001000000001100111 at PC_x=01000090

--------------------------------------
01000064:  	00050413    	ADDI   x8, x10, 0
Insns: 00000000000001010000010000010011 at PC_x=01000064

--------------------------------------
01000068:  	00c12783    	LW     x15, 0(x2)
Insns: 00000000110000010010011110000011 at PC_x=01000068

--------------------------------------
0100006c:  	ffe78793    	ADDI   x15, x15, 12
Insns: 11111111111001111000011110010011 at PC_x=0100006c

--------------------------------------
01000070:  	00078513    	ADDI   x10, x15, 4294967294
Insns: 00000000000001111000010100010011 at PC_x=01000070

--------------------------------------
01000074:  	fbdff0ef    	JAL    x1, 1000074

--------------------------------------
01000030:  	fe010113    	ADDI   x2, x2, 4294967229
Insns: 11111110000000010000000100010011 at PC_x=01000030

--------------------------------------
01000034:  	00112e23    	SW     x1, 4294967264(x2)

--------------------------------------
01000038:  	00812c23    	SW     x8, 28(x2)

--------------------------------------
0100003c:  	00a12623    	SW     x10, 24(x2)

--------------------------------------
01000040:  	00c12703    	LW     x14, 12(x2)
Insns: 00000000110000010010011100000011 at PC_x=01000040

--------------------------------------
01000044:  	00100793    	ADDI   x15, x0, 12
Insns: 00000000000100000000011110010011 at PC_x=01000044

--------------------------------------
01000048:  	00e7c663    	BLT    x15, x14, 1000049

--------------------------------------
0100004c:  	00c12783    	LW     x15, 12(x2)
Insns: 00000000110000010010011110000011 at PC_x=0100004c

--------------------------------------
01000050:  	0300006f    	JAL    x0, 100005c

--------------------------------------
01000080:  	00078513    	ADDI   x10, x15, 48
Insns: 00000000000001111000010100010011 at PC_x=01000080

--------------------------------------
01000084:  	01c12083    	LW     x1, 0(x2)
Insns: 00000001110000010010000010000011 at PC_x=01000084

--------------------------------------
01000088:  	01812403    	LW     x8, 28(x2)
Insns: 00000001100000010010010000000011 at PC_x=01000088

--------------------------------------
0100008c:  	02010113    	ADDI   x2, x2, 24
Insns: 00000010000000010000000100010011 at PC_x=0100008c

--------------------------------------
01000090:  	00008067    	JALR   x0, 32(x1)
Insns: 00000000000000001000000001100111 at PC_x=01000090

--------------------------------------
01000078:  	00050793    	ADDI   x15, x10, 0
Insns: 00000000000001010000011110010011 at PC_x=01000078

--------------------------------------
0100007c:  	00f407b3    	ADD    x15, x8, x15

--------------------------------------
01000080:  	00078513    	ADDI   x10, x15, 15
Insns: 00000000000001111000010100010011 at PC_x=01000080

--------------------------------------
01000084:  	01c12083    	LW     x1, 0(x2)
Insns: 00000001110000010010000010000011 at PC_x=01000084

--------------------------------------
01000088:  	01812403    	LW     x8, 28(x2)
Insns: 00000001100000010010010000000011 at PC_x=01000088

--------------------------------------
0100008c:  	02010113    	ADDI   x2, x2, 24
Insns: 00000010000000010000000100010011 at PC_x=0100008c

--------------------------------------
01000090:  	00008067    	JALR   x0, 32(x1)
Insns: 00000000000000001000000001100111 at PC_x=01000090

--------------------------------------
01000064:  	00050413    	ADDI   x8, x10, 0
Insns: 00000000000001010000010000010011 at PC_x=01000064

--------------------------------------
01000068:  	00c12783    	LW     x15, 0(x2)
Insns: 00000000110000010010011110000011 at PC_x=01000068

--------------------------------------
0100006c:  	ffe78793    	ADDI   x15, x15, 12
Insns: 11111111111001111000011110010011 at PC_x=0100006c

--------------------------------------
01000070:  	00078513    	ADDI   x10, x15, 4294967294
Insns: 00000000000001111000010100010011 at PC_x=01000070

--------------------------------------
01000074:  	fbdff0ef    	JAL    x1, 1000074

--------------------------------------
01000030:  	fe010113    	ADDI   x2, x2, 4294967229
Insns: 11111110000000010000000100010011 at PC_x=01000030

--------------------------------------
01000034:  	00112e23    	SW     x1, 4294967264(x2)

--------------------------------------
01000038:  	00812c23    	SW     x8, 28(x2)

--------------------------------------
0100003c:  	00a12623    	SW     x10, 24(x2)

--------------------------------------
01000040:  	00c12703    	LW     x14, 12(x2)
Insns: 00000000110000010010011100000011 at PC_x=01000040

--------------------------------------
01000044:  	00100793    	ADDI   x15, x0, 12
Insns: 00000000000100000000011110010011 at PC_x=01000044

--------------------------------------
01000048:  	00e7c663    	BLT    x15, x14, 1000049

--------------------------------------
0100004c:  	00c12783    	LW     x15, 12(x2)
Insns: 00000000110000010010011110000011 at PC_x=0100004c

--------------------------------------
01000050:  	0300006f    	JAL    x0, 100005c

--------------------------------------
01000080:  	00078513    	ADDI   x10, x15, 48
Insns: 00000000000001111000010100010011 at PC_x=01000080

--------------------------------------
01000084:  	01c12083    	LW     x1, 0(x2)
Insns: 00000001110000010010000010000011 at PC_x=01000084

--------------------------------------
01000088:  	01812403    	LW     x8, 28(x2)
Insns: 00000001100000010010010000000011 at PC_x=01000088

--------------------------------------
0100008c:  	02010113    	ADDI   x2, x2, 24
Insns: 00000010000000010000000100010011 at PC_x=0100008c

--------------------------------------
01000090:  	00008067    	JALR   x0, 32(x1)
Insns: 00000000000000001000000001100111 at PC_x=01000090

--------------------------------------
01000078:  	00050793    	ADDI   x15, x10, 0
Insns: 00000000000001010000011110010011 at PC_x=01000078

--------------------------------------
0100007c:  	00f407b3    	ADD    x15, x8, x15

--------------------------------------
01000080:  	00078513    	ADDI   x10, x15, 15
Insns: 00000000000001111000010100010011 at PC_x=01000080

--------------------------------------
01000084:  	01c12083    	LW     x1, 0(x2)
Insns: 00000001110000010010000010000011 at PC_x=01000084

--------------------------------------
01000088:  	01812403    	LW     x8, 28(x2)
Insns: 00000001100000010010010000000011 at PC_x=01000088

--------------------------------------
0100008c:  	02010113    	ADDI   x2, x2, 24
Insns: 00000010000000010000000100010011 at PC_x=0100008c

--------------------------------------
01000090:  	00008067    	JALR   x0, 32(x1)
Insns: 00000000000000001000000001100111 at PC_x=01000090

--------------------------------------
01000078:  	00050793    	ADDI   x15, x10, 0
Insns: 00000000000001010000011110010011 at PC_x=01000078

--------------------------------------
0100007c:  	00f407b3    	ADD    x15, x8, x15

--------------------------------------
01000080:  	00078513    	ADDI   x10, x15, 0
Insns: 00000000000001111000010100010011 at PC_x=01000080

--------------------------------------
01000084:  	01c12083    	LW     x1, 0(x2)
Insns: 00000001110000010010000010000011 at PC_x=01000084

--------------------------------------
01000088:  	01812403    	LW     x8, 28(x2)
Insns: 00000001100000010010010000000011 at PC_x=01000088

--------------------------------------
0100008c:  	02010113    	ADDI   x2, x2, 24
Insns: 00000010000000010000000100010011 at PC_x=0100008c

--------------------------------------
01000090:  	00008067    	JALR   x0, 32(x1)
Insns: 00000000000000001000000001100111 at PC_x=01000090

--------------------------------------
01000064:  	00050413    	ADDI   x8, x10, 0
Insns: 00000000000001010000010000010011 at PC_x=01000064

--------------------------------------
01000068:  	00c12783    	LW     x15, 0(x2)
Insns: 00000000110000010010011110000011 at PC_x=01000068

--------------------------------------
0100006c:  	ffe78793    	ADDI   x15, x15, 12
Insns: 11111111111001111000011110010011 at PC_x=0100006c

--------------------------------------
01000070:  	00078513    	ADDI   x10, x15, 4294967294
Insns: 00000000000001111000010100010011 at PC_x=01000070

--------------------------------------
01000074:  	fbdff0ef    	JAL    x1, 1000074

--------------------------------------
01000030:  	fe010113    	ADDI   x2, x2, 4294967228
Insns: 11111110000000010000000100010011 at PC_x=01000030

--------------------------------------
01000034:  	00112e23    	SW     x1, 4294967264(x2)

--------------------------------------
01000038:  	00812c23    	SW     x8, 28(x2)

--------------------------------------
0100003c:  	00a12623    	SW     x10, 24(x2)

--------------------------------------
01000040:  	00c12703    	LW     x14, 12(x2)
Insns: 00000000110000010010011100000011 at PC_x=01000040

--------------------------------------
01000044:  	00100793    	ADDI   x15, x0, 12
Insns: 00000000000100000000011110010011 at PC_x=01000044

--------------------------------------
01000048:  	00e7c663    	BLT    x15, x14, 1000049

--------------------------------------
01000054:  	00c12783    	LW     x15, 12(x2)
Insns: 00000000110000010010011110000011 at PC_x=01000054

--------------------------------------
01000058:  	fff78793    	ADDI   x15, x15, 12
Insns: 11111111111101111000011110010011 at PC_x=01000058

--------------------------------------
0100005c:  	00078513    	ADDI   x10, x15, 4294967295
Insns: 00000000000001111000010100010011 at PC_x=0100005c

--------------------------------------
01000060:  	fd1ff0ef    	JAL    x1, 1000060

--------------------------------------
01000030:  	fe010113    	ADDI   x2, x2, 4294967249
Insns: 11111110000000010000000100010011 at PC_x=01000030

--------------------------------------
01000034:  	00112e23    	SW     x1, 4294967264(x2)

--------------------------------------
01000038:  	00812c23    	SW     x8, 28(x2)

--------------------------------------
0100003c:  	00a12623    	SW     x10, 24(x2)

--------------------------------------
01000040:  	00c12703    	LW     x14, 12(x2)
Insns: 00000000110000010010011100000011 at PC_x=01000040

--------------------------------------
01000044:  	00100793    	ADDI   x15, x0, 12
Insns: 00000000000100000000011110010011 at PC_x=01000044

--------------------------------------
01000048:  	00e7c663    	BLT    x15, x14, 1000049

--------------------------------------
01000054:  	00c12783    	LW     x15, 12(x2)
Insns: 00000000110000010010011110000011 at PC_x=01000054

--------------------------------------
01000058:  	fff78793    	ADDI   x15, x15, 12
Insns: 11111111111101111000011110010011 at PC_x=01000058

--------------------------------------
0100005c:  	00078513    	ADDI   x10, x15, 4294967295
Insns: 00000000000001111000010100010011 at PC_x=0100005c

--------------------------------------
01000060:  	fd1ff0ef    	JAL    x1, 1000060

--------------------------------------
01000030:  	fe010113    	ADDI   x2, x2, 4294967248
Insns: 11111110000000010000000100010011 at PC_x=01000030

--------------------------------------
01000034:  	00112e23    	SW     x1, 4294967264(x2)

--------------------------------------
01000038:  	00812c23    	SW     x8, 28(x2)

--------------------------------------
0100003c:  	00a12623    	SW     x10, 24(x2)

--------------------------------------
01000040:  	00c12703    	LW     x14, 12(x2)
Insns: 00000000110000010010011100000011 at PC_x=01000040

--------------------------------------
01000044:  	00100793    	ADDI   x15, x0, 12
Insns: 00000000000100000000011110010011 at PC_x=01000044

--------------------------------------
01000048:  	00e7c663    	BLT    x15, x14, 1000049

--------------------------------------
01000054:  	00c12783    	LW     x15, 12(x2)
Insns: 00000000110000010010011110000011 at PC_x=01000054

--------------------------------------
01000058:  	fff78793    	ADDI   x15, x15, 12
Insns: 11111111111101111000011110010011 at PC_x=01000058

--------------------------------------
0100005c:  	00078513    	ADDI   x10, x15, 4294967295
Insns: 00000000000001111000010100010011 at PC_x=0100005c

--------------------------------------
01000060:  	fd1ff0ef    	JAL    x1, 1000060

--------------------------------------
01000030:  	fe010113    	ADDI   x2, x2, 4294967249
Insns: 11111110000000010000000100010011 at PC_x=01000030

--------------------------------------
01000034:  	00112e23    	SW     x1, 4294967264(x2)

--------------------------------------
01000038:  	00812c23    	SW     x8, 28(x2)

--------------------------------------
0100003c:  	00a12623    	SW     x10, 24(x2)

--------------------------------------
01000040:  	00c12703    	LW     x14, 12(x2)
Insns: 00000000110000010010011100000011 at PC_x=01000040

--------------------------------------
01000044:  	00100793    	ADDI   x15, x0, 12
Insns: 00000000000100000000011110010011 at PC_x=01000044

--------------------------------------
01000048:  	00e7c663    	BLT    x15, x14, 1000049

--------------------------------------
0100004c:  	00c12783    	LW     x15, 12(x2)
Insns: 00000000110000010010011110000011 at PC_x=0100004c

--------------------------------------
01000050:  	0300006f    	JAL    x0, 100005c

--------------------------------------
01000080:  	00078513    	ADDI   x10, x15, 48
Insns: 00000000000001111000010100010011 at PC_x=01000080

--------------------------------------
01000084:  	01c12083    	LW     x1, 0(x2)
Insns: 00000001110000010010000010000011 at PC_x=01000084

--------------------------------------
01000088:  	01812403    	LW     x8, 28(x2)
Insns: 00000001100000010010010000000011 at PC_x=01000088

--------------------------------------
0100008c:  	02010113    	ADDI   x2, x2, 24
Insns: 00000010000000010000000100010011 at PC_x=0100008c

--------------------------------------
01000090:  	00008067    	JALR   x0, 32(x1)
Insns: 00000000000000001000000001100111 at PC_x=01000090

--------------------------------------
01000064:  	00050413    	ADDI   x8, x10, 0
Insns: 00000000000001010000010000010011 at PC_x=01000064

--------------------------------------
01000068:  	00c12783    	LW     x15, 0(x2)
Insns: 00000000110000010010011110000011 at PC_x=01000068

--------------------------------------
0100006c:  	ffe78793    	ADDI   x15, x15, 12
Insns: 11111111111001111000011110010011 at PC_x=0100006c

--------------------------------------
01000070:  	00078513    	ADDI   x10, x15, 4294967294
Insns: 00000000000001111000010100010011 at PC_x=01000070

--------------------------------------
01000074:  	fbdff0ef    	JAL    x1, 1000074

--------------------------------------
01000030:  	fe010113    	ADDI   x2, x2, 4294967228
Insns: 11111110000000010000000100010011 at PC_x=01000030

--------------------------------------
01000034:  	00112e23    	SW     x1, 4294967264(x2)

--------------------------------------
01000038:  	00812c23    	SW     x8, 28(x2)

--------------------------------------
0100003c:  	00a12623    	SW     x10, 24(x2)

--------------------------------------
01000040:  	00c12703    	LW     x14, 12(x2)
Insns: 00000000110000010010011100000011 at PC_x=01000040

--------------------------------------
01000044:  	00100793    	ADDI   x15, x0, 12
Insns: 00000000000100000000011110010011 at PC_x=01000044

--------------------------------------
01000048:  	00e7c663    	BLT    x15, x14, 1000049

--------------------------------------
0100004c:  	00c12783    	LW     x15, 12(x2)
Insns: 00000000110000010010011110000011 at PC_x=0100004c

--------------------------------------
01000050:  	0300006f    	JAL    x0, 100005c

--------------------------------------
01000080:  	00078513    	ADDI   x10, x15, 48
Insns: 00000000000001111000010100010011 at PC_x=01000080

--------------------------------------
01000084:  	01c12083    	LW     x1, 0(x2)
Insns: 00000001110000010010000010000011 at PC_x=01000084

--------------------------------------
01000088:  	01812403    	LW     x8, 28(x2)
Insns: 00000001100000010010010000000011 at PC_x=01000088

--------------------------------------
0100008c:  	02010113    	ADDI   x2, x2, 24
Insns: 00000010000000010000000100010011 at PC_x=0100008c

--------------------------------------
01000090:  	00008067    	JALR   x0, 32(x1)
Insns: 00000000000000001000000001100111 at PC_x=01000090

--------------------------------------
01000078:  	00050793    	ADDI   x15, x10, 0
Insns: 00000000000001010000011110010011 at PC_x=01000078

--------------------------------------
0100007c:  	00f407b3    	ADD    x15, x8, x15

--------------------------------------
01000080:  	00078513    	ADDI   x10, x15, 0
Insns: 00000000000001111000010100010011 at PC_x=01000080

--------------------------------------
01000084:  	01c12083    	LW     x1, 0(x2)
Insns: 00000001110000010010000010000011 at PC_x=01000084

--------------------------------------
01000088:  	01812403    	LW     x8, 28(x2)
Insns: 00000001100000010010010000000011 at PC_x=01000088

--------------------------------------
0100008c:  	02010113    	ADDI   x2, x2, 24
Insns: 00000010000000010000000100010011 at PC_x=0100008c

--------------------------------------
01000090:  	00008067    	JALR   x0, 32(x1)
Insns: 00000000000000001000000001100111 at PC_x=01000090

--------------------------------------
01000064:  	00050413    	ADDI   x8, x10, 0
Insns: 00000000000001010000010000010011 at PC_x=01000064

--------------------------------------
01000068:  	00c12783    	LW     x15, 0(x2)
Insns: 00000000110000010010011110000011 at PC_x=01000068

--------------------------------------
0100006c:  	ffe78793    	ADDI   x15, x15, 12
Insns: 11111111111001111000011110010011 at PC_x=0100006c

--------------------------------------
01000070:  	00078513    	ADDI   x10, x15, 4294967294
Insns: 00000000000001111000010100010011 at PC_x=01000070

--------------------------------------
01000074:  	fbdff0ef    	JAL    x1, 1000074

--------------------------------------
01000030:  	fe010113    	ADDI   x2, x2, 4294967228
Insns: 11111110000000010000000100010011 at PC_x=01000030

--------------------------------------
01000034:  	00112e23    	SW     x1, 4294967264(x2)

--------------------------------------
01000038:  	00812c23    	SW     x8, 28(x2)

--------------------------------------
0100003c:  	00a12623    	SW     x10, 24(x2)

--------------------------------------
01000040:  	00c12703    	LW     x14, 12(x2)
Insns: 00000000110000010010011100000011 at PC_x=01000040

--------------------------------------
01000044:  	00100793    	ADDI   x15, x0, 12
Insns: 00000000000100000000011110010011 at PC_x=01000044

--------------------------------------
01000048:  	00e7c663    	BLT    x15, x14, 1000049

--------------------------------------
0100004c:  	00c12783    	LW     x15, 12(x2)
Insns: 00000000110000010010011110000011 at PC_x=0100004c

--------------------------------------
01000050:  	0300006f    	JAL    x0, 100005c

--------------------------------------
01000080:  	00078513    	ADDI   x10, x15, 48
Insns: 00000000000001111000010100010011 at PC_x=01000080

--------------------------------------
01000084:  	01c12083    	LW     x1, 0(x2)
Insns: 00000001110000010010000010000011 at PC_x=01000084

--------------------------------------
01000088:  	01812403    	LW     x8, 28(x2)
Insns: 00000001100000010010010000000011 at PC_x=01000088

--------------------------------------
0100008c:  	02010113    	ADDI   x2, x2, 24
Insns: 00000010000000010000000100010011 at PC_x=0100008c

--------------------------------------
01000090:  	00008067    	JALR   x0, 32(x1)
Insns: 00000000000000001000000001100111 at PC_x=01000090

--------------------------------------
01000078:  	00050793    	ADDI   x15, x10, 0
Insns: 00000000000001010000011110010011 at PC_x=01000078

--------------------------------------
0100007c:  	00f407b3    	ADD    x15, x8, x15

--------------------------------------
01000080:  	00078513    	ADDI   x10, x15, 0
Insns: 00000000000001111000010100010011 at PC_x=01000080

--------------------------------------
01000084:  	01c12083    	LW     x1, 0(x2)
Insns: 00000001110000010010000010000011 at PC_x=01000084

--------------------------------------
01000088:  	01812403    	LW     x8, 28(x2)
Insns: 00000001100000010010010000000011 at PC_x=01000088

--------------------------------------
0100008c:  	02010113    	ADDI   x2, x2, 24
Insns: 00000010000000010000000100010011 at PC_x=0100008c

--------------------------------------
01000090:  	00008067    	JALR   x0, 32(x1)
Insns: 00000000000000001000000001100111 at PC_x=01000090

--------------------------------------
01000064:  	00050413    	ADDI   x8, x10, 0
Insns: 00000000000001010000010000010011 at PC_x=01000064

--------------------------------------
01000068:  	00c12783    	LW     x15, 0(x2)
Insns: 00000000110000010010011110000011 at PC_x=01000068

--------------------------------------
0100006c:  	ffe78793    	ADDI   x15, x15, 12
Insns: 11111111111001111000011110010011 at PC_x=0100006c

--------------------------------------
01000070:  	00078513    	ADDI   x10, x15, 4294967294
Insns: 00000000000001111000010100010011 at PC_x=01000070

--------------------------------------
01000074:  	fbdff0ef    	JAL    x1, 1000074

--------------------------------------
01000030:  	fe010113    	ADDI   x2, x2, 4294967228
Insns: 11111110000000010000000100010011 at PC_x=01000030

--------------------------------------
01000034:  	00112e23    	SW     x1, 4294967264(x2)

--------------------------------------
01000038:  	00812c23    	SW     x8, 28(x2)

--------------------------------------
0100003c:  	00a12623    	SW     x10, 24(x2)

--------------------------------------
01000040:  	00c12703    	LW     x14, 12(x2)
Insns: 00000000110000010010011100000011 at PC_x=01000040

--------------------------------------
01000044:  	00100793    	ADDI   x15, x0, 12
Insns: 00000000000100000000011110010011 at PC_x=01000044

--------------------------------------
01000048:  	00e7c663    	BLT    x15, x14, 1000049

--------------------------------------
01000054:  	00c12783    	LW     x15, 12(x2)
Insns: 00000000110000010010011110000011 at PC_x=01000054

--------------------------------------
01000058:  	fff78793    	ADDI   x15, x15, 12
Insns: 11111111111101111000011110010011 at PC_x=01000058

--------------------------------------
0100005c:  	00078513    	ADDI   x10, x15, 4294967295
Insns: 00000000000001111000010100010011 at PC_x=0100005c

--------------------------------------
01000060:  	fd1ff0ef    	JAL    x1, 1000060

--------------------------------------
01000030:  	fe010113    	ADDI   x2, x2, 4294967249
Insns: 11111110000000010000000100010011 at PC_x=01000030

--------------------------------------
01000034:  	00112e23    	SW     x1, 4294967264(x2)

--------------------------------------
01000038:  	00812c23    	SW     x8, 28(x2)

--------------------------------------
0100003c:  	00a12623    	SW     x10, 24(x2)

--------------------------------------
01000040:  	00c12703    	LW     x14, 12(x2)
Insns: 00000000110000010010011100000011 at PC_x=01000040

--------------------------------------
01000044:  	00100793    	ADDI   x15, x0, 12
Insns: 00000000000100000000011110010011 at PC_x=01000044

--------------------------------------
01000048:  	00e7c663    	BLT    x15, x14, 1000049

--------------------------------------
0100004c:  	00c12783    	LW     x15, 12(x2)
Insns: 00000000110000010010011110000011 at PC_x=0100004c

--------------------------------------
01000050:  	0300006f    	JAL    x0, 100005c

--------------------------------------
01000080:  	00078513    	ADDI   x10, x15, 48
Insns: 00000000000001111000010100010011 at PC_x=01000080

--------------------------------------
01000084:  	01c12083    	LW     x1, 0(x2)
Insns: 00000001110000010010000010000011 at PC_x=01000084

--------------------------------------
01000088:  	01812403    	LW     x8, 28(x2)
Insns: 00000001100000010010010000000011 at PC_x=01000088

--------------------------------------
0100008c:  	02010113    	ADDI   x2, x2, 24
Insns: 00000010000000010000000100010011 at PC_x=0100008c

--------------------------------------
01000090:  	00008067    	JALR   x0, 32(x1)
Insns: 00000000000000001000000001100111 at PC_x=01000090

--------------------------------------
01000064:  	00050413    	ADDI   x8, x10, 0
Insns: 00000000000001010000010000010011 at PC_x=01000064

--------------------------------------
01000068:  	00c12783    	LW     x15, 0(x2)
Insns: 00000000110000010010011110000011 at PC_x=01000068

--------------------------------------
0100006c:  	ffe78793    	ADDI   x15, x15, 12
Insns: 11111111111001111000011110010011 at PC_x=0100006c

--------------------------------------
01000070:  	00078513    	ADDI   x10, x15, 4294967294
Insns: 00000000000001111000010100010011 at PC_x=01000070

--------------------------------------
01000074:  	fbdff0ef    	JAL    x1, 1000074

--------------------------------------
01000030:  	fe010113    	ADDI   x2, x2, 4294967228
Insns: 11111110000000010000000100010011 at PC_x=01000030

--------------------------------------
01000034:  	00112e23    	SW     x1, 4294967264(x2)

--------------------------------------
01000038:  	00812c23    	SW     x8, 28(x2)

--------------------------------------
0100003c:  	00a12623    	SW     x10, 24(x2)

--------------------------------------
01000040:  	00c12703    	LW     x14, 12(x2)
Insns: 00000000110000010010011100000011 at PC_x=01000040

--------------------------------------
01000044:  	00100793    	ADDI   x15, x0, 12
Insns: 00000000000100000000011110010011 at PC_x=01000044

--------------------------------------
01000048:  	00e7c663    	BLT    x15, x14, 1000049

--------------------------------------
0100004c:  	00c12783    	LW     x15, 12(x2)
Insns: 00000000110000010010011110000011 at PC_x=0100004c

--------------------------------------
01000050:  	0300006f    	JAL    x0, 100005c

--------------------------------------
01000080:  	00078513    	ADDI   x10, x15, 48
Insns: 00000000000001111000010100010011 at PC_x=01000080

--------------------------------------
01000084:  	01c12083    	LW     x1, 0(x2)
Insns: 00000001110000010010000010000011 at PC_x=01000084

--------------------------------------
01000088:  	01812403    	LW     x8, 28(x2)
Insns: 00000001100000010010010000000011 at PC_x=01000088

--------------------------------------
0100008c:  	02010113    	ADDI   x2, x2, 24
Insns: 00000010000000010000000100010011 at PC_x=0100008c

--------------------------------------
01000090:  	00008067    	JALR   x0, 32(x1)
Insns: 00000000000000001000000001100111 at PC_x=01000090

--------------------------------------
01000078:  	00050793    	ADDI   x15, x10, 0
Insns: 00000000000001010000011110010011 at PC_x=01000078

--------------------------------------
0100007c:  	00f407b3    	ADD    x15, x8, x15

--------------------------------------
01000080:  	00078513    	ADDI   x10, x15, 0
Insns: 00000000000001111000010100010011 at PC_x=01000080

--------------------------------------
01000084:  	01c12083    	LW     x1, 0(x2)
Insns: 00000001110000010010000010000011 at PC_x=01000084

--------------------------------------
01000088:  	01812403    	LW     x8, 28(x2)
Insns: 00000001100000010010010000000011 at PC_x=01000088

--------------------------------------
0100008c:  	02010113    	ADDI   x2, x2, 24
Insns: 00000010000000010000000100010011 at PC_x=0100008c

--------------------------------------
01000090:  	00008067    	JALR   x0, 32(x1)
Insns: 00000000000000001000000001100111 at PC_x=01000090

--------------------------------------
01000078:  	00050793    	ADDI   x15, x10, 0
Insns: 00000000000001010000011110010011 at PC_x=01000078

--------------------------------------
0100007c:  	00f407b3    	ADD    x15, x8, x15

--------------------------------------
01000080:  	00078513    	ADDI   x10, x15, 15
Insns: 00000000000001111000010100010011 at PC_x=01000080

--------------------------------------
01000084:  	01c12083    	LW     x1, 0(x2)
Insns: 00000001110000010010000010000011 at PC_x=01000084

--------------------------------------
01000088:  	01812403    	LW     x8, 28(x2)
Insns: 00000001100000010010010000000011 at PC_x=01000088

--------------------------------------
0100008c:  	02010113    	ADDI   x2, x2, 24
Insns: 00000010000000010000000100010011 at PC_x=0100008c

--------------------------------------
01000090:  	00008067    	JALR   x0, 32(x1)
Insns: 00000000000000001000000001100111 at PC_x=01000090

--------------------------------------
01000078:  	00050793    	ADDI   x15, x10, 0
Insns: 00000000000001010000011110010011 at PC_x=01000078

--------------------------------------
0100007c:  	00f407b3    	ADD    x15, x8, x15

--------------------------------------
01000080:  	00078513    	ADDI   x10, x15, 0
Insns: 00000000000001111000010100010011 at PC_x=01000080

--------------------------------------
01000084:  	01c12083    	LW     x1, 0(x2)
Insns: 00000001110000010010000010000011 at PC_x=01000084

--------------------------------------
01000088:  	01812403    	LW     x8, 28(x2)
Insns: 00000001100000010010010000000011 at PC_x=01000088

--------------------------------------
0100008c:  	02010113    	ADDI   x2, x2, 24
Insns: 00000010000000010000000100010011 at PC_x=0100008c

--------------------------------------
01000090:  	00008067    	JALR   x0, 32(x1)
Insns: 00000000000000001000000001100111 at PC_x=01000090

--------------------------------------
01000078:  	00050793    	ADDI   x15, x10, 0
Insns: 00000000000001010000011110010011 at PC_x=01000078

--------------------------------------
0100007c:  	00f407b3    	ADD    x15, x8, x15

--------------------------------------
01000080:  	00078513    	ADDI   x10, x15, 15
Insns: 00000000000001111000010100010011 at PC_x=01000080

--------------------------------------
01000084:  	01c12083    	LW     x1, 0(x2)
Insns: 00000001110000010010000010000011 at PC_x=01000084

--------------------------------------
01000088:  	01812403    	LW     x8, 28(x2)
Insns: 00000001100000010010010000000011 at PC_x=01000088

--------------------------------------
0100008c:  	02010113    	ADDI   x2, x2, 24
Insns: 00000010000000010000000100010011 at PC_x=0100008c

--------------------------------------
01000090:  	00008067    	JALR   x0, 32(x1)
Insns: 00000000000000001000000001100111 at PC_x=01000090

--------------------------------------
01000078:  	00050793    	ADDI   x15, x10, 0
Insns: 00000000000001010000011110010011 at PC_x=01000078

--------------------------------------
0100007c:  	00f407b3    	ADD    x15, x8, x15

--------------------------------------
01000080:  	00078513    	ADDI   x10, x15, 0
Insns: 00000000000001111000010100010011 at PC_x=01000080

--------------------------------------
01000084:  	01c12083    	LW     x1, 0(x2)
Insns: 00000001110000010010000010000011 at PC_x=01000084

--------------------------------------
01000088:  	01812403    	LW     x8, 28(x2)
Insns: 00000001100000010010010000000011 at PC_x=01000088

--------------------------------------
0100008c:  	02010113    	ADDI   x2, x2, 24
Insns: 00000010000000010000000100010011 at PC_x=0100008c

--------------------------------------
01000090:  	00008067    	JALR   x0, 32(x1)
Insns: 00000000000000001000000001100111 at PC_x=01000090

--------------------------------------
01000010:  	00a12623    	SW     x10, 0(x2)

--------------------------------------
01000014:  	00c12503    	LW     x10, 12(x2)
Insns: 00000000110000010010010100000011 at PC_x=01000014

--------------------------------------
01000018:  	07c000ef    	JAL    x1, 1000024

--------------------------------------
01000094:  	fe010113    	ADDI   x2, x2, 124
Insns: 11111110000000010000000100010011 at PC_x=01000094

--------------------------------------
01000098:  	00112e23    	SW     x1, 4294967264(x2)

--------------------------------------
0100009c:  	00a12623    	SW     x10, 28(x2)

--------------------------------------
010000a0:  	00c12703    	LW     x14, 12(x2)
Insns: 00000000110000010010011100000011 at PC_x=010000a0

--------------------------------------
010000a4:  	03700793    	ADDI   x15, x0, 12
Insns: 00000011011100000000011110010011 at PC_x=010000a4

--------------------------------------
010000a8:  	00f71863    	BNE    x14, x15, 10000df

--------------------------------------
010000ac:  	024000ef    	JAL    x1, 10000bc

--------------------------------------
010000d0:  	00100793    	ADDI   x15, x0, 36
Insns: 00000000000100000000011110010011 at PC_x=010000d0

--------------------------------------
010000d4:  	00078513    	ADDI   x10, x15, 1
Insns: 00000000000001111000010100010011 at PC_x=010000d4

--------------------------------------
010000d8:  	00008067    	JALR   x0, 0(x1)
Insns: 00000000000000001000000001100111 at PC_x=010000d8

--------------------------------------
010000b0:  	00050793    	ADDI   x15, x10, 0
Insns: 00000000000001010000011110010011 at PC_x=010000b0

--------------------------------------
010000b4:  	00c0006f    	JAL    x0, 10000b4

--------------------------------------
010000c0:  	00078513    	ADDI   x10, x15, 12
Insns: 00000000000001111000010100010011 at PC_x=010000c0

--------------------------------------
010000c4:  	01c12083    	LW     x1, 0(x2)
Insns: 00000001110000010010000010000011 at PC_x=010000c4

--------------------------------------
010000c8:  	02010113    	ADDI   x2, x2, 28
Insns: 00000010000000010000000100010011 at PC_x=010000c8

--------------------------------------
010000cc:  	00008067    	JALR   x0, 32(x1)
Insns: 00000000000000001000000001100111 at PC_x=010000cc

--------------------------------------
0100001c:  	00050793    	ADDI   x15, x10, 0
Insns: 00000000000001010000011110010011 at PC_x=0100001c

--------------------------------------
01000020:  	00078513    	ADDI   x10, x15, 0
Insns: 00000000000001111000010100010011 at PC_x=01000020

--------------------------------------
01000024:  	01c12083    	LW     x1, 0(x2)
Insns: 00000001110000010010000010000011 at PC_x=01000024

--------------------------------------
01000028:  	02010113    	ADDI   x2, x2, 28
Insns: 00000010000000010000000100010011 at PC_x=01000028

--------------------------------------
0100002c:  	00008067    	JALR   x0, 32(x1)
Insns: 00000000000000001000000001100111 at PC_x=0100002c

--------------------------------------
Exiting: Instruction memory returned out of range
00000000:  	badbadff    	 error

--------------------------------------

--------------------------------------
SimpleAdd.x
