BubbleSort.x
WARNING: components/memory.v:43: $readmemh(temp.x): Not enough words in the file for the requested range [0:262143].
Memory at 010002c4: 00000000
WARNING: components/memory.v:43: $readmemh(temp.x): Not enough words in the file for the requested range [0:262143].
Memory at 010002c4: 00000000
VCD info: dumpfile testbench.vcd opened for output.
01000000:  	fd010113    	ADDI   xx, xx, x

--------------------------------------
Error in ALU mux
Error in ALU mux
Error in ALU mux
01000004:  	02112623    	SW     x16, 4294967248(x2)

--------------------------------------
01000008:  	010007b7    	LUI    x12, 0x2c

--------------------------------------
LUIOP
0100000c:  	2487a883    	LW     x15, 16777216(x0)

--------------------------------------
01000010:  	24878713    	ADDI   x17, x15, 584

--------------------------------------
01000014:  	00472803    	LW     x14, 584(x15)

--------------------------------------
01000018:  	24878713    	ADDI   x16, x14, 4

--------------------------------------
0100001c:  	00872503    	LW     x14, 584(x15)

--------------------------------------
01000020:  	24878713    	ADDI   x10, x14, 8

--------------------------------------
01000024:  	00c72583    	LW     x14, 584(x15)

--------------------------------------
01000028:  	24878713    	ADDI   x11, x14, 12

--------------------------------------
0100002c:  	01072603    	LW     x14, 584(x15)

--------------------------------------
01000030:  	24878713    	ADDI   x12, x14, 16

--------------------------------------
01000034:  	01472683    	LW     x14, 584(x15)

--------------------------------------
01000038:  	24878713    	ADDI   x13, x14, 20

--------------------------------------
0100003c:  	01872703    	LW     x14, 584(x15)

--------------------------------------
01000040:  	24878793    	ADDI   x14, x14, 24

--------------------------------------
01000044:  	01c7a783    	LW     x15, 584(x15)

--------------------------------------
01000048:  	01112023    	SW     x28, 28(x15)

--------------------------------------
0100004c:  	01012223    	SW     x17, 0(x2)

--------------------------------------
01000050:  	00a12423    	SW     x16, 4(x2)

--------------------------------------
01000054:  	00b12623    	SW     x10, 8(x2)

--------------------------------------
01000058:  	00c12823    	SW     x11, 12(x2)

--------------------------------------
0100005c:  	00d12a23    	SW     x12, 16(x2)

--------------------------------------
01000060:  	00e12c23    	SW     x13, 20(x2)

--------------------------------------
01000064:  	00f12e23    	SW     x14, 24(x2)

--------------------------------------
01000068:  	00010793    	ADDI   x28, x2, 28

--------------------------------------
0100006c:  	00800593    	ADDI   x15, x2, 0

--------------------------------------
01000070:  	00078513    	ADDI   x11, x0, 8

--------------------------------------
01000074:  	024000ef    	JAL    x10, 1000074

--------------------------------------
01000098:  	fe010113    	ADDI   x1, x0, 36

--------------------------------------
0100009c:  	00a12623    	SW     x0, 4294967264(x2)

--------------------------------------
010000a0:  	00b12423    	SW     x10, 12(x2)

--------------------------------------
010000a4:  	00012e23    	SW     x11, 8(x2)

--------------------------------------
010000a8:  	0e40006f    	JAL    x28, 10000c4

--------------------------------------
0100018c:  	01c12703    	LW     x0, 228(x0)

--------------------------------------
01000190:  	00812783    	LW     x14, 28(x2)

--------------------------------------
01000194:  	f0f74ce3    	BLT    x2, x8, 100019c

--------------------------------------
01000198:  	00000013    	ADDI   x25, x14, 4294967064

--------------------------------------
0100019c:  	02010113    	ADDI   x0, x0, 0

--------------------------------------
010001a0:  	00008067    	JALR   x2, 32(x2)

--------------------------------------
01000078:  	00010793    	ADDI   x0, x1, 0

--------------------------------------
0100007c:  	00078513    	ADDI   x15, x2, 0

--------------------------------------
01000080:  	124000ef    	JAL    x10, 1000080

--------------------------------------
010001a4:  	fd010113    	ADDI   x1, x0, 292

--------------------------------------
010001a8:  	02112623    	SW     x16, 4294967248(x2)

--------------------------------------
010001ac:  	00a12623    	SW     x1, 44(x2)

--------------------------------------
010001b0:  	00100793    	ADDI   x12, x2, 12

--------------------------------------
010001b4:  	00f12c23    	SW     x1, 1(x0)

--------------------------------------
010001b8:  	00012e23    	SW     x15, 24(x2)

--------------------------------------
010001c0:  	04c0006f    	JAL    x28, 10001dc

--------------------------------------
0100020c:  	01c12703    	LW     x0, 76(x0)

--------------------------------------
01000210:  	00600793    	ADDI   x14, x2, 28

--------------------------------------
01000214:  	fae7d8e3    	BGE    x0, x6, 100021a

--------------------------------------
01000218:  	018000ef    	JAL    x17, 10001c8

--------------------------------------
01000230:  	00100793    	ADDI   x1, x0, 24

--------------------------------------
01000234:  	00078513    	ADDI   x15, x0, 1

--------------------------------------
01000238:  	00008067    	JALR   x10, 0(x15)

--------------------------------------
0100021c:  	00050793    	ADDI   x0, x1, 0

--------------------------------------
01000220:  	00078513    	ADDI   x15, x10, 0

--------------------------------------
01000224:  	02c12083    	LW     x10, 0(x15)

--------------------------------------
01000228:  	03010113    	ADDI   x1, x2, 44

--------------------------------------
0100022c:  	00008067    	JALR   x2, 48(x2)

--------------------------------------
Exiting: Instruction memory returned out of range
xxxxxxxX:  	badbadff    	 error

--------------------------------------
CheckVowel.x
WARNING: components/memory.v:43: $readmemh(temp.x): Not enough words in the file for the requested range [0:262143].
Memory at 010002c4: 00000000
WARNING: components/memory.v:43: $readmemh(temp.x): Not enough words in the file for the requested range [0:262143].
Memory at 010002c4: 00000000
VCD info: dumpfile testbench.vcd opened for output.
01000000:  	fd010113    	ADDI   xx, xx, x

--------------------------------------
Error in ALU mux
Error in ALU mux
Error in ALU mux
01000004:  	02112623    	SW     x16, 4294967248(x2)

--------------------------------------
01000008:  	00012e23    	SW     x1, 44(x2)

--------------------------------------
0100000c:  	00012c23    	SW     x0, 28(x2)

--------------------------------------
01000010:  	010007b7    	LUI    x24, 0x18

--------------------------------------
LUIOP
01000014:  	1e87a603    	LW     x15, 16777216(x0)

--------------------------------------
01000018:  	1e878713    	ADDI   x12, x15, 488

--------------------------------------
0100001c:  	00472683    	LW     x14, 488(x15)

--------------------------------------
01000020:  	1e878713    	ADDI   x13, x14, 4

--------------------------------------
01000024:  	00872703    	LW     x14, 488(x15)

--------------------------------------
01000028:  	00c12223    	SW     x8, 8(x14)

--------------------------------------
0100002c:  	00d12423    	SW     x12, 4(x2)

--------------------------------------
01000030:  	00e12623    	SW     x13, 8(x2)

--------------------------------------
01000034:  	1e878793    	ADDI   x12, x2, 12

--------------------------------------
01000038:  	00c7c783    	LBU    x15, 488(x15)

--------------------------------------
0100003c:  	00f10823    	SB     x12, 12(x15)

--------------------------------------
01000040:  	000108a3    	SB     x15, 16(x2)

--------------------------------------
01000044:  	00010923    	SB     x0, 17(x2)

--------------------------------------
01000048:  	000109a3    	SB     x0, 18(x2)

--------------------------------------
0100004c:  	00010a23    	SB     x0, 19(x2)

--------------------------------------
01000050:  	00010aa3    	SB     x0, 20(x2)

--------------------------------------
01000054:  	00010b23    	SB     x0, 21(x2)

--------------------------------------
01000058:  	00010ba3    	SB     x0, 22(x2)

--------------------------------------
0100005c:  	00012e23    	SW     x0, 23(x2)

--------------------------------------
01000060:  	10c0006f    	JAL    x28, 100007c

--------------------------------------
0100016c:  	01c12703    	LW     x0, 268(x0)

--------------------------------------
01000170:  	01300793    	ADDI   x14, x2, 28

--------------------------------------
01000174:  	eee7d8e3    	BGE    x0, x19, 1000187

--------------------------------------
01000178:  	01812503    	LW     x17, 4294967024(x15)

--------------------------------------
0100017c:  	018000ef    	JAL    x10, 1000194

--------------------------------------
01000194:  	fe010113    	ADDI   x1, x0, 24

--------------------------------------
01000198:  	00112e23    	SW     x0, 4294967264(x2)

--------------------------------------
0100019c:  	00a12623    	SW     x1, 28(x2)

--------------------------------------
010001a0:  	00c12703    	LW     x12, 12(x2)

--------------------------------------
010001a4:  	00300793    	ADDI   x14, x2, 12

--------------------------------------
010001a8:  	00f71863    	BNE    x0, x3, 10001ab

--------------------------------------
010001ac:  	024000ef    	JAL    x16, 10001bc

--------------------------------------
010001d0:  	00100793    	ADDI   x1, x0, 36

--------------------------------------
010001d4:  	00078513    	ADDI   x15, x0, 1

--------------------------------------
010001d8:  	00008067    	JALR   x10, 0(x15)

--------------------------------------
010001b0:  	00050793    	ADDI   x0, x1, 0

--------------------------------------
010001b4:  	00c0006f    	JAL    x15, 10001b4

--------------------------------------
010001c0:  	00078513    	ADDI   x0, x0, 12

--------------------------------------
010001c4:  	01c12083    	LW     x10, 0(x15)

---------Fibonacci.x
WARNING: components/memory.v:43: $readmemh(temp.x): Not enough words in the file for the requested range [0:262143].
Memory at 010002c4: 00000000
WARNING: components/memory.v:43: $readmemh(temp.x): Not enough words in the file for the requested range [0:262143].
Memory at 010002c4: 00000000
VCD info: dumpfile testbench.vcd opened for output.
01000000:  	fe010113    	ADDI   xx, xx, x

--------------------------------------
Error in ALU mux
Error in ALU mux
Error in ALU mux
01000004:  	00112e23    	SW     x0, 4294967264(x2)

--------------------------------------
01000008:  	00a00513    	ADDI   x28, x2, 28

--------------------------------------
0100000c:  	024000ef    	JAL    x10, 1000016

--------------------------------------
01000030:  	fe010113    	ADDI   x1, x0, 36

--------------------------------------
01000034:  	00112e23    	SW     x0, 4294967264(x2)

--------------------------------------
01000038:  	00812c23    	SW     x1, 28(x2)

--------------------------------------
0100003c:  	00a12623    	SW     x8, 24(x2)

--------------------------------------
01000040:  	00c12703    	LW     x12, 12(x2)

--------------------------------------
01000044:  	00100793    	ADDI   x14, x2, 12

--------------------------------------
01000048:  	00e7c663    	BLT    x0, x1, 1000049

--------------------------------------
0100004c:  	00c12783    	LW     x12, 12(x15)

--------------------------------------
01000050:  	0300006f    	JAL    x15, 100005c

--------------------------------------
01000080:  	00078513    	ADDI   x0, x0, 48

--------------------------------------
01000084:  	01c12083    	LW     x10, 0(x15)

--------------------------------------
01000088:  	01812403    	LW     x1, 28(x2)

--------------------------------------
0100008c:  	02010113    	ADDI   x8, x2, 24

--------------------------------------
01000090:  	00008067    	JALR   x2, 32(x2)

--------------------------------------
Exiting: Instruction memory returned out of range
xxxxxxxX:  	badbadff    	 error

--------------------------------------
SimpleAdd.x
WARNING: components/memory.v:43: $readmemh(temp.x): Not enough words in the file for the requested range [0:262143].
Memory at 010002c4: 00000000
WARNING: components/memory.v:43: $readmemh(temp.x): Not enough words in the file for the requested range [0:262143].
Memory at 010002c4: 00000000
VCD info: dumpfile testbench.vcd opened for output.
01000000:  	fe010113    	ADDI   xx, xx, x

--------------------------------------
Error in ALU mux
Error in ALU mux
Error in ALU mux
01000004:  	00112e23    	SW     x0, 4294967264(x2)

--------------------------------------
01000008:  	00300793    	ADDI   x28, x2, 28

--------------------------------------
0100000c:  	00f12623    	SW     x3, 3(x0)

--------------------------------------
01000010:  	00200793    	ADDI   x12, x2, 12

--------------------------------------
01000014:  	00f12423    	SW     x2, 2(x0)

--------------------------------------
01000018:  	00012223    	SW     x15, 8(x2)

--------------------------------------
0100001c:  	00c12703    	LW     x4, 4(x2)

--------------------------------------
01000020:  	00812783    	LW     x14, 12(x2)

--------------------------------------
01000024:  	00f707b3    	ADD    x15, x2, x8

--------------------------------------
01000028:  	00f12223    	SW     x15, 15(x14)

--------------------------------------
0100002c:  	00412503    	LW     x4, 4(x2)

--------------------------------------
01000030:  	018000ef    	JAL    x10, 1000034

--------------------------------------
01000048:  	fe010113    	ADDI   x1, x0, 24

--------------------------------------
0100004c:  	00112e23    	SW     x0, 4294967264(x2)

--------------------------------------
01000050:  	00a12623    	SW     x1, 28(x2)

--------------------------------------
01000054:  	00c12703    	LW     x12, 12(x2)

--------------------------------------
01000058:  	00500793    	ADDI   x14, x2, 12

--------------------------------------
0100005c:  	00f71863    	BNE    x0, x5, 1000061

--------------------------------------
01000060:  	024000ef    	JAL    x16, 1000070

--------------------------------------
01000084:  	00100793    	ADDI   x1, x0, 36

--------------------------------------
01000088:  	00078513    	ADDI   x15, x0, 1

--------------------------------------
0100008c:  	00008067    	JALR   x10, 0(x15)

--------------------------------------
01000064:  	00050793    	ADDI   x0, x1, 0

--------------------------------------
01000068:  	00c0006f    	JAL    x15, 1000068

--------------------------------------
01000074:  	00078513    	ADDI   x0, x0, 12

--------------------------------------
01000078:  	01c12083    	LW     x10, 0(x15)

--------------------------------------
0100007c:  	02010113    	ADDI   x1, x2, 28

--------------------------------------
01000080:  	00008067    	JALR   x2, 32(x2)

--------------------------------------
Exiting: Instruction memory returned out of range
xxxxxxxX:  	badbadff    	 error

--------------------------------------
SimpleIf.x
WARNING: components/memory.v:43: $readmemh(temp.x): Not enough words in the file for the requested range [0:262143].
Memory at 010002c4: 00000000
WARNING: components/memory.v:43: $readmemh(temp.x): Not enough words in the file for the requested range [0:262143].
Memory at 010002c4: 00000000
VCD info: dumpfile testbench.vcd opened for output.
01000000:  	fe010113    	ADDI   xx, xx, x

--------------------------------------
Error in ALU mux
Error in ALU mux
Error in ALU mux
01000004:  	00112e23    	SW     x0, 4294967264(x2)

--------------------------------------
01000008:  	00300793    	ADDI   x28, x2, 28

--------------------------------------
0100000c:  	00f12623    	SW     x3, 3(x0)

--------------------------------------
01000010:  	00200793    	ADDI   x12, x2, 12

--------------------------------------
01000014:  	00f12423    	SW     x2, 2(x0)

--------------------------------------
01000018:  	00012223    	SW     x15, 8(x2)

--------------------------------------
0100001c:  	00c12703    	LW     x4, 4(x2)

--------------------------------------
01000020:  	00400793    	ADDI   x14, x2, 12

--------------------------------------
01000024:  	00e7cc63    	BLT    x0, x4, 1000028

--------------------------------------
01000028:  	00c12703    	LW     x24, 24(x15)

--------------------------------------
0100002c:  	00812783    	LW     x14, 12(x2)

--------------------------------------
01000030:  	00f707b3    	ADD    x15, x2, x8

--------------------------------------
01000034:  	00f12623    	SW     x15, 15(x14)

--------------------------------------
01000038:  	0140006f    	JAL    x12, 1000044

--------------------------------------
0100004c:  	00c12703    	LW     x0, 20(x0)

--------------------------------------
01000050:  	00812783    	LW     x14, 12(x2)

--------------------------------------
01000054:  	00f707b3    	ADD    x15, x2, x8

--------------------------------------
01000058:  	00f12223    	SW     x15, 15(x14)

--------------------------------------
0100005c:  	00412503    	LW     x4, 4(x2)

--------------------------------------
01000060:  	018000ef    	JAL    x10, 1000064

--------------------------------------
01000078:  	fe010113    	ADDI   x1, x0, 24

--------------------------------------
0100007c:  	00112e23    	SW     x0, 4294967264(x2)

--------------------------------------
01000080:  	00a12623    	SW     x1, 28(x2)

--------------------------------------
01000084:  	00c12703    	LW     x12, 12(x2)

--------------------------------------
01000088:  	00700793    	ADDI   x14, x2, 12

--------------------------------------
0100008c:  	00f71863    	BNE    x0, x7, 1000093

--------------------------------------
01000090:  	024000ef    	JAL    x16, 10000a0

--------------------------------------
010000b4:  	00100793    	ADDI   x1, x0, 36

--------------------------------------
010000b8:  	00078513    	ADDI   x15, x0, 1

--------------------------------------
010000bc:  	00008067    	JALR   x10, 0(x15)

--------------------------------------
01000094:  	00050793    	ADDI   x0, x1, 0

--------------------------------------
01000098:  	00c0006f    	JAL    x15, 1000098

--------------------------------------
010000a4:  	00078513    	ADDI   x0, x0, 12

--------------------------------------
010000a8:  	01c12083    	LW     x10, 0(x15)

--------------------------------------
010000ac:  	02010113    	ADDI   x1, x2, 28

--------------------------------------
010000b0:  	00008067    	JALR   x2, 32(x2)

--------------------------------------
Exiting: Instruction memory returned out of range
xxxxxxxX:  	badbadff    	 error

--------------------------------------
SumArray.x
WARNING: components/memory.v:43: $readmemh(temp.x): Not enough words in the file for the requested range [0:262143].
Memory at 010002c4: 00000000
WARNING: components/memory.v:43: $readmemh(temp.x): Not enough words in the file for the requested range [0:262143].
Memory at 010002c4: 00000000
VCD info: dumpfile testbench.vcd opened for output.
01000000:  	fc010113    	ADDI   xx, xx, x

--------------------------------------
Error in ALU mux
Error in ALU mux
Error in ALU mux
01000004:  	02112e23    	SW     x0, 4294967232(x2)

--------------------------------------
01000008:  	02012623    	SW     x1, 60(x2)

--------------------------------------
0100000c:  	02012423    	SW     x0, 44(x2)

--------------------------------------
01000010:  	02012623    	SW     x0, 40(x2)

--------------------------------------
01000014:  	0280006f    	JAL    x12, 1000040

--------------------------------------
0100003c:  	02c12703    	LW     x0, 40(x0)

--------------------------------------
01000040:  	00900793    	ADDI   x14, x2, 44

--------------------------------------
01000044:  	fce7dae3    	BGE    x0, x9, 100004d

--------------------------------------
01000048:  	02012623    	SW     x14, 4294967252(x15)

--------------------------------------
0100004c:  	0300006f    	JAL    x12, 1000078

--------------------------------------
0100007c:  	02c12703    	LW     x0, 48(x0)

--------------------------------------
01000080:  	00900793    	ADDI   x14, x2, 44

--------------------------------------
01000084:  	fce7d6e3    	BGE    x0, x9, 100008d

--------------------------------------
01000088:  	02812503    	LW     x13, 4294967244(x15)

--------------------------------------
0100008c:  	018000ef    	JAL    x10, 10000b4

--------------------------------------
010000a4:  	fe010113    	ADDI   x1, x0, 24

--------------------------------------
010000a8:  	00112e23    	SW     x0, 4294967264(x2)

--------------------------------------
010000ac:  	00a12623    	SW     x1, 28(x2)

--------------------------------------
010000b0:  	00c12703    	LW     x12, 12(x2)

--------------------------------------
010000b4:  	02d00793    	ADDI   x14, x2, 12

--------------------------------------
010000b8:  	00f71863    	BNE    x0, x13, 10000e5

--------------------------------------
010000bc:  	024000ef    	JAL    x16, 10000cc

--------------------------------------
010000e0:  	00100793    	ADDI   x1, x0, 36

--------------------------------------
010000e4:  	00078513    	ADDI   x15, x0, 1

--------------------------------------
010000e8:  	00008067    	JALR   x10, 0(x15)

--------------------------------------
010000c0:  	00050793    	ADDI   x0, x1, 0

--------------------------------------
010000c4:  	00c0006f    	JAL    x15, 10000c4

--------------------------------------
010000d0:  	00078513    	ADDI   x0, x0, 12

--------------------------------------
010000d4:  	01c12083    	LW     x10, 0(x15)

--------------------------------------
010000d8:  	02010113    	ADDI   x1, x2, 28

--------------------------------------
010000dc:  	00008067    	JALR   x2, 32(x2)

--------------------------------------
Exiting: Instruction memory returned out of range
xxxxxxxX:  	badbadff    	 error

--------------------------------------
Swap.x
WARNING: components/memory.v:43: $readmemh(temp.x): Not enough words in the file for the requested range [0:262143].
Memory at 010002c4: 00000000
WARNING: components/memory.v:43: $readmemh(temp.x): Not enough words in the file for the requested range [0:262143].
Memory at 010002c4: 00000000
VCD info: dumpfile testbench.vcd opened for output.
01000000:  	fe010113    	ADDI   xx, xx, x

--------------------------------------
Error in ALU mux
Error in ALU mux
Error in ALU mux
01000004:  	00112e23    	SW     x0, 4294967264(x2)

--------------------------------------
01000008:  	00500793    	ADDI   x28, x2, 28

--------------------------------------
0100000c:  	00f12223    	SW     x5, 5(x0)

--------------------------------------
01000010:  	00900793    	ADDI   x4, x2, 4

--------------------------------------
01000014:  	00f12023    	SW     x9, 9(x0)

--------------------------------------
01000018:  	00410793    	ADDI   x0, x2, 0

--------------------------------------
0100001c:  	00f12623    	SW     x4, 4(x2)

--------------------------------------
01000020:  	00010793    	ADDI   x12, x2, 12

--------------------------------------
01000024:  	00f12423    	SW     x0, 0(x2)

--------------------------------------
01000028:  	00812583    	LW     x8, 8(x2)

--------------------------------------
0100002c:  	00c12503    	LW     x11, 8(x2)

--------------------------------------
01000030:  	044000ef    	JAL    x10, 100003c

--------------------------------------
01000074:  	fe010113    	ADDI   x1, x0, 68

--------------------------------------
01000078:  	00a12623    	SW     x0, 4294967264(x2)

--------------------------------------
0100007c:  	00b12423    	SW     x10, 12(x2)

--------------------------------------
01000080:  	00c12783    	LW     x8, 8(x2)

--------------------------------------
01000084:  	0007a783    	LW     x15, 12(x2)

--------------------------------------
01000088:  	00f12e23    	SW     x0, 0(x15)

--------------------------------------
0100008c:  	00812783    	LW     x28, 28(x2)

--------------------------------------
01000090:  	0007a703    	LW     x15, 8(x2)

--------------------------------------
01000094:  	00c12783    	LW     x14, 0(x15)

--------------------------------------
01000098:  	00e7a023    	SW     x12, 12(x2)

--------------------------------------
0100009c:  	00812783    	LW     x0, 0(x15)

--------------------------------------
010000a0:  	01c12703    	LW     x15, 8(x2)

--------------------------------------
010000a4:  	00e7a023    	SW     x28, 28(x2)

--------------------------------------
010000a8:  	00000013    	ADDI   x0, x15, 0

--------------------------------------
010000ac:  	02010113    	ADDI   x0, x0, 0

--------------------------------------
010000b0:  	00008067    	JALR   x2, 32(x2)

--------------------------------------
01000034:  	00c12783    	LW     x0, 0(x1)

--------------------------------------
01000038:  	0007a783    	LW     x15, 12(x2)

--------------------------------------
0100003c:  	00f12223    	SW     x0, 0(x15)

--------------------------------------
01000040:  	00812783    	LW     x4, 4(x2)

--------------------------------------
01000044:  	0007a783    	LW     x15, 8(x2)

--------------------------------------
01000048:  	00f12023    	SW     x0, 0(x15)

--------------------------------------
0100004c:  	00412703    	LW     x0, 0(x2)

--------------------------------------
01000050:  	00012783    	LW     x14, 4(x2)

--------------------------------------
01000054:  	00f707b3    	ADD    x15, x2, x0

--------------------------------------
01000058:  	00078513    	ADDI   x15, x14, 15

--------------------------------------
0100005c:  	058000ef    	JAL    x10, 100005c

--------------------------------------
010000b4:  	fe010113    	ADDI   x1, x0, 88

--------------------------------------
010000b8:  	00112e23    	SW     x0, 4294967264(x2)

--------------------------------------
010000bc:  	00a12623    	SW     x1, 28(x2)

--------------------------------------
010000c0:  	00c12703    	LW     x12, 12(x2)

--------------------------------------
010000c4:  	00e00793    	ADDI   x14, x2, 12

--------------------------------------
010000c8:  	00f71863    	BNE    x0, x14, 10000d6

--------------------------------------
010000cc:  	024000ef    	JAL    x16, 10000dc

--------------------------------------
010000f0:  	00100793    	ADDI   x1, x0, 36

--------------------------------------
010000f4:  	00078513    	ADDI   x15, x0, 1

--------------------------------------
010000f8:  	00008067    	JALR   x10, 0(x15)

--------------------------------------
010000d0:  	00050793    	ADDI   x0, x1, 0

--------------------------------------
010000d4:  	00c0006f    	JAL    x15, 10000d4

--------------------------------------
010000e0:  	00078513    	ADDI   x0, x0, 12

--------------------------------------
010000e4:  	01c12083    	LW     x10, 0(x15)

--------------------------------------
010000e8:  	02010113    	ADDI   x1, x2, 28

--------------------------------------
010000ec:  	00008067    	JALR   x2, 32(x2)

--------------------------------------
Exiting: Instruction memory returned out of range
xxxxxxxX:  	badbadff    	 error

--------------------------------------
SwapShift.x
WARNING: components/memory.v:43: $readmemh(temp.x): Not enough words in the file for the requested range [0:262143].
Memory at 010002c4: 00000000
WARNING: components/memory.v:43: $readmemh(temp.x): Not enough words in the file for the requested range [0:262143].
Memory at 010002c4: 00000000
VCD info: dumpfile testbench.vcd opened for output.
01000000:  	fe010113    	ADDI   xx, xx, x

--------------------------------------
Error in ALU mux
Error in ALU mux
Error in ALU mux
01000004:  	00112e23    	SW     x0, 4294967264(x2)

--------------------------------------
01000008:  	00500793    	ADDI   x28, x2, 28

--------------------------------------
0100000c:  	00f12223    	SW     x5, 5(x0)

--------------------------------------
01000010:  	00900793    	ADDI   x4, x2, 4

--------------------------------------
01000014:  	00f12023    	SW     x9, 9(x0)

--------------------------------------
01000018:  	00012783    	LW     x0, 0(x2)

--------------------------------------
0100001c:  	00279793    	SLLI   x15, x2, 0x0

--------------------------------------
01000020:  	00f12023    	SW     x2, 2(x15)

--------------------------------------
01000024:  	00412783    	LW     x0, 0(x2)

--------------------------------------
01000028:  	4017d793    	SRAI     x15, 2 ,x4)

--------------------------------------
0100002c:  	00f12223    	SW     x1, 1025(x15)

--------------------------------------
01000030:  	00410793    	ADDI   x4, x2, 4

--------------------------------------
01000034:  	00f12623    	SW     x4, 4(x2)

--------------------------------------
01000038:  	00010793    	ADDI   x12, x2, 12

--------------------------------------
0100003c:  	00f12423    	SW     x0, 0(x2)

--------------------------------------
01000040:  	00812583    	LW     x8, 8(x2)

--------------------------------------
01000044:  	00c12503    	LW     x11, 8(x2)

--------------------------------------
01000048:  	044000ef    	JAL    x10, 1000054

--------------------------------------
0100008c:  	fe010113    	ADDI   x1, x0, 68

--------------------------------------
01000090:  	00a12623    	SW     x0, 4294967264(x2)

--------------------------------------
01000094:  	00b12423    	SW     x10, 12(x2)

--------------------------------------
01000098:  	00c12783    	LW     x8, 8(x2)

--------------------------------------
0100009c:  	0007a783    	LW     x15, 12(x2)

--------------------------------------
010000a0:  	00f12e23    	SW     x0, 0(x15)

--------------------------------------
010000a4:  	00812783    	LW     x28, 28(x2)

--------------------------------------
010000a8:  	0007a703    	LW     x15, 8(x2)

--------------------------------------
010000ac:  	00c12783    	LW     x14, 0(x15)

--------------------------------------
010000b0:  	00e7a023    	SW     x12, 12(x2)

--------------------------------------
010000b4:  	00812783    	LW     x0, 0(x15)

--------------------------------------
010000b8:  	01c12703    	LW     x15, 8(x2)

--------------------------------------
010000bc:  	00e7a023    	SW     x28, 28(x2)

--------------------------------------
010000c0:  	00000013    	ADDI   x0, x15, 0

--------------------------------------
010000c4:  	02010113    	ADDI   x0, x0, 0

--------------------------------------
010000c8:  	00008067    	JALR   x2, 32(x2)

--------------------------------------
0100004c:  	00c12783    	LW     x0, 0(x1)

--------------------------------------
01000050:  	0007a783    	LW     x15, 12(x2)

--------------------------------------
01000054:  	00f12223    	SW     x0, 0(x15)

--------------------------------------
01000058:  	00812783    	LW     x4, 4(x2)

--------------------------------------
0100005c:  	0007a783    	LW     x15, 8(x2)

--------------------------------------
01000060:  	00f12023    	SW     x0, 0(x15)

--------------------------------------
01000064:  	00412703    	LW     x0, 0(x2)

--------------------------------------
01000068:  	00012783    	LW     x14, 4(x2)

--------------------------------------
0100006c:  	00f707b3    	ADD    x15, x2, x0

--------------------------------------
01000070:  	00078513    	ADDI   x15, x14, 15

--------------------------------------
01000074:  	058000ef    	JAL    x10, 1000074

--------------------------------------
010000cc:  	fe010113    	ADDI   x1, x0, 88

--------------------------------------
010000d0:  	00112e23    	SW     x0, 4294967264(x2)

--------------------------------------
010000d4:  	00a12623    	SW     x1, 28(x2)

--------------------------------------
010000d8:  	00c12703    	LW     x12, 12(x2)

--------------------------------------
010000dc:  	02600793    	ADDI   x14, x2, 12

--------------------------------------
010000e0:  	00f71863    	BNE    x0, x6, 1000106

--------------------------------------
010000e4:  	024000ef    	JAL    x16, 10000f4

--------------------------------------
01000108:  	00100793    	ADDI   x1, x0, 36

--------------------------------------
0100010c:  	00078513    	ADDI   x15, x0, 1

--------------------------------------
01000110:  	00008067    	JALR   x10, 0(x15)

--------------------------------------
010000e8:  	00050793    	ADDI   x0, x1, 0

--------------------------------------
010000ec:  	00c0006f    	JAL    x15, 10000ec

--------------------------------------
010000f8:  	00078513    	ADDI   x0, x0, 12

--------------------------------------
010000fc:  	01c12083    	LW     x10, 0(x15)

--------------------------------------
01000100:  	02010113    	ADDI   x1, x2, 28

--------------------------------------
01000104:  	00008067    	JALR   x2, 32(x2)

--------------------------------------
Exiting: Instruction memory returned out of range
xxxxxxxX:  	badbadff    	 error

--------------------------------------
